 PDC Linker 7.3.
  Module 'Exe\ex7.exe' Map. Wed Nov 09 12:18:11 2016

Frame 001000   Size 031F70.  Name=<   .text>, 	Chars=60000020h. [CER]
Frame 033000   Size 000870.  Name=<  VIPini>, 	Chars=40000040h. [IR]
Frame 034000   Size 000010.  Name=<  VIPsym>, 	Chars=40000040h. [IR]
Frame 035000   Size 000E00.  Name=<  VIPtpl>, 	Chars=40000040h. [IR]
Frame 036000   Size 01C200.  Name=<  .rdata>, 	Chars=40000040h. [IR]
Frame 053000   Size 0002C0.  Name=<  PRODBG>, 	Chars=40000040h. [IR]
Frame 054000   Size 0000C0.  Name=<   .data>, 	Chars=C0000040h. [IRW]
Frame 055000   Size 000030.  Name=< .gcroot>, 	Chars=C0000040h. [IRW]

	--- S e g m e n t s : ---

Frame 001000   Size 031F70.  Name=<   .text>, 	Chars=60000020h. [CER]
001000:000000 031F70   .text::CODE::<no group> F=4
   001000   Module 'Obj\main.A22FE9BF.obj'
   001120   Module 'Obj\registry.70FB0061.obj'
   001DB0   Module 'Obj\registry_api.4F19C9C1.obj'
   0030B0   Module 'Obj\boolean.5CA1A2E0.obj'
   0031F0   Module 'Obj\mapM_redBlack.55C022F2.obj'
   003850   Module 'Obj\setM_redBlack.1C81612B.obj'
   003CE0   Module 'Obj\string8.5F8F6B63.obj'
   003FD0   Module 'Obj\Shell_api.8B3C7C0A.obj'
   0041F0   Module 'Obj\vpiDomains.B278478A.obj'
   004210   Module 'Obj\gui_api.C64EF22C.obj'
   004C50   Module 'Obj\mapMSupport.F2ECDBAC.obj'
   005240   Module 'Obj\redBlackTree.6E2D2CC8.obj'
   008930   Module 'Obj\redBlackSet.97D1E054.obj'
   00B500   Module 'Obj\collectionMsupport.B3E5070C.obj'
   00B830   Module 'Obj\exe.064FFF24.obj'
   00BD00   Module 'Obj\console.FF8DBACA.obj'
   00DF40   Module 'Obj\core.6F82B3D2.obj'
   00EFC0   Module 'Obj\exception.0D818F93.obj'
   0123F0   Module 'Obj\programControl.9EE7D4CB.obj'
   012460   Module 'Obj\stream.50EDC860.obj'
   013370   Module 'Obj\console_api.0DF09B51.obj'
   013450   Module 'Obj\exe_api.92EB01D8.obj'
   013840   Module 'Obj\fileSystem_api.5262ADBC.obj'
   015360   Module 'Obj\time_api.06541A64.obj'
   0165F0   Module 'Obj\windowsAPI.91596BCC.obj'
   016880   Module 'Obj\exceptionDump.9F4FF40B.obj'
   017D50   Module 'Obj\fileSystem.03D2CA18.obj'
   01FF40   Module 'Obj\math.D326B71E.obj'
   021750   Module 'Obj\memory.75BC8824.obj'
   022B70   Module 'Obj\string.F4C46458.obj'
   027EC0   Module 'Obj\inputStreamSupport.7E046C1B.obj'
   0281B0   Module 'Obj\outputStreamSupport.F4FF31D0.obj'
   028700   Module 'Obj\multiThread_api.F2BE0D3B.obj'
   029280   Module 'Obj\string8_api.7710D13D.obj'
   0294F0   Module 'Obj\binary.5C1BA76F.obj'
   02E080   Module 'Obj\list.372A041A.obj'
   0309B0   Module 'Obj\namedValue.0E580094.obj'
   0317F0   Module 'Obj\std.9E23208D.obj'
   031CC0   Module 'Obj\runTime_api.6CC3F910.obj'
   0327A0   Module 'Obj\locale_api.81889F56.obj'
   032900   Module 'Obj\systemInformation_api.671D1739.obj'
   032D70   Module '.\releasepe\VIPMain.obj'
   032DE0   Module '.\releasepe\VIPDll.obj'
   032F50   Module '.\releasepe\VIPPE.obj'

Frame 033000   Size 000870.  Name=<  VIPini>, 	Chars=40000040h. [IR]
033000:000000 000004   VIPini$A::VIPini$A::VIPini F=4
   033000   Module 'Obj\main.A22FE9BF.obj'
033000:000004 0001D0   VIPini$C::VIPini$C::VIPini F=4
   033004   Module 'Obj\main.A22FE9BF.obj'
   033038   Module 'Obj\registry.70FB0061.obj'
   033048   Module 'Obj\registry_api.4F19C9C1.obj'
   033054   Module 'Obj\boolean.5CA1A2E0.obj'
   033058   Module 'Obj\collection.09E93132.obj'
   033058   Module 'Obj\mapM_redBlack.55C022F2.obj'
   033094   Module 'Obj\setM_redBlack.1C81612B.obj'
   033098   Module 'Obj\string8.5F8F6B63.obj'
   03309C   Module 'Obj\Shell_api.8B3C7C0A.obj'
   0330A4   Module 'Obj\vpiDomains.B278478A.obj'
   0330AC   Module 'Obj\gui_api.C64EF22C.obj'
   0330B4   Module 'Obj\mapMSupport.F2ECDBAC.obj'
   0330B8   Module 'Obj\redBlackTree.6E2D2CC8.obj'
   0330BC   Module 'Obj\redBlackSet.97D1E054.obj'
   0330C0   Module 'Obj\collectionMsupport.B3E5070C.obj'
   0330C4   Module 'Obj\exe.064FFF24.obj'
   0330C8   Module 'Obj\console.FF8DBACA.obj'
   0330E4   Module 'Obj\core.6F82B3D2.obj'
   0330E8   Module 'Obj\exception.0D818F93.obj'
   0330FC   Module 'Obj\programControl.9EE7D4CB.obj'
   033100   Module 'Obj\stream.50EDC860.obj'
   033114   Module 'Obj\console_api.0DF09B51.obj'
   03311C   Module 'Obj\exe_api.92EB01D8.obj'
   033124   Module 'Obj\fileSystem_api.5262ADBC.obj'
   033130   Module 'Obj\time_api.06541A64.obj'
   033138   Module 'Obj\windowsAPI.91596BCC.obj'
   03313C   Module 'Obj\exceptionDump.9F4FF40B.obj'
   033140   Module 'Obj\fileSystem.03D2CA18.obj'
   033160   Module 'Obj\math.D326B71E.obj'
   033168   Module 'Obj\memory.75BC8824.obj'
   033174   Module 'Obj\string.F4C46458.obj'
   033184   Module 'Obj\inputStreamSupport.7E046C1B.obj'
   033188   Module 'Obj\outputStreamSupport.F4FF31D0.obj'
   03318C   Module 'Obj\multiThread_api.F2BE0D3B.obj'
   033194   Module 'Obj\string8_api.7710D13D.obj'
   03319C   Module 'Obj\binary.5C1BA76F.obj'
   0331AC   Module 'Obj\list.372A041A.obj'
   0331B0   Module 'Obj\namedValue.0E580094.obj'
   0331B4   Module 'Obj\std.9E23208D.obj'
   0331B8   Module 'Obj\memory_api.26CFD9D6.obj'
   0331BC   Module 'Obj\runTime_api.6CC3F910.obj'
   0331C0   Module 'Obj\locale_api.81889F56.obj'
   0331C8   Module 'Obj\systemInformation_api.671D1739.obj'
   0331D0   Module 'Obj\string_api.6EE9B13E.obj'
033000:0001D4 000008   VIPini$E::VIPini$E::VIPini F=4
   0331D4   Module 'Obj\main.A22FE9BF.obj'

Frame 034000   Size 000010.  Name=<  VIPsym>, 	Chars=40000040h. [IR]
034000:000000 000004   VIPsym$A::VIPsym$A::VIPsym F=4
   034000   Module 'Obj\main.A22FE9BF.obj'
034000:000004 000000   VIPsym$C::VIPsym$C::VIPsym F=4
   034004   Module 'Obj\main.A22FE9BF.obj'
   034004   Module 'Obj\registry.70FB0061.obj'
   034004   Module 'Obj\registry_api.4F19C9C1.obj'
   034004   Module 'Obj\boolean.5CA1A2E0.obj'
   034004   Module 'Obj\collection.09E93132.obj'
   034004   Module 'Obj\mapM_redBlack.55C022F2.obj'
   034004   Module 'Obj\setM_redBlack.1C81612B.obj'
   034004   Module 'Obj\string8.5F8F6B63.obj'
   034004   Module 'Obj\Shell_api.8B3C7C0A.obj'
   034004   Module 'Obj\vpiDomains.B278478A.obj'
   034004   Module 'Obj\gui_api.C64EF22C.obj'
   034004   Module 'Obj\mapMSupport.F2ECDBAC.obj'
   034004   Module 'Obj\redBlackTree.6E2D2CC8.obj'
   034004   Module 'Obj\redBlackSet.97D1E054.obj'
   034004   Module 'Obj\collectionMsupport.B3E5070C.obj'
   034004   Module 'Obj\exe.064FFF24.obj'
   034004   Module 'Obj\console.FF8DBACA.obj'
   034004   Module 'Obj\core.6F82B3D2.obj'
   034004   Module 'Obj\exception.0D818F93.obj'
   034004   Module 'Obj\programControl.9EE7D4CB.obj'
   034004   Module 'Obj\stream.50EDC860.obj'
   034004   Module 'Obj\console_api.0DF09B51.obj'
   034004   Module 'Obj\exe_api.92EB01D8.obj'
   034004   Module 'Obj\fileSystem_api.5262ADBC.obj'
   034004   Module 'Obj\time_api.06541A64.obj'
   034004   Module 'Obj\windowsAPI.91596BCC.obj'
   034004   Module 'Obj\exceptionDump.9F4FF40B.obj'
   034004   Module 'Obj\fileSystem.03D2CA18.obj'
   034004   Module 'Obj\math.D326B71E.obj'
   034004   Module 'Obj\memory.75BC8824.obj'
   034004   Module 'Obj\string.F4C46458.obj'
   034004   Module 'Obj\inputStreamSupport.7E046C1B.obj'
   034004   Module 'Obj\outputStreamSupport.F4FF31D0.obj'
   034004   Module 'Obj\multiThread_api.F2BE0D3B.obj'
   034004   Module 'Obj\string8_api.7710D13D.obj'
   034004   Module 'Obj\binary.5C1BA76F.obj'
   034004   Module 'Obj\list.372A041A.obj'
   034004   Module 'Obj\namedValue.0E580094.obj'
   034004   Module 'Obj\std.9E23208D.obj'
   034004   Module 'Obj\memory_api.26CFD9D6.obj'
   034004   Module 'Obj\runTime_api.6CC3F910.obj'
   034004   Module 'Obj\locale_api.81889F56.obj'
   034004   Module 'Obj\systemInformation_api.671D1739.obj'
   034004   Module 'Obj\string_api.6EE9B13E.obj'
034000:000004 000008   VIPsym$E::VIPsym$E::VIPsym F=4
   034004   Module 'Obj\main.A22FE9BF.obj'

Frame 035000   Size 000E00.  Name=<  VIPtpl>, 	Chars=40000040h. [IR]
035000:000000 000004   VIPtpl$A::VIPtpl$A::VIPtpl F=4
   035000   Module 'Obj\main.A22FE9BF.obj'
035000:000004 000DE8   VIPtpl$C::VIPtpl$C::VIPtpl F=4
   035004   Module 'Obj\main.A22FE9BF.obj'
   03509C   Module 'Obj\registry.70FB0061.obj'
   0350E0   Module 'Obj\registry_api.4F19C9C1.obj'
   035128   Module 'Obj\boolean.5CA1A2E0.obj'
   035134   Module 'Obj\collection.09E93132.obj'
   035138   Module 'Obj\mapM_redBlack.55C022F2.obj'
   035184   Module 'Obj\setM_redBlack.1C81612B.obj'
   0351C8   Module 'Obj\string8.5F8F6B63.obj'
   0351D8   Module 'Obj\Shell_api.8B3C7C0A.obj'
   035220   Module 'Obj\vpiDomains.B278478A.obj'
   035310   Module 'Obj\gui_api.C64EF22C.obj'
   03541C   Module 'Obj\mapMSupport.F2ECDBAC.obj'
   035470   Module 'Obj\redBlackTree.6E2D2CC8.obj'
   0354A0   Module 'Obj\redBlackSet.97D1E054.obj'
   0354C4   Module 'Obj\collectionMsupport.B3E5070C.obj'
   035508   Module 'Obj\exe.064FFF24.obj'
   035550   Module 'Obj\console.FF8DBACA.obj'
   0355B0   Module 'Obj\core.6F82B3D2.obj'
   0356C8   Module 'Obj\exception.0D818F93.obj'
   035728   Module 'Obj\programControl.9EE7D4CB.obj'
   035744   Module 'Obj\stream.50EDC860.obj'
   035788   Module 'Obj\console_api.0DF09B51.obj'
   0357B8   Module 'Obj\exe_api.92EB01D8.obj'
   035804   Module 'Obj\fileSystem_api.5262ADBC.obj'
   0358A4   Module 'Obj\time_api.06541A64.obj'
   0358CC   Module 'Obj\windowsAPI.91596BCC.obj'
   035910   Module 'Obj\exceptionDump.9F4FF40B.obj'
   03594C   Module 'Obj\fileSystem.03D2CA18.obj'
   0359DC   Module 'Obj\math.D326B71E.obj'
   035A00   Module 'Obj\memory.75BC8824.obj'
   035AAC   Module 'Obj\string.F4C46458.obj'
   035B14   Module 'Obj\inputStreamSupport.7E046C1B.obj'
   035B54   Module 'Obj\outputStreamSupport.F4FF31D0.obj'
   035BA4   Module 'Obj\multiThread_api.F2BE0D3B.obj'
   035BD4   Module 'Obj\string8_api.7710D13D.obj'
   035BE8   Module 'Obj\binary.5C1BA76F.obj'
   035C44   Module 'Obj\list.372A041A.obj'
   035CA4   Module 'Obj\namedValue.0E580094.obj'
   035CE0   Module 'Obj\std.9E23208D.obj'
   035CEC   Module 'Obj\memory_api.26CFD9D6.obj'
   035D00   Module 'Obj\runTime_api.6CC3F910.obj'
   035D50   Module 'Obj\locale_api.81889F56.obj'
   035D5C   Module 'Obj\systemInformation_api.671D1739.obj'
   035DB0   Module 'Obj\string_api.6EE9B13E.obj'
035000:000DEC 000008   VIPtpl$E::VIPtpl$E::VIPtpl F=4
   035DEC   Module 'Obj\main.A22FE9BF.obj'

Frame 036000   Size 01C200.  Name=<  .rdata>, 	Chars=40000040h. [IR]
036000:000000 00DE20   VIPClass::VIPClass::.rdata F=4
   036000   Module 'Obj\main.A22FE9BF.obj'
   036550   Module 'Obj\registry.70FB0061.obj'
   036730   Module 'Obj\registry_api.4F19C9C1.obj'
   0368C0   Module 'Obj\boolean.5CA1A2E0.obj'
   036920   Module 'Obj\mapM_redBlack.55C022F2.obj'
   037050   Module 'Obj\setM_redBlack.1C81612B.obj'
   0374C0   Module 'Obj\string8.5F8F6B63.obj'
   037520   Module 'Obj\Shell_api.8B3C7C0A.obj'
   037B90   Module 'Obj\vpiDomains.B278478A.obj'
   039500   Module 'Obj\gui_api.C64EF22C.obj'
   03A9D0   Module 'Obj\mapMSupport.F2ECDBAC.obj'
   03ADB0   Module 'Obj\redBlackTree.6E2D2CC8.obj'
   03B0F0   Module 'Obj\redBlackSet.97D1E054.obj'
   03B300   Module 'Obj\collectionMsupport.B3E5070C.obj'
   03B570   Module 'Obj\exe.064FFF24.obj'
   03B6E0   Module 'Obj\console.FF8DBACA.obj'
   03C150   Module 'Obj\core.6F82B3D2.obj'
   03CE40   Module 'Obj\exception.0D818F93.obj'
   03D630   Module 'Obj\programControl.9EE7D4CB.obj'
   03D740   Module 'Obj\stream.50EDC860.obj'
   03DD40   Module 'Obj\console_api.0DF09B51.obj'
   03E120   Module 'Obj\exe_api.92EB01D8.obj'
   03E370   Module 'Obj\fileSystem_api.5262ADBC.obj'
   03EF80   Module 'Obj\time_api.06541A64.obj'
   03F240   Module 'Obj\windowsAPI.91596BCC.obj'
   03F330   Module 'Obj\exceptionDump.9F4FF40B.obj'
   03F3D0   Module 'Obj\fileSystem.03D2CA18.obj'
   040680   Module 'Obj\math.D326B71E.obj'
   0407E0   Module 'Obj\memory.75BC8824.obj'
   0411F0   Module 'Obj\string.F4C46458.obj'
   041D20   Module 'Obj\inputStreamSupport.7E046C1B.obj'
   041EF0   Module 'Obj\outputStreamSupport.F4FF31D0.obj'
   042150   Module 'Obj\multiThread_api.F2BE0D3B.obj'
   042530   Module 'Obj\string8_api.7710D13D.obj'
   042660   Module 'Obj\binary.5C1BA76F.obj'
   042F50   Module 'Obj\list.372A041A.obj'
   0434A0   Module 'Obj\namedValue.0E580094.obj'
   043510   Module 'Obj\std.9E23208D.obj'
   043560   Module 'Obj\memory_api.26CFD9D6.obj'
   043700   Module 'Obj\runTime_api.6CC3F910.obj'
   0438B0   Module 'Obj\locale_api.81889F56.obj'
   0439D0   Module 'Obj\systemInformation_api.671D1739.obj'
   043D90   Module 'Obj\string_api.6EE9B13E.obj'
036000:00DE20 00AEBC   VIPStrs::VIPStrs::.rdata F=4
   043E20   Module 'Obj\main.A22FE9BF.obj'
   043E88   Module 'Obj\registry.70FB0061.obj'
   0442CC   Module 'Obj\registry_api.4F19C9C1.obj'
   0445DC   Module 'Obj\boolean.5CA1A2E0.obj'
   0446DC   Module 'Obj\collection.09E93132.obj'
   044774   Module 'Obj\mapM_redBlack.55C022F2.obj'
   0448D4   Module 'Obj\setM_redBlack.1C81612B.obj'
   044A34   Module 'Obj\string8.5F8F6B63.obj'
   044B54   Module 'Obj\Shell_api.8B3C7C0A.obj'
   045398   Module 'Obj\vpiDomains.B278478A.obj'
   0454CC   Module 'Obj\gui_api.C64EF22C.obj'
   045894   Module 'Obj\mapMSupport.F2ECDBAC.obj'
   045A54   Module 'Obj\redBlackTree.6E2D2CC8.obj'
   045BB0   Module 'Obj\redBlackSet.97D1E054.obj'
   045D24   Module 'Obj\collectionMsupport.B3E5070C.obj'
   045ECC   Module 'Obj\exe.064FFF24.obj'
   046030   Module 'Obj\console.FF8DBACA.obj'
   046658   Module 'Obj\core.6F82B3D2.obj'
   0468CC   Module 'Obj\exception.0D818F93.obj'
   049498   Module 'Obj\programControl.9EE7D4CB.obj'
   0495F0   Module 'Obj\stream.50EDC860.obj'
   049EF4   Module 'Obj\console_api.0DF09B51.obj'
   04A0BC   Module 'Obj\exe_api.92EB01D8.obj'
   04A25C   Module 'Obj\fileSystem_api.5262ADBC.obj'
   04A82C   Module 'Obj\time_api.06541A64.obj'
   04ACDC   Module 'Obj\windowsAPI.91596BCC.obj'
   04AD74   Module 'Obj\exceptionDump.9F4FF40B.obj'
   04B154   Module 'Obj\fileSystem.03D2CA18.obj'
   04BD30   Module 'Obj\math.D326B71E.obj'
   04C0B8   Module 'Obj\memory.75BC8824.obj'
   04C170   Module 'Obj\string.F4C46458.obj'
   04CAA0   Module 'Obj\inputStreamSupport.7E046C1B.obj'
   04CCA0   Module 'Obj\outputStreamSupport.F4FF31D0.obj'
   04CE7C   Module 'Obj\multiThread_api.F2BE0D3B.obj'
   04D2B8   Module 'Obj\string8_api.7710D13D.obj'
   04D46C   Module 'Obj\binary.5C1BA76F.obj'
   04D9AC   Module 'Obj\list.372A041A.obj'
   04DB78   Module 'Obj\namedValue.0E580094.obj'
   04DE00   Module 'Obj\std.9E23208D.obj'
   04DE8C   Module 'Obj\memory_api.26CFD9D6.obj'
   04DF38   Module 'Obj\runTime_api.6CC3F910.obj'
   04E850   Module 'Obj\locale_api.81889F56.obj'
   04E9E8   Module 'Obj\systemInformation_api.671D1739.obj'
   04EC30   Module 'Obj\string_api.6EE9B13E.obj'
036000:018CE0 001AA0   VIPInter::VIPInter::.rdata F=4
   04ECE0   Module 'Obj\main.A22FE9BF.obj'
   04F560   Module 'Obj\registry.70FB0061.obj'
   04F740   Module 'Obj\registry_api.4F19C9C1.obj'
   04F820   Module 'Obj\mapM_redBlack.55C022F2.obj'
   050410   Module 'Obj\console.FF8DBACA.obj'
036000:01A780 001A7C   .rdata::.rdata::.rdata F=4
   050780   Module 'Obj\main.A22FE9BF.obj'
   0507B0   Module 'Obj\registry.70FB0061.obj'
   050830   Module 'Obj\registry_api.4F19C9C1.obj'
   0508D0   Module 'Obj\boolean.5CA1A2E0.obj'
   0508D0   Module 'Obj\collection.09E93132.obj'
   0508D0   Module 'Obj\mapM_redBlack.55C022F2.obj'
   0508D0   Module 'Obj\setM_redBlack.1C81612B.obj'
   0508D0   Module 'Obj\string8.5F8F6B63.obj'
   0508E0   Module 'Obj\Shell_api.8B3C7C0A.obj'
   050900   Module 'Obj\vpiDomains.B278478A.obj'
   050900   Module 'Obj\gui_api.C64EF22C.obj'
   0509C0   Module 'Obj\mapMSupport.F2ECDBAC.obj'
   0509C0   Module 'Obj\redBlackTree.6E2D2CC8.obj'
   050A00   Module 'Obj\redBlackSet.97D1E054.obj'
   050A40   Module 'Obj\collectionMsupport.B3E5070C.obj'
   050A40   Module 'Obj\exe.064FFF24.obj'
   050A70   Module 'Obj\console.FF8DBACA.obj'
   050B80   Module 'Obj\core.6F82B3D2.obj'
   050CD0   Module 'Obj\exception.0D818F93.obj'
   051360   Module 'Obj\programControl.9EE7D4CB.obj'
   051360   Module 'Obj\stream.50EDC860.obj'
   051400   Module 'Obj\console_api.0DF09B51.obj'
   051430   Module 'Obj\exe_api.92EB01D8.obj'
   051460   Module 'Obj\fileSystem_api.5262ADBC.obj'
   0515B0   Module 'Obj\time_api.06541A64.obj'
   051660   Module 'Obj\windowsAPI.91596BCC.obj'
   051670   Module 'Obj\exceptionDump.9F4FF40B.obj'
   0516C0   Module 'Obj\fileSystem.03D2CA18.obj'
   051AB0   Module 'Obj\math.D326B71E.obj'
   051C00   Module 'Obj\memory.75BC8824.obj'
   051C10   Module 'Obj\string.F4C46458.obj'
   051D20   Module 'Obj\inputStreamSupport.7E046C1B.obj'
   051D30   Module 'Obj\outputStreamSupport.F4FF31D0.obj'
   051D70   Module 'Obj\multiThread_api.F2BE0D3B.obj'
   051DE0   Module 'Obj\string8_api.7710D13D.obj'
   051E10   Module 'Obj\binary.5C1BA76F.obj'
   051FC0   Module 'Obj\list.372A041A.obj'
   052090   Module 'Obj\namedValue.0E580094.obj'
   0520F0   Module 'Obj\std.9E23208D.obj'
   0520F0   Module 'Obj\memory_api.26CFD9D6.obj'
   0520F0   Module 'Obj\runTime_api.6CC3F910.obj'
   0520F0   Module 'Obj\locale_api.81889F56.obj'
   0520F0   Module 'Obj\systemInformation_api.671D1739.obj'
   052150   Module 'Obj\string_api.6EE9B13E.obj'
   052150   Module '.\releasepe\VIPPE.obj'

Frame 053000   Size 0002C0.  Name=<  PRODBG>, 	Chars=40000040h. [IR]
053000:000000 0002C0   PRODBG::PRODBG::PRODBG F=4
   053000   Module 'Obj\main.A22FE9BF.obj'
   053010   Module 'Obj\registry.70FB0061.obj'
   053020   Module 'Obj\registry_api.4F19C9C1.obj'
   053030   Module 'Obj\boolean.5CA1A2E0.obj'
   053040   Module 'Obj\collection.09E93132.obj'
   053050   Module 'Obj\mapM_redBlack.55C022F2.obj'
   053060   Module 'Obj\setM_redBlack.1C81612B.obj'
   053070   Module 'Obj\string8.5F8F6B63.obj'
   053080   Module 'Obj\Shell_api.8B3C7C0A.obj'
   053090   Module 'Obj\vpiDomains.B278478A.obj'
   0530A0   Module 'Obj\gui_api.C64EF22C.obj'
   0530B0   Module 'Obj\mapMSupport.F2ECDBAC.obj'
   0530C0   Module 'Obj\redBlackTree.6E2D2CC8.obj'
   0530D0   Module 'Obj\redBlackSet.97D1E054.obj'
   0530E0   Module 'Obj\collectionMsupport.B3E5070C.obj'
   0530F0   Module 'Obj\exe.064FFF24.obj'
   053100   Module 'Obj\console.FF8DBACA.obj'
   053110   Module 'Obj\core.6F82B3D2.obj'
   053120   Module 'Obj\exception.0D818F93.obj'
   053130   Module 'Obj\programControl.9EE7D4CB.obj'
   053140   Module 'Obj\stream.50EDC860.obj'
   053150   Module 'Obj\console_api.0DF09B51.obj'
   053160   Module 'Obj\exe_api.92EB01D8.obj'
   053170   Module 'Obj\fileSystem_api.5262ADBC.obj'
   053180   Module 'Obj\time_api.06541A64.obj'
   053190   Module 'Obj\windowsAPI.91596BCC.obj'
   0531A0   Module 'Obj\exceptionDump.9F4FF40B.obj'
   0531B0   Module 'Obj\fileSystem.03D2CA18.obj'
   0531C0   Module 'Obj\math.D326B71E.obj'
   0531D0   Module 'Obj\memory.75BC8824.obj'
   0531E0   Module 'Obj\string.F4C46458.obj'
   0531F0   Module 'Obj\inputStreamSupport.7E046C1B.obj'
   053200   Module 'Obj\outputStreamSupport.F4FF31D0.obj'
   053210   Module 'Obj\multiThread_api.F2BE0D3B.obj'
   053220   Module 'Obj\string8_api.7710D13D.obj'
   053230   Module 'Obj\binary.5C1BA76F.obj'
   053240   Module 'Obj\list.372A041A.obj'
   053250   Module 'Obj\namedValue.0E580094.obj'
   053260   Module 'Obj\std.9E23208D.obj'
   053270   Module 'Obj\memory_api.26CFD9D6.obj'
   053280   Module 'Obj\runTime_api.6CC3F910.obj'
   053290   Module 'Obj\locale_api.81889F56.obj'
   0532A0   Module 'Obj\systemInformation_api.671D1739.obj'
   0532B0   Module 'Obj\string_api.6EE9B13E.obj'

Frame 054000   Size 0000C0.  Name=<   .data>, 	Chars=C0000040h. [IRW]
054000:000000 0000AC   .data::DATA::DGROUP F=4
   054000   Module 'Obj\mapM_redBlack.55C022F2.obj'
   054008   Module 'Obj\setM_redBlack.1C81612B.obj'
   054010   Module 'Obj\mapMSupport.F2ECDBAC.obj'
   054018   Module 'Obj\collectionMsupport.B3E5070C.obj'
   054020   Module 'Obj\console.FF8DBACA.obj'
   054030   Module 'Obj\exception.0D818F93.obj'
   054038   Module 'Obj\stream.50EDC860.obj'
   054050   Module 'Obj\fileSystem_api.5262ADBC.obj'
   054054   Module 'Obj\time_api.06541A64.obj'
   054058   Module 'Obj\fileSystem.03D2CA18.obj'
   054070   Module 'Obj\memory.75BC8824.obj'
   054078   Module 'Obj\string.F4C46458.obj'
   054088   Module 'Obj\inputStreamSupport.7E046C1B.obj'
   054090   Module 'Obj\outputStreamSupport.F4FF31D0.obj'
   054098   Module 'Obj\binary.5C1BA76F.obj'
   0540A8   Module 'Obj\runTime_api.6CC3F910.obj'
054000:0000AC 00000C   .bss::BSS::DGROUP F=4
   0540AC   Module '.\releasepe\VIPDll.obj'

Frame 055000   Size 000030.  Name=< .gcroot>, 	Chars=C0000040h. [IRW]
055000:000000 000024   .gcroot::.gcroot::.gcroot F=4
   055000   Module 'Obj\exe.064FFF24.obj'
   055008   Module 'Obj\console.FF8DBACA.obj'
   055014   Module 'Obj\stream.50EDC860.obj'
   055020   Module 'Obj\runTime_api.6CC3F910.obj'

	     ------- Names by value Map ---------
Frame 001000   Size 031F70.  Name=<   .text>, 	Chars=60000020h. [CER]
001000:000000 031F70   .text::CODE::<no group> F=4
--- From '.\releasepe\VIPDll.obj'
01:00001000 _PROLOG_Goal 
--- From 'Obj\main.A22FE9BF.obj'
01:0000101C ?classInfo@main@@SAXPAPB_W0@Z  (Idle)
01:00001038 ?run@main@@SAXXZ 
01:000010C0 ?gorod@main@@SAXPAPB_W@Z 
--- From 'Obj\registry.70FB0061.obj'
01:00001120 ?classInfo@registry_exception@@SAXPAPB_W0@Z 
01:0000113C ?wrongValue@registry_exception@@SAXPAXPAPB_W1@Z 
01:00001164 ?noPath@registry_exception@@SAXPAXPAPB_W1@Z 
01:0000118C ?cannotCreateKey@registry_exception@@SAXPAXPAPB_W1@Z 
01:000011B4 ?raise_WrongValue@registry_exception@@SAXXPBUunsigned32@@PAUrootKey_struct@registry@@PB_W3@Z  (Idle)
01:00001344 ?raise_noPath@registry_exception@@SAXXPBUunsigned32@@PAUrootKey_struct@registry@@PB_W3@Z  (Idle)
01:000014D4 ?raise_CannotCreateKey@registry_exception@@SAXXPBUunsigned32@@PAUrootKey_struct@registry@@PB_W@Z  (Idle)
01:00001610 ?_getSystemDescription@registry_exception@@SAXIPAPB_W@Z 
01:0000164C ?_getRootKeyName@registry_exception@@SAXPAUrootKey_struct@registry@@PAPB_W@Z 
01:000016B8 ?classInfo@registry@@SAXPAPB_W0@Z 
01:000016D4 ?createKey@registry@@SAXPAUrootKey_struct@1@PB_W@Z  (Idle)
01:00001720 ?existKey@registry@@SAXPAUrootKey_struct@1@PB_W@Z  (Idle)
01:00001764 ?deleteKey@registry@@SAXPAUrootKey_struct@1@PB_W@Z 
01:000017B4 ?deleteKeyList@registry@@SAXPAUrootKey_struct@1@PB_WPAU?$__list_struct@Ustring@@@@@Z 
01:00001814 ?setValue@registry@@SAXPAUrootKey_struct@1@PB_WPAU?$__list_struct@UnamedValue@@@@@Z  (Idle)
01:00001930 ?setValuesToKey@registry@@SAXPBUhkey@@PAU?$__list_struct@UnamedValue@@@@@Z 
--- From 'Obj\runTime_api.6CC3F910.obj'
01:00001980 ?_getValue@registry@@SAXPAUrootKey_struct@1@PB_W1PAPAUvalue_struct@core@@@Z 
01:00001A24 ?_tryGetValue@registry@@SAXPAUrootKey_struct@1@PB_W1PAPAUvalue_struct@core@@@Z 
--- From 'Obj\registry.70FB0061.obj'
01:00001B18 ?removeValue@registry@@SAXPAUrootKey_struct@1@PB_WPAU?$__list_struct@Ustring@@@@@Z  (Idle)
01:00001BB8 ?removeListValues@registry@@SAXPBUhkey@@PAU?$__list_struct@Ustring@@@@@Z 
01:00001C00 ?_getSubkeys@registry@@SAXPAUrootKey_struct@1@PB_WPAPAU?$__list_struct@Ustring@@@@@Z 
01:00001CA0 ?_getAllValues@registry@@SAXPAUrootKey_struct@1@PB_WPAPAU?$__list_struct@UnamedValue@@@@@Z  (Idle)
01:00001D40 ?_getRootKeyHandle@registry@@SAXPAUrootKey_struct@1@AAUhkey@@@Z 
--- From 'Obj\registry_api.4F19C9C1.obj'
01:00001DB0 ?_regOpenKeyEx@registry_api@@SAXPBUhkey@@PB_WIAAU2@@Z 
01:00001DF8 ?_regTryOpenKeyEx@registry_api@@SAXPBUhkey@@PB_WIAAU2@@Z 
01:00001E20 ?regCloseKey@registry_api@@SAXPBUhkey@@@Z 
01:00001EB0 ?_regCreateKeyEx@registry_api@@SAXPBUhkey@@PB_WIIPAUsecurityAttr_struct@registry_native@@PAIAAU2@@Z 
01:00001EF8 ?regDeleteKey@registry_api@@SAXPBUhkey@@PB_W@Z 
01:00001F38 ?_regEnumKeyEx@registry_api@@SAXPBUhkey@@PAPAU?$__list_struct@Ustring@@@@@Z 
01:00001FD0 ?_regEnumKeyEx1@registry_api@@SAXPBUhKey@@IPB_WIPAPAU?$__list_struct@Ustring@@@@@Z 
01:0000204C ?_tryRegEnumKeyExOne@registry_api@@SAXPBUhKey@@IPB_WIPAPB_W@Z 
01:00002188 ?regSetValueEx@registry_api@@SAXPBUhkey@@PB_WPAUvalue_struct@core@@@Z 
01:000021F8 ?_regQueryValueEx@registry_api@@SAXPBUhkey@@PB_WPAPAUvalue_struct@core@@@Z 
01:0000225C ?_regTryQueryValueEx@registry_api@@SAXPBUhkey@@PB_WPAPAUvalue_struct@core@@@Z 
01:000022B0 ?_regQueryValueEx1@registry_api@@SAXPBUhKey@@PB_WPAUpUnsigned_struct@memory@@PAPAUvalue_struct@core@@@Z 
01:0000234C ?regDeleteValue@registry_api@@SAXPBUhkey@@PB_W@Z 
01:00002380 ?_regEnumValue@registry_api@@SAXPBUhkey@@PAPAU?$__list_struct@UnamedValue@@@@@Z 
01:00002418 ?_regEnumValue1@registry_api@@SAXPBUhKey@@IPB_WIPAPAU?$__list_struct@UnamedValue@@@@@Z 
01:00002494 ?_tryRegEnumValueOne@registry_api@@SAXPBUhKey@@IPB_WIPAPAUnamedValue_struct@core@@@Z 
01:00002808 ?_packValue@registry_api@@SAXIPAXPBUbyteCount@@PAPAUvalue_struct@core@@@Z 
01:00002AA0 ?unpackValue@registry_api@@SAXPAUvalue_struct@core@@PAIPAPAXAAUbyteCount@@@Z 
01:00002E2C ?_convertToStringList@registry_api@@SAXPAXPBUbyteCount@@PAPAU?$__list_struct@Ustring@@@@@Z 
01:00002EE4 ?_mk_pUnsigned@registry_api@@SAXIPAPAUpUnsigned_struct@memory@@@Z 
01:00002F08 ?_getInteger@registry_api@@SAXPAUpUnsigned_struct@memory@@PAH@Z 
01:00002F1C ?_getUnsigned@registry_api@@SAXPAUpUnsigned_struct@memory@@AAUbyteCount@@@Z 
01:00002F30 ?check_name_value@registry_api@@SAXIPB_W1PAUvalue_struct@core@@@Z 
01:00002FE4 ?check_name@registry_api@@SAXIPB_W1@Z 
01:00003068 ?check@registry_api@@SAXIPB_WPAU?$__list_struct@UnamedValue@@@@@Z 
01:00003090 ?classInfo@registry_api@@SAXPAPB_W0@Z 
--- From 'Obj\boolean.5CA1A2E0.obj'
01:000030B0 ?classInfo@boolean@@SAXPAPB_W0@Z  (Idle)
--- From 'Obj\multiThread_api.F2BE0D3B.obj'
01:000030CC ?_toBooleanInt@boolean@@SAXPAUboolean_struct@_builtIn@@AAUbooleanInt@@@Z 
--- From 'Obj\boolean.5CA1A2E0.obj'
01:000030F0 ?_fromBooleanInt@boolean@@SAXPBUbooleanInt@@PAPAUboolean_struct@_builtIn@@@Z  (Idle)
01:00003114 ?_logicalNot@boolean@@SAXPAUboolean_struct@_builtIn@@PAPAU23@@Z  (Idle)
01:00003138 ?_logicalAnd@boolean@@SAXPAUboolean_struct@_builtIn@@0PAPAU23@@Z  (Idle)
01:00003174 ?_logicalOr@boolean@@SAXPAUboolean_struct@_builtIn@@0PAPAU23@@Z  (Idle)
01:000031B0 ?_logicalXor@boolean@@SAXPAUboolean_struct@_builtIn@@0PAPAU23@@Z  (Idle)
--- From 'Obj\mapM_redBlack.55C022F2.obj'
01:000031F0 ?new@mapM_redBlack@@SAXQAV1@@PAXPAXQAVrTypeLibrary@TypeLibraries@RunTime@VIP@@1@Z 
01:00003238 ?newCustom@mapM_redBlack@@SAXQAV1@@PAXPAXQAVrTypeLibrary@TypeLibraries@RunTime@VIP@@1X@Z 
01:00003278 ?set@mapM_redBlack@@SAXQAVmapM@@@PAXPAXPAXPAX@Z 
01:000032BC ?_tryGet@mapM_redBlack@@SAXQAVmap@@@PAXPAXPAXPAPAX@Z 
01:00003304 ?_getAll_nd@mapM_redBlack@@SAXQAVcollection@@@PAXPAPAX@Z 
01:00003344 ?removeKey@mapM_redBlack@@SAXQAVmapM@@@PAXPAXPAX@Z 
01:0000339C ?clear@mapM_redBlack@@SAXQAVmodifiable@@@PAX@Z 
01:000033D8 ?classInfo@mapM_redBlack@@SAXPAPB_W0@Z  (Idle)
01:000033F4 ?siteClassInfo@mapM_redBlack@@SAXQAVcollectionMsite@@collectionSupportM@@PAXPAPB_W1@Z 
--- From 'Obj\list.372A041A.obj'
01:00003410 ?_new@mapM_redBlack@@SAXQAVrTypeLibrary@TypeLibraries@RunTime@VIP@@0PAPAVmapM@@@PAPAXPAPAX@Z 
--- From 'Obj\mapM_redBlack.55C022F2.obj'
01:00003444 ?_newCustom@mapM_redBlack@@SAXQAVrTypeLibrary@TypeLibraries@RunTime@VIP@@0XPAPAVmapM@@@PAPAXPAPAX@Z  (Idle)
01:00003478 ?_object_typelib_initializer@mapM_redBlack@@SGXQAV1@@PAXPAXQAVrTypeLibrary@TypeLibraries@RunTime@VIP@@1@Z 
01:000037D4 mapM_redBlack{@Key,@Data}?_initObject@@@QAGXQAV1@H@Z 
01:00003818 ?@create_object@mapM_redBlack@@SGQAV1@@PAXPAXQAVrTypeLibrary@TypeLibraries@RunTime@VIP@@0@Z 
01:00003840 mapM_redBlack{@Key,@Data}?_InternalFinalizer@@@QAGXQAV1@@Z 
--- From 'Obj\setM_redBlack.1C81612B.obj'
01:00003850 ?new@setM_redBlack@@SAXQAV1@@PAXQAVrTypeLibrary@TypeLibraries@RunTime@VIP@@@Z 
01:00003878 ?newCustom@setM_redBlack@@SAXQAV1@@PAXQAVrTypeLibrary@TypeLibraries@RunTime@VIP@@X@Z 
01:000038A0 ?newInternal@setM_redBlack@@SAXQAV1@@PAXQAVrTypeLibrary@TypeLibraries@RunTime@VIP@@PAUset_struct@redBlackSet@@PAX@Z 
01:000038BC ?contains@setM_redBlack@@SAXQAVcollection@@@PAXPAX@Z 
01:000038F0 ?_getAll_nd@setM_redBlack@@SAXQAVcollection@@@PAXPAPAX@Z 
01:00003920 ?insert@setM_redBlack@@SAXQAVmodifiable@@@PAXPAX@Z 
01:00003958 ?remove@setM_redBlack@@SAXQAVmodifiable@@@PAXPAX@Z 
01:00003990 ?clear@setM_redBlack@@SAXQAVmodifiable@@@PAX@Z 
01:000039C4 ?classInfo@setM_redBlack@@SAXPAPB_W0@Z  (Idle)
01:000039E0 ?siteClassInfo@setM_redBlack@@SAXQAVcollectionMsite@@collectionSupportM@@PAXPAPB_W1@Z 
--- From 'Obj\list.372A041A.obj'
01:000039FC ?_new@setM_redBlack@@SAXQAVrTypeLibrary@TypeLibraries@RunTime@VIP@@PAPAVsetM@@@PAPAX@Z 
01:00003A28 ?_newCustom@setM_redBlack@@SAXQAVrTypeLibrary@TypeLibraries@RunTime@VIP@@XPAPAVsetM@@@PAPAX@Z 
--- From 'Obj\setM_redBlack.1C81612B.obj'
01:00003A58 ?_newInternal@setM_redBlack@@SAXQAVrTypeLibrary@TypeLibraries@RunTime@VIP@@PAUset_struct@redBlackSet@@PAXPAPAVsetM@@@PAPAX@Z  (Idle)
01:00003A88 ?_object_typelib_initializer@setM_redBlack@@SGXQAV1@@PAXQAVrTypeLibrary@TypeLibraries@RunTime@VIP@@@Z 
01:00003C68 setM_redBlack{@Type}?_initObject@@@QAGXQAV1@H@Z 
01:00003CA4 ?@create_object@setM_redBlack@@SGQAV1@@PAXQAVrTypeLibrary@TypeLibraries@RunTime@VIP@@@Z 
01:00003CC8 setM_redBlack{@Type}?_InternalFinalizer@@@QAGXQAV1@@Z 
--- From 'Obj\string8.5F8F6B63.obj'
01:00003CE0 ?classInfo@string8@@SAXPAPB_W0@Z  (Idle)
01:00003CFC ?isValidCodePage@string8@@SAXI@Z  (Idle)
01:00003D18 ?isValidToRead@string8@@SAXPAD@Z  (Idle)
--- From 'Obj\runTime_api.6CC3F910.obj'
01:00003D38 ?_mapFromString@string8@@SAXPB_WPAPAD@Z 
--- From 'Obj\string8.5F8F6B63.obj'
01:00003D60 ?_mapFromString@string8@@SAXPB_WPAUcodePage_struct@core@@PAPAD@Z 
01:00003DB4 ?_mapToString@string8@@SAXPADPAPB_W@Z  (Idle)
--- From 'Obj\binary.5C1BA76F.obj'
01:00003DDC ?_mapToString@string8@@SAXPADPAUcodePage_struct@core@@PAPB_W@Z 
--- From 'Obj\string8.5F8F6B63.obj'
01:00003E28 ?_mapFromChar@string8@@SAX_WAAUchar8@@@Z  (Idle)
01:00003E50 ?_mapFromChar@string8@@SAX_WPAUcodePage_struct@core@@AAUchar8@@@Z 
01:00003EC4 ?_mapToChar@string8@@SAXPBUchar8@@PA_W@Z  (Idle)
01:00003EEC ?_mapToChar@string8@@SAXPBUchar8@@PAUcodePage_struct@core@@PA_W@Z 
01:00003F5C ?_createCopy@string8@@SAXPADPAPAD@Z  (Idle)
--- From 'Obj\Shell_api.8B3C7C0A.obj'
01:00003FD0 ?classInfo@shell_native@@SAXPAPB_W0@Z  (Idle)
01:00003FEC ?classInfo@shell_api@@SAXPAPB_W0@Z 
01:00004008 ?shellExecute@shell_api@@SAXPBUhwnd@@PB_W111H@Z  (Idle)
01:00004068 ?shellExecuteEx@shell_api@@SAXPAUshellExecuteInfo_struct@shell_native@@@Z  (Idle)
01:000040A8 ?_getSEErrorDescription@shell_api@@SAXPBUunsigned32@@PAPB_W@Z 
--- From 'Obj\vpiDomains.B278478A.obj'
01:000041F0 ?classInfo@vpiOwnerDraw@@SAXPAPB_W0@Z  (Idle)
--- From 'Obj\gui_api.C64EF22C.obj'
01:00004210 ?classInfo@gui_native@@SAXPAPB_W0@Z  (Idle)
01:0000422C ?classInfo@gui_api@@SAXPAPB_W0@Z 
01:00004248 ?getScrollRange@gui_api@@SAXPBUhwnd@@HPAHPAH@Z  (Idle)
01:00004290 ?_getScrollInfo@gui_api@@SAXPBUhwnd@@HPAPAUscrollInfo_struct@1@@Z  (Idle)
01:0000437C ?_setScrollInfo@gui_api@@SAXPBUhwnd@@HPAUscrollInfo_struct@1@HPAH@Z  (Idle)
01:000043F4 ?_scrollWindowEx@gui_api@@SAXPBUhwnd@@HHPAUrct_struct@vpiDomains@@3I3IPAH@Z  (Idle)
01:0000444C ?_makePoints@gui_api@@SAXHPAPAUpnt_struct@vpiDomains@@@Z  (Idle)
01:000044B4 ?_makeLParam@gui_api@@SAXPAUpnt_struct@vpiDomains@@PAH@Z  (Idle)
01:00004534 ?_getWindowPlacement@gui_api@@SAXPBUhwnd@@PAPAUwindowPlacement_struct@1@@Z  (Idle)
01:000045F0 ?setWindowPlacement@gui_api@@SAXPBUhwnd@@PAUwindowPlacement_struct@1@@Z  (Idle)
01:000046A8 ?_getTextMetrics@gui_api@@SAXPBUhDC@@PAPAUtextmetric_struct@gui_native@@@Z 
01:00004704 ?_getTextMetrics_hwnd@gui_api@@SAXPBU2@PAPAUtextmetric_struct@gui_native@@@Z  (Idle)
01:00004780 ?_registerClassEx@gui_api@@SAXIXHHPBUhModule@@PBUhIcon@@PBUhCursor@@PBUhBrush@@PB_W85AAUatom@@@Z  (Idle)
01:00004874 ?_createWindowEx@gui_api@@SAXIPB_W1IHHHHPBUhwnd@@PBUhMenu@@PBUhModule@@PAXAAU2@@Z  (Idle)
01:00004930 ?_beginPaint@gui_api@@SAXPBUhwnd@@PAPAUpaintStruct_struct@gui_native@@@Z  (Idle)
01:0000498C ?endPaint@gui_api@@SAXPBUhwnd@@PAUpaintStruct_struct@gui_native@@@Z  (Idle)
01:000049A0 ?_getClientRect@gui_api@@SAXPBUhwnd@@PAPAUrct_struct@vpiDomains@@@Z  (Idle)
01:000049FC ?_getWindowLong@gui_api@@SAXPBUhwnd@@HPAI@Z 
01:00004A58 ?_setWindowLong@gui_api@@SAXPBUhwnd@@HHPAH@Z  (Idle)
01:00004AB0 ?extTextOut@gui_api@@SAXPBUhDC@@HHIPAUrct_struct@vpiDomains@@PB_W@Z  (Idle)
01:00004AD0 ?extTextOut@gui_api@@SAXPBUhDC@@HHIPAUrct_struct@vpiDomains@@PB_WPAX@Z  (Idle)
01:00004AF8 ?extTextOut@gui_api@@SAXPBUhDC@@HHIPAUrct_struct@vpiDomains@@PB_WPBUcharCount@@PAX@Z 
01:00004B4C ?invalidateRect@gui_api@@SAXPBUhwnd@@PAUrct_struct@vpiDomains@@PBUbooleanInt@@@Z  (Idle)
01:00004B90 ?_createWindowEx@gui_api@@SAXIIPB_WIHHHHPBUhwnd@@PBUhMenu@@PBUhModule@@PAXAAU2@@Z  (Idle)
--- From 'Obj\mapMSupport.F2ECDBAC.obj'
01:00004C50 ?new@mapMSupport@collectionSupportM@@SAXQAV1@2@PAXPAXQAVrTypeLibrary@TypeLibraries@RunTime@VIP@@1QAVmapMSite@@2@PAXPAX@Z 
01:00004C98 ?_get@mapMSupport@collectionSupportM@@SAXQAV1@@PAXPAXPAXPAPAX@Z 
01:00004D34 ?contains@mapMSupport@collectionSupportM@@SAXQAV1@@PAXPAXPAUtuple_struct@core@@PAXPAX@Z 
01:00004D7C ?_getKey_nd@mapMSupport@collectionSupportM@@SAXQAV1@@PAXPAXPAPAX@Z 
01:00004DB0 ?_getValue_nd@mapMSupport@collectionSupportM@@SAXQAV1@@PAXPAXPAPAX@Z 
01:00004DE4 ?keyList@mapMSupport@collectionSupportM@@SGPAU?$__list_struct@PAX@@QAV1@@PAXPAX@Z 
01:00004E50 ?valueList@mapMSupport@collectionSupportM@@SGPAU?$__list_struct@PAX@@QAV1@@PAXPAX@Z 
01:00004EBC ?insert@mapMSupport@collectionSupportM@@SAXQAV1@@PAXPAXPAUtuple_struct@core@@PAXPAX@Z 
01:00004EF8 ?remove@mapMSupport@collectionSupportM@@SAXQAV1@@PAXPAXPAUtuple_struct@core@@PAXPAX@Z 
01:00004F68 ?removeKeyList@mapMSupport@collectionSupportM@@SAXQAV1@@PAXPAXPAU?$__list_struct@PAX@@@Z 
01:00004FB8 ?removeKeyCollection@mapMSupport@collectionSupportM@@SAXQAV1@@PAXPAXQAVcollection@@@PAX@Z 
01:00005000 ?classInfo@mapMSupport@collectionSupportM@@SAXPAPB_W0@Z  (Idle)
01:0000501C ?_new@mapMSupport@collectionSupportM@@SAXQAVrTypeLibrary@TypeLibraries@RunTime@VIP@@0QAVmapMSite@@2@PAXPAXPAPAV1@@PAPAXPAPAX@Z  (Idle)
01:00005058 ?_object_typelib_initializer@mapMSupport@collectionSupportM@@SGXQAV1@2@PAXPAXQAVrTypeLibrary@TypeLibraries@RunTime@VIP@@1@Z 
01:00005074 ?_mk_tl_0_collectionSupportM\collectionMsupport{@Type}$imp$@mapMSupport@collectionSupportM@@SGQAVrTypeLibrary@TypeLibraries@RunTime@VIP@@QAV1@2@PAXPAX@Z 
01:000050A8 ?siteClassInfo@mapMSupport@collectionSupportM@@SAXQAVcollectionMsite@@2@PAXPAPB_W1@Z 
01:000050C4 ?_getAll_nd@mapMSupport@collectionSupportM@@SAXQAVcollectionMsite@@2@PAXPAPAX@Z 
01:000051B4 collectionSupportM\mapMSupport{@Key,@Data}?_initObject@@@QAGXQAV1@H@Z 
01:00005208 ?@create_object@mapMSupport@collectionSupportM@@SGQAV1@2@PAXPAXQAVrTypeLibrary@TypeLibraries@RunTime@VIP@@0@Z 
01:00005230 collectionSupportM\mapMSupport{@Key,@Data}?_InternalFinalizer@@@QAGXQAV1@@Z 
--- From 'Obj\redBlackTree.6E2D2CC8.obj'
01:00005240 ?_anonymous$1$13_33$compare@redBlackTree@@SAXPAUanonymous$1$13_33$comparec_struct@1@PAXPAXPAPAUcompareResult_struct@_builtIn@@@Z 
01:00005258 ?_empty@redBlackTree@@SAXQAVrTypeLibrary@TypeLibraries@RunTime@VIP@@0PAPAUtree_struct@1@PAPAXPAPAX@Z  (Idle)
01:000052D0 ?_anonymous$2$16_39$compare@redBlackTree@@SAXPAUanonymous$2$16_39$comparec_struct@1@PAXPAXPAPAUcompareResult_struct@_builtIn@@@Z 
01:000052E8 ?_emptyUnique@redBlackTree@@SAXQAVrTypeLibrary@TypeLibraries@RunTime@VIP@@0PAPAUtree_struct@1@PAPAXPAPAX@Z 
01:00005360 ?_emptyCustom@redBlackTree@@SAXQAVrTypeLibrary@TypeLibraries@RunTime@VIP@@0XPAPAUtree_struct@1@PAPAXPAPAX@Z  (Idle)
01:000053B0 ?_emptyCustomUnique@redBlackTree@@SAXQAVrTypeLibrary@TypeLibraries@RunTime@VIP@@0XPAPAUtree_struct@1@PAPAXPAPAX@Z 
01:00005400 ?_emptySameKind@redBlackTree@@SAXQAVrTypeLibrary@TypeLibraries@RunTime@VIP@@0PAUtree_struct@1@PAXPAXPAPAU21@PAPAXPAPAX@Z 
01:00005438 ?isEmpty@redBlackTree@@SAXQAVrTypeLibrary@TypeLibraries@RunTime@VIP@@0PAUtree_struct@1@PAXPAX@Z  (Idle)
01:0000545C ?_insert@redBlackTree@@SAXQAVrTypeLibrary@TypeLibraries@RunTime@VIP@@0PAUtree_struct@1@PAXPAXPAXPAXPAPAU21@PAPAXPAPAX@Z 
01:000054C4 ?_delete@redBlackTree@@SAXQAVrTypeLibrary@TypeLibraries@RunTime@VIP@@0PAUtree_struct@1@PAXPAXPAXPAXPAPAU21@PAPAXPAPAX@Z 
01:0000552C ?_tryDeleteOne@redBlackTree@@SAXQAVrTypeLibrary@TypeLibraries@RunTime@VIP@@0PAUtree_struct@1@PAXPAXPAXPAPAXPAPAU21@PAPAXPAPAX@Z 
01:00005594 ?_tryDeleteFirst@redBlackTree@@SAXQAVrTypeLibrary@TypeLibraries@RunTime@VIP@@0PAUtree_struct@1@PAXPAXPAPAX3PAPAU21@PAPAXPAPAX@Z  (Idle)
01:000055E0 ?_lookUp_nd@redBlackTree@@SAXQAVrTypeLibrary@TypeLibraries@RunTime@VIP@@0PAUtree_struct@1@PAXPAXPAXPAPAX@Z 
01:0000561C ?_tryLookUp@redBlackTree@@SAXQAVrTypeLibrary@TypeLibraries@RunTime@VIP@@0PAUtree_struct@1@PAXPAXPAXPAPAX@Z 
01:00005648 ?_getAll_nd@redBlackTree@@SAXQAVrTypeLibrary@TypeLibraries@RunTime@VIP@@0PAUtree_struct@1@PAXPAXPAPAUtuple_struct@core@@PAPAXPAPAX@Z 
01:00005660 ?_upFrom_nd@redBlackTree@@SAXQAVrTypeLibrary@TypeLibraries@RunTime@VIP@@0PAUtree_struct@1@PAXPAXPAXPAPAUtuple_struct@core@@PAPAXPAPAX@Z  (Idle)
01:0000569C ?_downFrom_nd@redBlackTree@@SAXQAVrTypeLibrary@TypeLibraries@RunTime@VIP@@0PAUtree_struct@1@PAXPAXPAXPAPAUtuple_struct@core@@PAPAXPAPAX@Z  (Idle)
01:000056D8 ?_comp@redBlackTree@@SAXQAVrTypeLibrary@TypeLibraries@RunTime@VIP@@PAUtreeProperty_struct@1@PAXPAXPAXPAPAUcompareResult_struct@_builtIn@@@Z 
01:00005708 ?_find_nd_rep@redBlackTree@@SAXQAVrTypeLibrary@TypeLibraries@RunTime@VIP@@0PAUtreeProperty_struct@1@PAXPAXPAUtreeRep_struct@1@PAXPAXPAPAX@Z 
01:00005790 ?_find_nd_rep1@redBlackTree@@SAXQAVrTypeLibrary@TypeLibraries@RunTime@VIP@@0PAUtreeProperty_struct@1@PAXPAUcompareResult_struct@_builtIn@@PAXPAUtreeRep_struct@1@PAXPAXPAX5PAPAX@Z 
01:00005874 ?_get_nd_rep@redBlackTree@@SAXQAVrTypeLibrary@TypeLibraries@RunTime@VIP@@0PAUtreeRep_struct@1@PAXPAXPAPAUtuple_struct@core@@PAPAXPAPAX@Z 
01:00005934 ?_upFrom_nd_rep@redBlackTree@@SAXQAVrTypeLibrary@TypeLibraries@RunTime@VIP@@0PAUtreeProperty_struct@1@PAXPAXPAUtreeRep_struct@1@PAXPAXPAPAUtuple_struct@core@@PAPAXPAPAX@Z 
01:000059C8 ?_upFrom_nd_rep1@redBlackTree@@SAXQAVrTypeLibrary@TypeLibraries@RunTime@VIP@@0PAUtreeProperty_struct@1@PAXPAUcompareResult_struct@_builtIn@@PAXPAUtreeRep_struct@1@PAXPAXPAXPAX5PAPAUtuple_struct@core@@PAPAXPAPAX@Z 
01:00005A98 ?_downFrom_nd_rep@redBlackTree@@SAXQAVrTypeLibrary@TypeLibraries@RunTime@VIP@@0PAUtreeProperty_struct@1@PAXPAXPAUtreeRep_struct@1@PAXPAXPAPAUtuple_struct@core@@PAPAXPAPAX@Z 
01:00005B2C ?_downFrom_nd_rep1@redBlackTree@@SAXQAVrTypeLibrary@TypeLibraries@RunTime@VIP@@0PAUtreeProperty_struct@1@PAXPAUcompareResult_struct@_builtIn@@PAXPAUtreeRep_struct@1@PAXPAXPAXPAX5PAPAUtuple_struct@core@@PAPAXPAPAX@Z 
01:00005BFC ?_insert_rep@redBlackTree@@SAXQAVrTypeLibrary@TypeLibraries@RunTime@VIP@@0PAUtreeProperty_struct@1@PAXPAXPAXPAUtreeRep_struct@1@PAXPAXPAPAU41@PAPAXPAPAX@Z 
01:00005C38 ?_ins@redBlackTree@@SAXQAVrTypeLibrary@TypeLibraries@RunTime@VIP@@0PAUtreeProperty_struct@1@PAXPAXPAXPAUtreeRep_struct@1@PAXPAXPAPAU41@PAPAXPAPAX@Z 
01:00005DB8 ?_ins_black@redBlackTree@@SAXQAVrTypeLibrary@TypeLibraries@RunTime@VIP@@0PAUtreeProperty_struct@1@PAXPAUcompareResult_struct@_builtIn@@PAXPAXPAUtreeRep_struct@1@PAXPAXPAXPAX6PAPAU61@PAPAXPAPAX@Z 
01:00005EFC ?_ins_red@redBlackTree@@SAXQAVrTypeLibrary@TypeLibraries@RunTime@VIP@@0PAUtreeProperty_struct@1@PAXPAUcompareResult_struct@_builtIn@@PAXPAXPAUtreeRep_struct@1@PAXPAXPAXPAX6PAPAU61@PAPAXPAPAX@Z 
01:00006094 ?_balance@redBlackTree@@SAXQAVrTypeLibrary@TypeLibraries@RunTime@VIP@@0PAUtreeRep_struct@1@PAXPAXPAXPAX2PAPAU21@PAPAXPAPAX@Z 
01:00007364 ?_makeblack@redBlackTree@@SAXQAVrTypeLibrary@TypeLibraries@RunTime@VIP@@0PAUtreeRep_struct@1@PAXPAXPAPAU21@PAPAXPAPAX@Z 
01:000073DC ?_delete_rep@redBlackTree@@SAXQAVrTypeLibrary@TypeLibraries@RunTime@VIP@@0PAUtreeProperty_struct@1@PAXPAXPAXPAUtreeRep_struct@1@PAXPAXPAPAU41@PAPAXPAPAX@Z 
01:00007430 ?del@redBlackTree@@SAXQAVrTypeLibrary@TypeLibraries@RunTime@VIP@@0PAUtreeProperty_struct@1@PAXPAXPAXPAUtreeRep_struct@1@PAXPAXPAPAU41@PAPAXPAPAXPAPAUboolean_struct@_builtIn@@@Z 
01:000074F0 ?del1@redBlackTree@@SAXQAVrTypeLibrary@TypeLibraries@RunTime@VIP@@0PAUtreeProperty_struct@1@PAXPAUcompareResult_struct@_builtIn@@PAXPAXPAUtreeRep_struct@1@PAXPAXPAXPAX6PAPAU61@PAPAXPAPAXPAPAUboolean_struct@5@@Z 
01:00007644 ?delLeft@redBlackTree@@SAXQAVrTypeLibrary@TypeLibraries@RunTime@VIP@@0PAUtreeProperty_struct@1@PAXPAXPAXPAUtreeRep_struct@1@PAXPAXPAXPAX5PAPAU41@PAPAXPAPAXPAPAUboolean_struct@_builtIn@@@Z 
01:00007708 ?delRight@redBlackTree@@SAXQAVrTypeLibrary@TypeLibraries@RunTime@VIP@@0PAUtreeProperty_struct@1@PAXPAXPAXPAUtreeRep_struct@1@PAXPAXPAXPAX5PAPAU41@PAPAXPAPAXPAPAUboolean_struct@_builtIn@@@Z 
01:000077DC ?_tryDeleteOne_rep@redBlackTree@@SAXQAVrTypeLibrary@TypeLibraries@RunTime@VIP@@0PAUtreeProperty_struct@1@PAXPAXPAUtreeRep_struct@1@PAXPAXPAPAXPAPAU41@PAPAXPAPAX@Z 
01:00007818 ?_tryDel@redBlackTree@@SAXQAVrTypeLibrary@TypeLibraries@RunTime@VIP@@0PAUtreeProperty_struct@1@PAXPAXPAUtreeRep_struct@1@PAXPAXPAPAXPAPAU41@PAPAXPAPAX@Z 
01:000078B8 ?_tryDel1@redBlackTree@@SAXQAVrTypeLibrary@TypeLibraries@RunTime@VIP@@0PAUtreeProperty_struct@1@PAXPAUcompareResult_struct@_builtIn@@PAXPAUtreeRep_struct@1@PAXPAXPAXPAX5PAPAXPAPAU61@PAPAXPAPAX@Z 
01:00007958 ?_tryDelLeft@redBlackTree@@SAXQAVrTypeLibrary@TypeLibraries@RunTime@VIP@@0PAUtreeProperty_struct@1@PAXPAXPAUtreeRep_struct@1@PAXPAXPAXPAX4PAPAXPAPAU41@PAPAXPAPAX@Z 
01:00007A20 ?_tryDelRight@redBlackTree@@SAXQAVrTypeLibrary@TypeLibraries@RunTime@VIP@@0PAUtreeProperty_struct@1@PAXPAXPAUtreeRep_struct@1@PAXPAXPAXPAX4PAPAXPAPAU41@PAPAXPAPAX@Z 
01:00007AF8 ?_balLeft@redBlackTree@@SAXQAVrTypeLibrary@TypeLibraries@RunTime@VIP@@0PAUtreeRep_struct@1@PAXPAXPAXPAX2PAPAU21@PAPAXPAPAX@Z 
01:00007EE0 ?_balRight@redBlackTree@@SAXQAVrTypeLibrary@TypeLibraries@RunTime@VIP@@0PAUtreeRep_struct@1@PAXPAXPAXPAX2PAPAU21@PAPAXPAPAX@Z 
01:000082CC ?_sub1@redBlackTree@@SAXQAVrTypeLibrary@TypeLibraries@RunTime@VIP@@0PAUtreeRep_struct@1@PAXPAXPAPAU21@PAPAXPAPAX@Z 
01:00008370 ?_mkNode@redBlackTree@@SAXQAVrTypeLibrary@TypeLibraries@RunTime@VIP@@0PAUtreeRep_struct@1@PAXPAX2PAPAU21@PAPAXPAPAX@Z 
01:00008658 ?_mkNodeRR_BC@redBlackTree@@SAXQAVrTypeLibrary@TypeLibraries@RunTime@VIP@@0PAUtreeRep_struct@1@PAXPAXPAXPAX2PAXPAX2PAPAU21@PAPAXPAPAX@Z 
01:000087CC ?_mkNodeBB_BC@redBlackTree@@SAXQAVrTypeLibrary@TypeLibraries@RunTime@VIP@@0PAUtreeRep_struct@1@PAXPAXPAXPAX2PAXPAX2PAPAU21@PAPAXPAPAX@Z 
01:00008908 ?classInfo@redBlackTree@@SAXPAPB_W0@Z 
--- From 'Obj\redBlackSet.97D1E054.obj'
01:00008930 ?_anonymous$1$11_19$compare@redBlackSet@@SAXPAUanonymous$1$11_19$comparec_struct@1@PAXPAXPAPAUcompareResult_struct@_builtIn@@@Z 
01:00008948 ?_empty@redBlackSet@@SAXQAVrTypeLibrary@TypeLibraries@RunTime@VIP@@PAPAUset_struct@1@PAPAX@Z 
01:000089A0 ?_emptyCustom@redBlackSet@@SAXQAVrTypeLibrary@TypeLibraries@RunTime@VIP@@XPAPAUset_struct@1@PAPAX@Z 
01:000089D0 ?_emptySameKind@redBlackSet@@SAXQAVrTypeLibrary@TypeLibraries@RunTime@VIP@@PAUset_struct@1@PAXPAPAU21@PAPAX@Z 
01:00008A08 ?isEmpty@redBlackSet@@SAXQAVrTypeLibrary@TypeLibraries@RunTime@VIP@@PAUset_struct@1@PAX@Z  (Idle)
01:00008A24 ?_getComparator@redBlackSet@@SAXQAVrTypeLibrary@TypeLibraries@RunTime@VIP@@XPAX@Z 
01:00008A34 ?_insert@redBlackSet@@SAXQAVrTypeLibrary@TypeLibraries@RunTime@VIP@@PAUset_struct@1@PAXPAXPAPAU21@PAPAX@Z 
01:00008AAC ?_delete@redBlackSet@@SAXQAVrTypeLibrary@TypeLibraries@RunTime@VIP@@PAUset_struct@1@PAXPAXPAPAU21@PAPAX@Z 
01:00008B24 ?_tryDeleteFirst@redBlackSet@@SAXQAVrTypeLibrary@TypeLibraries@RunTime@VIP@@PAUset_struct@1@PAXPAPAXPAPAU21@PAPAX@Z  (Idle)
01:00008B54 ?isMember@redBlackSet@@SAXQAVrTypeLibrary@TypeLibraries@RunTime@VIP@@PAXPAUset_struct@1@PAX@Z 
01:00008BA0 ?_getAll_nd@redBlackSet@@SAXQAVrTypeLibrary@TypeLibraries@RunTime@VIP@@PAUset_struct@1@PAXPAPAX@Z 
01:00008BB8 ?_upFrom_nd@redBlackSet@@SAXQAVrTypeLibrary@TypeLibraries@RunTime@VIP@@PAUset_struct@1@PAXPAXPAPAX@Z  (Idle)
01:00008C0C ?_downFrom_nd@redBlackSet@@SAXQAVrTypeLibrary@TypeLibraries@RunTime@VIP@@PAUset_struct@1@PAXPAXPAPAX@Z  (Idle)
01:00008C60 ?find_nd_rep@redBlackSet@@SAXQAVrTypeLibrary@TypeLibraries@RunTime@VIP@@XPAXPAUsetRep_struct@1@PAX@Z 
01:00008CD4 ?find_nd_rep1@redBlackSet@@SAXQAVrTypeLibrary@TypeLibraries@RunTime@VIP@@XPAUcompareResult_struct@_builtIn@@PAXPAUsetRep_struct@1@PAX4@Z 
01:00008D18 ?_get_nd_rep@redBlackSet@@SAXQAVrTypeLibrary@TypeLibraries@RunTime@VIP@@PAUsetRep_struct@1@PAXPAPAX@Z 
01:00008DAC ?_upFrom_nd_rep@redBlackSet@@SAXQAVrTypeLibrary@TypeLibraries@RunTime@VIP@@XPAXPAUsetRep_struct@1@PAXPAPAX@Z 
01:00008E38 ?_upFrom_nd_rep1@redBlackSet@@SAXQAVrTypeLibrary@TypeLibraries@RunTime@VIP@@XPAUcompareResult_struct@_builtIn@@PAXPAUsetRep_struct@1@PAXPAX4PAPAX@Z 
01:00008EEC ?_downFrom_nd_rep@redBlackSet@@SAXQAVrTypeLibrary@TypeLibraries@RunTime@VIP@@XPAXPAUsetRep_struct@1@PAXPAPAX@Z 
01:00008F78 ?_downFrom_nd_rep1@redBlackSet@@SAXQAVrTypeLibrary@TypeLibraries@RunTime@VIP@@XPAUcompareResult_struct@_builtIn@@PAXPAUsetRep_struct@1@PAXPAX4PAPAX@Z 
01:0000902C ?_insert_rep@redBlackSet@@SAXQAVrTypeLibrary@TypeLibraries@RunTime@VIP@@XPAXPAUsetRep_struct@1@PAXPAPAU21@PAPAX@Z 
01:00009084 ?_tryIns@redBlackSet@@SAXQAVrTypeLibrary@TypeLibraries@RunTime@VIP@@XPAXPAUsetRep_struct@1@PAXPAPAU21@PAPAX@Z 
01:000091C8 ?_tryIns_black@redBlackSet@@SAXQAVrTypeLibrary@TypeLibraries@RunTime@VIP@@XPAUcompareResult_struct@_builtIn@@PAXPAUsetRep_struct@1@PAXPAX4PAPAU41@PAPAX@Z 
01:0000925C ?_tryIns_red@redBlackSet@@SAXQAVrTypeLibrary@TypeLibraries@RunTime@VIP@@XPAUcompareResult_struct@_builtIn@@PAXPAUsetRep_struct@1@PAXPAX4PAPAU41@PAPAX@Z 
01:00009320 ?_balance@redBlackSet@@SAXQAVrTypeLibrary@TypeLibraries@RunTime@VIP@@PAUsetRep_struct@1@PAXPAX1PAPAU21@PAPAX@Z 
01:0000A4E8 ?_makeblack@redBlackSet@@SAXQAVrTypeLibrary@TypeLibraries@RunTime@VIP@@PAUsetRep_struct@1@PAXPAPAU21@PAPAX@Z 
01:0000A558 ?_delete_rep@redBlackSet@@SAXQAVrTypeLibrary@TypeLibraries@RunTime@VIP@@XPAXPAUsetRep_struct@1@PAXPAPAU21@PAPAX@Z 
01:0000A5A8 ?del@redBlackSet@@SAXQAVrTypeLibrary@TypeLibraries@RunTime@VIP@@XPAXPAUsetRep_struct@1@PAXPAPAU21@PAPAXPAPAUboolean_struct@_builtIn@@@Z 
01:0000A654 ?del1@redBlackSet@@SAXQAVrTypeLibrary@TypeLibraries@RunTime@VIP@@XPAUcompareResult_struct@_builtIn@@PAXPAUsetRep_struct@1@PAXPAX4PAPAU41@PAPAXPAPAUboolean_struct@3@@Z 
01:0000A6E8 ?delLeft@redBlackSet@@SAXQAVrTypeLibrary@TypeLibraries@RunTime@VIP@@XPAXPAUsetRep_struct@1@PAXPAX3PAPAU21@PAPAXPAPAUboolean_struct@_builtIn@@@Z 
01:0000A79C ?delRight@redBlackSet@@SAXQAVrTypeLibrary@TypeLibraries@RunTime@VIP@@XPAXPAUsetRep_struct@1@PAXPAX3PAPAU21@PAPAXPAPAUboolean_struct@_builtIn@@@Z 
01:0000A858 ?_balLeft@redBlackSet@@SAXQAVrTypeLibrary@TypeLibraries@RunTime@VIP@@PAUsetRep_struct@1@PAXPAX1PAPAU21@PAPAX@Z 
01:0000ABDC ?_balRight@redBlackSet@@SAXQAVrTypeLibrary@TypeLibraries@RunTime@VIP@@PAUsetRep_struct@1@PAXPAX1PAPAU21@PAPAX@Z 
01:0000AF5C ?_sub1@redBlackSet@@SAXQAVrTypeLibrary@TypeLibraries@RunTime@VIP@@PAUsetRep_struct@1@PAXPAPAU21@PAPAX@Z 
01:0000AFF8 ?_mkNode@redBlackSet@@SAXQAVrTypeLibrary@TypeLibraries@RunTime@VIP@@PAUsetRep_struct@1@PAX1PAPAU21@PAPAX@Z 
01:0000B270 ?_mkNodeRR_BC@redBlackSet@@SAXQAVrTypeLibrary@TypeLibraries@RunTime@VIP@@PAUsetRep_struct@1@PAXPAX1PAX1PAPAU21@PAPAX@Z 
01:0000B3BC ?_mkNodeBB_BC@redBlackSet@@SAXQAVrTypeLibrary@TypeLibraries@RunTime@VIP@@PAUsetRep_struct@1@PAXPAX1PAX1PAPAU21@PAPAX@Z 
01:0000B4D8 ?classInfo@redBlackSet@@SAXPAPB_W0@Z 
--- From 'Obj\collectionMsupport.B3E5070C.obj'
01:0000B500 ?new@collectionMsupport@collectionSupportM@@SAXQAV1@2@PAXQAVrTypeLibrary@TypeLibraries@RunTime@VIP@@QAVcollectionMsite@@2@PAX@Z 
01:0000B514 ?isEmpty@collectionMsupport@collectionSupportM@@SAXQAV1@2@PAX@Z 
01:0000B560 ?_tryGetFirst@collectionMsupport@collectionSupportM@@SAXQAV1@2@PAXPAPAX@Z 
01:0000B58C ?asList@collectionMsupport@collectionSupportM@@SGPAU?$__list_struct@PAX@@QAV1@2@PAX@Z 
01:0000B5FC ?insertList@collectionMsupport@collectionSupportM@@SAXQAV1@2@PAXPAU?$__list_struct@PAX@@@Z 
01:0000B64C ?insertCollection@collectionMsupport@collectionSupportM@@SAXQAV1@2@PAXQAVcollection@@@PAX@Z 
01:0000B694 ?removeList@collectionMsupport@collectionSupportM@@SAXQAV1@2@PAXPAU?$__list_struct@PAX@@@Z 
01:0000B6E4 ?removeCollection@collectionMsupport@collectionSupportM@@SAXQAV1@2@PAXQAVcollection@@@PAX@Z 
01:0000B72C ?_tryRemoveFirst@collectionMsupport@collectionSupportM@@SAXQAV1@2@PAXPAPAX@Z 
01:0000B760 ?classInfo@collectionMsupport@collectionSupportM@@SAXPAPB_W0@Z  (Idle)
01:0000B77C ?_new@collectionMsupport@collectionSupportM@@SAXQAVrTypeLibrary@TypeLibraries@RunTime@VIP@@QAVcollectionMsite@@2@PAXPAPAV1@2@PAPAX@Z  (Idle)
01:0000B7B0 ?_object_typelib_initializer@collectionMsupport@collectionSupportM@@SGXQAV1@2@PAXQAVrTypeLibrary@TypeLibraries@RunTime@VIP@@@Z 
01:0000B7D0 collectionSupportM\collectionMsupport{@Type}?_initObject@@@QAGXQAV1@H@Z 
01:0000B7F4 ?@create_object@collectionMsupport@collectionSupportM@@SGQAV1@2@PAXQAVrTypeLibrary@TypeLibraries@RunTime@VIP@@@Z 
01:0000B818 collectionSupportM\collectionMsupport{@Type}?_InternalFinalizer@@@QAGXQAV1@@Z 
--- From 'Obj\exe.064FFF24.obj'
01:0000B830 ?classInfo@mainExe@@SAXPAPB_W0@Z 
01:0000B84C ?run@mainExe@@SAXX@Z 
01:0000B970 ?runCom@mainExe@@SAXXPAU?$__list_struct@UcoInit@exe_api@@@@@Z 
01:0000B9A4 ?runCom@mainExe@@SAXX@Z  (Idle)
01:0000B9B8 ?runOle@mainExe@@SAXX@Z  (Idle)
01:0000BA40 ?checkResult@mainExe@@SAXPBUhResult@@PB_WPAU?$__list_struct@UnamedValue@@@@@Z 
01:0000BAC8 ?_getCommandLine@mainExe@@SAXPAPB_W@Z  (Idle)
01:0000BB38 ?_parseCommandLine@mainExe@@SAXPB_W_W0PAPB_W@Z 
01:0000BBFC ?_getPosition@mainExe@@SAXPB_W_WAAUcharCount@@@Z 
01:0000BC3C ?getFileName@mainExe@@SAXPAPB_W0@Z  (Idle)
01:0000BC78 ?_getFileName@mainExe@@SAXPAPB_W@Z 
01:0000BC94 ?_getCurrentHinstance@mainExe@@SAXAAUhModule@@@Z  (Idle)
01:0000BCB8 ?_class_facts_initializer@mainExe@@SGXXZ 
01:0000BCD8 ?runMode@mainExe@@SGXPAUrunMode_struct@1@@Z  (Idle)
01:0000BCE4 ?runMode@mainExe@@SGPAUrunMode_struct@1@XZ  (Idle)
01:0000BCEC ?exceptionDumper@mainExe@@SGXX@Z  (Idle)
01:0000BCF8 ?exceptionDumper@mainExe@@SGXXZ  (Idle)
--- From 'Obj\console.FF8DBACA.obj'
01:0000BD00 ?classInfo@outputStream_console@@SAXPAPB_W0@Z 
01:0000BD1C ?new@outputStream_console@@SAXQAV1@@PBUunsigned32@@@Z 
01:0000BD90 ?write@outputStream_console@@SAXQAVoutputStream@@@@Z 
01:0000BDE8 ?writeQuoted@outputStream_console@@SAXQAVoutputStream@@@@Z 
01:0000BE40 ?writef@outputStream_console@@SAXQAVoutputStream@@@PB_W@Z 
01:0000BE9C ?nl@outputStream_console@@SGXQAVoutputStream@@@@Z 
01:0000BEDC ?save@outputStream_console@@SGXQAVoutputStream@@@PBUfactDB@@@Z 
01:0000BF34 ?writeBytes@outputStream_console@@SGXQAVoutputStream@@@PAXPBUbyteCount@@@Z 
01:0000BF90 ?errorHandler@outputStream_console@@SGXQAV1@@PBUtraceId@exception@@@Z 
01:0000BFD0 ?getCRLFconversion@outputStream_console@@SGPAUboolean_struct@_builtIn@@QAVstream@@@@Z 
01:0000BFFC ?setCRLFconversion@outputStream_console@@SGXQAVstream@@@PAUboolean_struct@_builtIn@@@Z 
01:0000C058 ?bufferFullCB@outputStream_console@@SAXQAV1@@PAPAXAAUbyteCount@@@Z 
01:0000C0EC ?convertLF2CRLF_ifNeeded@outputStream_console@@SAXQAV1@@PAXPBUbyteCount@@PAPAXAAU3@@Z 
01:0000C150 ?writeToStdDevice@outputStream_console@@SAXPAUmode_struct@stream@@PBUfileHandle@@PAXPBUbyteCount@@@Z 
01:0000C1F0 ?convert_ifAnsi@outputStream_console@@SAXPAUmode_struct@stream@@PAXPBUbyteCount@@PAPAXAAU4@@Z 
01:0000C29C ?setPosition@outputStream_console@@SGXQAVstream@@@PBUfileSize@fileSystem_api@@@Z 
01:0000C2AC ?getPosition@outputStream_console@@SGPBUfileSize@fileSystem_api@@QAVstream@@@@Z 
01:0000C2B4 ?close@outputStream_console@@SGXQAVstream@@@@Z 
01:0000C2C4 ?getBuffer@outputStream_console@@SGXQAVbufferSupport@@@PAPAXAAUbyteCount@@@Z 
01:0000C2E8 ?getBufferLocked@outputStream_console@@SGXQAVbufferSupport@@@PAPAXAAUbyteCount@@@Z 
01:0000C304 ?_new@outputStream_console@@SAXPBUunsigned32@@PAPAVoutputStream@@@@Z 
01:0000C32C ?_object_facts_initializer@outputStream_console@@SGXQAV1@@@Z 
01:0000C34C ?classInfo@inputStream_console@@SAXPAPB_W0@Z 
01:0000C368 ?new@inputStream_console@@SAXQAV1@@@Z 
01:0000C3FC ?getCRLFconversion@inputStream_console@@SGPAUboolean_struct@_builtIn@@QAVstream@@@@Z 
01:0000C428 ?setCRLFconversion@inputStream_console@@SGXQAVstream@@@PAUboolean_struct@_builtIn@@@Z 
01:0000C484 ?setMode@inputStream_console@@SGXQAVstream@@@PAUmode_struct@2@@Z 
01:0000C52C ?exTextBufferCB@inputStream_console@@SAXQAV1@@PAPAXAAUbyteCount@@@Z 
01:0000C588 ?exTextBufferCBLock@inputStream_console@@SAXQAV1@@PAPAXAAUbyteCount@@@Z 
01:0000C5E8 ?handlingBufferLastChar@inputStream_console@@SAXQAV1@@PBUbyteCount@@PAPAXAAU3@@Z 
01:0000C630 ?converCRLF2LF_ifNeeded@inputStream_console@@SAXQAV1@@PBUbyteCount@@PAPAXAAU3@@Z 
01:0000C6BC ?_readFromStdIn@inputStream_console@@SAXQAV1@@PAUmode_struct@stream@@PBUfileHandle@@AAUbyteCount@@@Z 
01:0000C7F0 ?_readFromFile@inputStream_console@@SAXPBUfileHandle@@PAXPBUbyteCount@@AAU3@@Z 
01:0000C844 ?endOfStream@inputStream_console@@SAXQAVinputStream@@@@Z 
01:0000C868 ?setPosition@inputStream_console@@SGXQAVstream@@@PBUfileSize@fileSystem_api@@@Z 
01:0000C878 ?getPosition@inputStream_console@@SGPBUfileSize@fileSystem_api@@QAVstream@@@@Z 
01:0000C880 ?close@inputStream_console@@SGXQAVstream@@@@Z 
01:0000C8B4 ?getBuffer@inputStream_console@@SGXQAVbufferSupport@@@PAPAXAAUbyteCount@@@Z 
01:0000C8D8 ?getBufferLocked@inputStream_console@@SGXQAVbufferSupport@@@PAPAXAAUbyteCount@@@Z 
01:0000C8FC ?_new@inputStream_console@@SAXPAPAVinputStream@@@@Z 
01:0000C924 ?_object_facts_initializer@inputStream_console@@SGXQAV1@@@Z 
01:0000C944 ?_readChar@console@@SAXPA_W@Z  (Idle)
01:0000C978 ?_readLine@console@@SAXPAPB_W@Z  (Idle)
01:0000C9AC ?_read@console@@SAXQAVrTypeLibrary@TypeLibraries@RunTime@VIP@@PAPAX@Z  (Idle)
01:0000C9EC ?write@console@@SAXXZ  (Idle)
01:0000CA20 ?writef@console@@SAXPB_W@Z  (Idle)
01:0000CA60 ?nl@console@@SAXXZ  (Idle)
01:0000CA84 ?isModeLine@console@@SAXXZ  (Idle)
01:0000CAB0 ?setModeLine@console@@SAXPAUboolean_struct@_builtIn@@@Z  (Idle)
01:0000CAF0 ?isModeEcho@console@@SAXXZ  (Idle)
01:0000CB1C ?setModeEcho@console@@SAXPAUboolean_struct@_builtIn@@@Z  (Idle)
01:0000CB5C ?isModeProcessed@console@@SAXXZ  (Idle)
01:0000CBA8 ?setModeProcessed@console@@SAXPAUboolean_struct@_builtIn@@@Z  (Idle)
01:0000CBFC ?isModeWrap@console@@SAXXZ  (Idle)
01:0000CC28 ?setModeWrap@console@@SAXPAUboolean_struct@_builtIn@@@Z  (Idle)
01:0000CC58 ?checkConsoleMode@console@@SAXPBUfileHandle@@I@Z 
01:0000CC94 ?setConsoleMode@console@@SAXPAUboolean_struct@_builtIn@@PBUfileHandle@@PBUunsigned32@@@Z 
01:0000CD00 ?_toApiMode@console@@SAXPAUboolean_struct@_builtIn@@PBUunsigned32@@1AAU4@@Z 
01:0000CD4C ?clearInput@console@@SAXXZ  (Idle)
01:0000CDB4 ?clearOutput@console@@SAXXZ  (Idle)
01:0000CE68 ?_getLocation@console@@SAXPAPAUcoord_struct@console_native@@@Z  (Idle)
01:0000CE90 ?setLocation@console@@SAXPAUcoord_struct@console_native@@@Z 
01:0000CF0C ?_getConsoleInputStream@console@@SAXPAPAVinputStream@@@@Z 
01:0000CF80 ?_getConsoleOutputStream@console@@SAXPAPAVoutputStream@@@@Z 
01:0000CFF4 ?_getErrorStream@console@@SAXPAPAVoutputStream@@@@Z 
01:0000D068 ?close@console@@SAXXZ  (Idle)
01:0000D0A4 ?_getConsoleWidth@console@@SAXAAUunsigned16@@@Z  (Idle)
01:0000D0CC ?_getConsoleTitle@console@@SAXPAPB_W@Z  (Idle)
01:0000D13C ?setConsoleTitle@console@@SAXPB_W@Z  (Idle)
01:0000D17C ?_getConsoleMode@console@@SAXPBUfileHandle@@PAI@Z 
01:0000D1C0 ?_getConsoleScreenBufferInfo@console@@SAXPAPAUconsoleScreenBufferInfo_struct@console_native@@@Z 
01:0000D230 ?setTextAttribute@console@@SAXI@Z  (Idle)
01:0000D244 ?setTextAttribute@console@@SAXII@Z 
01:0000D274 ?_getTextAttribute@console@@SAXPAI@Z  (Idle)
01:0000D2E8 ?init@console@@SAXXZ 
01:0000D350 ?checkConsolePresence@console@@SAXXZ 
01:0000D3A8 ?_readEvents@console@@SAXPAPAU?$__list_struct@Uevent@@@@@Z 
01:0000D574 ?_makeEvent@console@@SAXIPAXPAPAUevent_struct@1@@Z 
01:0000D918 ?_getEventQueue@console@@SAXPAPAU?$__list_struct@Uevent@@@@@Z  (Idle)
01:0000DA7C ?_getEvent_nd@console@@SAXPAXIIPAPAUevent_struct@1@@Z 
01:0000DB60 ?classInfo@console@@SAXPAPB_W0@Z 
01:0000DD00 outputStream_console?_initObject@@@QAGXQAV1@H@Z 
01:0000DD34 ?@create_object@outputStream_console@@SGQAV1@@XZ 
01:0000DD50 outputStream_console?_InternalFinalizer@@@QAGXQAV1@@Z 
01:0000DEDC inputStream_console?_initObject@@@QAGXQAV1@H@Z 
01:0000DF10 ?@create_object@inputStream_console@@SGQAV1@@XZ 
01:0000DF2C inputStream_console?_InternalFinalizer@@@QAGXQAV1@@Z 
--- From 'Obj\core.6F82B3D2.obj'
01:0000DF40 ?_tryGetSome@core@@SAXQAVrTypeLibrary@TypeLibraries@RunTime@VIP@@PAUoptional_struct@1@PAXPAPAX@Z  (Idle)
01:0000DF60 ?_getSome@core@@SAXQAVrTypeLibrary@TypeLibraries@RunTime@VIP@@PAUoptional_struct@1@PAXPAXPAPAX@Z  (Idle)
--- From 'Obj\namedValue.0E580094.obj'
01:0000DF88 ?_booleanValue@core@@SAXPAUvalue_struct@1@PAPAUboolean_struct@_builtIn@@@Z 
01:0000DFC8 ?_unsigned64Value@core@@SAXPAUvalue_struct@1@PAPA_K@Z 
01:0000E00C ?_integer64Value@core@@SAXPAUvalue_struct@1@PAPA_J@Z 
01:0000E050 ?_unsignedValue@core@@SAXPAUvalue_struct@1@PAI@Z 
01:0000E090 ?_integerValue@core@@SAXPAUvalue_struct@1@PAH@Z 
01:0000E0D0 ?_realValue@core@@SAXPAUvalue_struct@1@PAPAN@Z 
01:0000E114 ?_charValue@core@@SAXPAUvalue_struct@1@PA_W@Z 
01:0000E158 ?_stringValue@core@@SAXPAUvalue_struct@1@PAPB_W@Z 
01:0000E19C ?_binaryValue@core@@SAXPAUvalue_struct@1@QAPAE@Z 
01:0000E1E0 ?_objectValue@core@@SAXPAUvalue_struct@1@PAPAVobject@@@@Z 
01:0000E224 ?_gmtTimeValueValue@core@@SAXPAUvalue_struct@1@PAAAUgmtTimeValue@@@Z 
--- From 'Obj\core.6F82B3D2.obj'
01:0000E268 ?_localTimeValueValue@core@@SAXPAUvalue_struct@1@PAAAUlocalTimeValue@@@Z  (Idle)
01:0000E2AC ?_pointerValue@core@@SAXPAUvalue_struct@1@PAPAX@Z  (Idle)
01:0000E2F0 ?unexpectedValueKind@core@@SAXPAXPAPB_W1@Z 
--- From 'Obj\fileSystem.03D2CA18.obj'
01:0000E318 ?_toUnsigned64@core@@SAXPAUunsigned64_struct_struct@1@PAPA_K@Z 
01:0000E32C ?_fromUnsigned64@core@@SAXPA_KPAPAUunsigned64_struct_struct@1@@Z 
01:0000E33C ?_toInteger64@core@@SAXPAUinteger64_struct_struct@1@PAPA_J@Z 
--- From 'Obj\binary.5C1BA76F.obj'
01:0000E350 ?_fromInteger64@core@@SAXPA_JPAPAUinteger64_struct_struct@1@@Z 
--- From 'Obj\exceptionDump.9F4FF40B.obj'
01:0000E360 ?_value2String@core@@SAXPAUvalue_struct@1@PAPB_W@Z 
--- From 'Obj\core.6F82B3D2.obj'
01:0000E5AC ?classInfo@core@@SAXPAPB_W0@Z 
01:0000E5C8 $extract$core$predicate$(i,boolean(o),i)$c$_m3 
01:0000E68C $extract$core$predicate$(i,unsigned64(o),i)$c$_m3 
01:0000E750 $extract$core$predicate$(i,integer64(o),i)$c$_m3 
01:0000E814 $extract$core$predicate$(i,unsigned(o),i)$c$_m3 
01:0000E8D8 $extract$core$predicate$(i,integer(o),i)$c$_m3 
01:0000E99C $extract$core$predicate$(i,real(o),i)$c$_m3 
01:0000EA60 $extract$core$predicate$(i,char(o),i)$c$_m3 
01:0000EB28 $extract$core$predicate$(i,string(o),i)$c$_m3 
01:0000EBEC $extract$core$predicate$(i,binary(o),i)$c$_m3 
01:0000ECB0 $extract$core$predicate$(i,object(o),i)$c$_m3 
01:0000ED74 $extract$core$predicate$(i,gmttimevalue(o),i)$c$_m3 
01:0000EE38 $extract$core$predicate$(i,localtimevalue(o),i)$c$_m3 
01:0000EEFC $extract$core$predicate$(i,pointer(o),i)$c$_m3 
--- From 'Obj\exception.0D818F93.obj'
01:0000EFC0 ?classInfo@runtime_exception@@SAXPAPB_W0@Z 
01:0000EFDC ?internalError@runtime_exception@@SAXPAXPAPB_W1@Z  (Idle)
01:0000F004 ?exceptionUnderException@runtime_exception@@SAXPAXPAPB_W1@Z  (Idle)
01:0000F02C ?fromString@runtime_exception@@SAXPAXPAPB_W1@Z 
01:0000F054 ?fromBinary@runtime_exception@@SAXPAXPAPB_W1@Z 
01:0000F07C ?mismatchVersion@runtime_exception@@SAXPAXPAPB_W1@Z 
01:0000F0A4 ?ctrlC@runtime_exception@@SAXPAXPAPB_W1@Z  (Idle)
01:0000F0CC ?ctrlBreak@runtime_exception@@SAXPAXPAPB_W1@Z  (Idle)
01:0000F0F4 ?closeApplication@runtime_exception@@SAXPAXPAPB_W1@Z  (Idle)
01:0000F11C ?logOff@runtime_exception@@SAXPAXPAPB_W1@Z  (Idle)
01:0000F144 ?shutDown@runtime_exception@@SAXPAXPAPB_W1@Z  (Idle)
01:0000F16C ?expectedSymbolFromToTerm@runtime_exception@@SAXPAXPAPB_W1@Z  (Idle)
01:0000F194 ?wrongNumberArgumentForFormat@runtime_exception@@SAXPAXPAPB_W1@Z 
01:0000F1BC ?objectConversion@runtime_exception@@SAXPAXPAPB_W1@Z 
01:0000F1E4 ?invalidFormat@runtime_exception@@SAXPAXPAPB_W1@Z 
01:0000F20C ?invalidTerm@runtime_exception@@SAXPAXPAPB_W1@Z 
01:0000F234 ?integerExpected@runtime_exception@@SAXPAXPAPB_W1@Z 
01:0000F25C ?arithmeticOverflow@runtime_exception@@SAXPAXPAPB_W1@Z 
01:0000F284 ?noRangeNumber@runtime_exception@@SAXPAXPAPB_W1@Z 
01:0000F2AC ?functorNotFound@runtime_exception@@SAXPAXPAPB_W1@Z 
01:0000F2D4 ?functorNameExpected@runtime_exception@@SAXPAXPAPB_W1@Z  (Idle)
01:0000F2FC ?cyclicInheritance@runtime_exception@@SAXPAXPAPB_W1@Z 
01:0000F324 ?parserUnexpectedEOS@runtime_exception@@SAXPAXPAPB_W1@Z 
01:0000F34C ?determFact@runtime_exception@@SAXPAXPAPB_W1@Z 
01:0000F374 ?realOverflow@runtime_exception@@SAXPAXPAPB_W1@Z 
01:0000F39C ?negZero@runtime_exception@@SAXPAXPAPB_W1@Z 
01:0000F3C4 ?unGetChar@runtime_exception@@SAXPAXPAPB_W1@Z 
01:0000F3EC ?vip6runInternalError@runtime_exception@@SAXPAXPAPB_W1@Z 
01:0000F414 ?notSupportFunction@runtime_exception@@SAXPAXPAPB_W1@Z  (Idle)
01:0000F43C ?unsupportedFormat@runtime_exception@@SAXPAXPAPB_W1@Z 
01:0000F464 ?invalidTermRepresentation@runtime_exception@@SAXPAXPAPB_W1@Z 
01:0000F48C ?consult_WrongComment@runtime_exception@@SAXPAXPAPB_W1@Z 
01:0000F4B4 ?consult_WrongUsageOfKeyword@runtime_exception@@SAXPAXPAPB_W1@Z 
01:0000F4DC ?retractSingleFact@runtime_exception@@SAXPAXPAPB_W1@Z 
01:0000F504 ?expectedChar@runtime_exception@@SAXPAXPAPB_W1@Z 
01:0000F52C ?threadCreation@runtime_exception@@SAXPAXPAPB_W1@Z  (Idle)
01:0000F554 ?systemException@runtime_exception@@SAXPAXPAPB_W1@Z 
01:0000F57C ?osError@runtime_exception@@SAXPAXPAPB_W1@Z 
01:0000F5A4 ?gcAbend@runtime_exception@@SAXPAXPAPB_W1@Z 
01:0000F5CC ?gcError@runtime_exception@@SAXPAXPAPB_W1@Z 
01:0000F5F4 ?heapOverflow@runtime_exception@@SAXPAXPAPB_W1@Z 
01:0000F61C ?freeVariable@runtime_exception@@SAXPAXPAPB_W1@Z 
01:0000F644 ?singleFactHasNoValue@runtime_exception@@SAXPAXPAPB_W1@Z 
01:0000F66C ?accessToNotInitializedFact@runtime_exception@@SAXPAXPAPB_W1@Z 
01:0000F694 ?chainDB_DBAlreadyOpen@runtime_exception@@SAXPAXPAPB_W1@Z 
01:0000F6BC ?chainDB_InvalidDBFileName@runtime_exception@@SAXPAXPAPB_W1@Z 
01:0000F6E4 ?chainDB_NotOpenDB@runtime_exception@@SAXPAXPAPB_W1@Z 
01:0000F70C ?chainDB_ExistsBTree@runtime_exception@@SAXPAXPAPB_W1@Z 
01:0000F734 ?chainDB_ExistsDBInPlace@runtime_exception@@SAXPAXPAPB_W1@Z 
01:0000F75C ?chainDB_InvalidOrderValue@runtime_exception@@SAXPAXPAPB_W1@Z 
01:0000F784 ?chainDB_InvalidKeyValue@runtime_exception@@SAXPAXPAPB_W1@Z 
01:0000F7AC ?chainDB_UnableOpenDB@runtime_exception@@SAXPAXPAPB_W1@Z 
01:0000F7D4 ?chainDB_InvalidDB@runtime_exception@@SAXPAXPAPB_W1@Z 
01:0000F7FC ?chainDB_UnableDeleteDB@runtime_exception@@SAXPAXPAPB_W1@Z 
01:0000F824 ?chainDB_InvalidRefVal@runtime_exception@@SAXPAXPAPB_W1@Z 
01:0000F84C ?chainDB_AbsentChain@runtime_exception@@SAXPAXPAPB_W1@Z 
01:0000F874 ?chainDB_AbsentBTree@runtime_exception@@SAXPAXPAPB_W1@Z 
01:0000F89C ?chainDB_InvalidBTreeSel@runtime_exception@@SAXPAXPAPB_W1@Z 
01:0000F8C4 ?chainDB_DeleteOpenBTree@runtime_exception@@SAXPAXPAPB_W1@Z 
01:0000F8EC ?chainDB_NotFoundKeyAndRef@runtime_exception@@SAXPAXPAPB_W1@Z 
01:0000F914 ?chainDB_IncorrectDBVersion@runtime_exception@@SAXPAXPAPB_W1@Z 
01:0000F93C ?chainDB_NotInTransaction@runtime_exception@@SAXPAXPAPB_W1@Z 
01:0000F964 ?chainDB_WriteROTransaction@runtime_exception@@SAXPAXPAPB_W1@Z 
01:0000F98C ?chainDB_AlreadyOpenTransaction@runtime_exception@@SAXPAXPAPB_W1@Z 
01:0000F9B4 ?chainDB_UpdatingROTransaction@runtime_exception@@SAXPAXPAPB_W1@Z 
01:0000F9DC ?chainDB_TimeOutTransaction@runtime_exception@@SAXPAXPAPB_W1@Z 
01:0000FA04 ?chainDB_DuplicateKey@runtime_exception@@SAXPAXPAPB_W1@Z 
01:0000FA2C ?chainDB_WrongChainToDeleteTerm@runtime_exception@@SAXPAXPAPB_W1@Z 
01:0000FA54 ?chainDB_ReadWrongNumberBytes@runtime_exception@@SAXPAXPAPB_W1@Z 
01:0000FA7C ?chainDB_WriteWrongNumberBytes@runtime_exception@@SAXPAXPAPB_W1@Z 
01:0000FAA4 ?chainDB_OSNativeError@runtime_exception@@SAXPAXPAPB_W1@Z 
01:0000FACC ?binary_invalidBlock@runtime_exception@@SAXPAXPAPB_W1@Z 
01:0000FAF4 ?binary_invalidFormat@runtime_exception@@SAXPAXPAPB_W1@Z 
01:0000FB1C ?binary_DecodeInternalError@runtime_exception@@SAXPAXPAPB_W1@Z 
01:0000FB44 ?cannotLoadLibrary@runtime_exception@@SAXPAXPAPB_W1@Z 
01:0000FB6C ?cannotGetProcAddress@runtime_exception@@SAXPAXPAPB_W1@Z 
01:0000FB94 ?odbc_unidentifiedError@runtime_exception@@SAXPAXPAPB_W1@Z 
01:0000FBBC ?sql_invalidHandle@runtime_exception@@SAXPAXPAPB_W1@Z 
01:0000FBE4 ?sql_stillExecuting@runtime_exception@@SAXPAXPAPB_W1@Z 
01:0000FC0C ?sql_needData@runtime_exception@@SAXPAXPAPB_W1@Z 
01:0000FC34 ?sql_noDataFound@runtime_exception@@SAXPAXPAPB_W1@Z 
01:0000FC5C ?sql_error@runtime_exception@@SAXPAXPAPB_W1@Z 
01:0000FC84 ?odbc_error@runtime_exception@@SAXPAXPAPB_W1@Z 
01:0000FCAC _runtimeExceptionRaiser 
--- From 'Obj\string.F4C46458.obj'
01:0000FDBC ?_exceptionFromErrorCode@runtime_exception@@SAXIPAX@Z 
--- From 'Obj\exception.0D818F93.obj'
01:000104F4 ?notYetHandledError@runtime_exception@@SAXPAXPAPB_W1@Z 
01:0001051C ?classInfo@exception_exception@@SAXPAPB_W0@Z 
01:00010538 ?externalError@exception_exception@@SAXPAXPAPB_W1@Z 
01:00010560 ?raise_ExternalError@exception_exception@@SAXXPBUerrorCode@programControl@@PAU?$__list_struct@UnamedValue@@@@@Z  (Idle)
01:000105D0 ?classInfo@exception@@SAXPAPB_W0@Z 
01:000105EC ?unknownClassInfo@exception@@SAXPAPB_W0@Z  (Idle)
01:00010608 ?equals@exception@@SAXXPAUexceptionDescriptor_struct@1@@Z  (Idle)
01:00010690 ?_tryGetDescriptor@exception@@SAXPBUtraceId@@XPAPAUdescriptor_struct@1@@Z 
01:00010738 $findException$exception$predicate$(i,i)$b$_c19 
01:00010794 ?_getDescriptor_nd@exception@@SAXPBUtraceId@@PAPAUdescriptor_struct@1@@Z 
01:000107BC ?_getDescriptorChain_nd@exception@@SAXQAVerrorDescriptorInformation@@@PAPAUdescriptor_struct@1@@Z 
01:00010814 ?_getDescriptorChain1_nd@exception@@SAXQAVerrorDescriptorInformation@@@PAPAUdescriptor_struct@1@@Z 
01:00010908 ?_getDescriptorChainFromPacked_nd@exception@@SAXPAU?$__list_struct@UnamedValue@@@@PAPAUdescriptor_struct@1@@Z 
--- From 'Obj\exceptionDump.9F4FF40B.obj'
01:000109A8 ?_getTraceInfo@exception@@SAXPBUtraceId@@PAPAUtraceInfo_struct@1@@Z 
--- From 'Obj\exception.0D818F93.obj'
01:00010AD8 ?_getStackInfo_nd@exception@@SAXQAVtrapInformationObject@@@PAPAUlineInfo_struct@1@@Z 
01:00010C18 ?_getModuleHandleByAddress@exception@@SAXPAXAAUhModule@@@Z 
01:00010C6C ?_getModuleNameByAddress@exception@@SAXPAXPAPB_W@Z 
01:00010CC8 ?_tryGetLineInfo@exception@@SAXPAXPAPAUlineInfo_struct@1@@Z 
01:00010D84 ?_tryGetExtraInfo@exception@@SAXPAUdescriptor_struct@1@PB_WPAPAUvalue_struct@core@@@Z 
01:00010D9C ?_searchInfoList@exception@@SAXPAU?$__list_struct@UnamedValue@@@@PB_WPAPAUvalue_struct@core@@@Z 
01:00010E04 ?getExceptionInformation@exception@@SAXPAUexceptionDescriptor_struct@1@PAPAUclassInfoDescriptor_struct@1@PAPB_W2@Z  (Idle)
--- From 'Obj\string.F4C46458.obj'
01:00010E58 ?raise@exception@@SAXXX@Z 
--- From 'Obj\namedValue.0E580094.obj'
01:00010E74 ?raise@exception@@SAXXXPAU?$__list_struct@UnamedValue@@@@@Z 
--- From 'Obj\exception.0D818F93.obj'
01:00010EB0 ?continue@exception@@SAXPBUtraceId@@XX@Z  (Idle)
--- From 'Obj\string.F4C46458.obj'
01:00010ED0 ?continue@exception@@SAXPBUtraceId@@XXPAU?$__list_struct@UnamedValue@@@@@Z 
--- From 'Obj\exception.0D818F93.obj'
01:00010F00 ?continue1@exception@@SAXQAVtrapInformationObject@@@XXPAU?$__list_struct@UnamedValue@@@@@Z 
--- From 'Obj\string.F4C46458.obj'
01:00011028 ?_getErrorCode@exception@@SAXPBUtraceId@@PAI@Z 
01:00011070 ?_tryGetErrorDescriptorInformation@exception@@SAXPBUtraceId@@PAPAVerrorDescriptorInformation@@@@Z 
--- From 'Obj\exception.0D818F93.obj'
01:00011098 ?_tryGetErrorDescriptorInformation1@exception@@SAXQAVtrapInformationObject@@@PAPAVerrorDescriptorInformation@@@@Z 
01:000110BC ?_getTrapInformationObject@exception@@SAXPBUtraceId@@PAPAVtrapInformationObject@@@@Z 
01:00011190 ?_tryGetTrapInformationObject@exception@@SAXPBUtraceId@@PAPAVtrapInformationObject@@@@Z 
01:00011234 ?new@errorDescriptorInformation@@SAXQAV1@@PAUclassInfoDescriptor_struct@exception@@PAUexceptionDescriptor_struct@4@PAUkind_struct@4@PAU?$__list_struct@UnamedValue@@@@PAPBUgmtTimeValue@@PB_WI@Z 
01:0001126C ?gMTTimeFormatted@errorDescriptorInformation@@SGPB_WQAV1@@@Z 
01:0001129C ?_tryGetContinueException@errorDescriptorInformation@@SAXQAV1@@PAPAV1@@@Z 
01:000112C0 ?setContinueException@errorDescriptorInformation@@SAXQAV1@@0@Z 
01:000112E8 ?_createDescriptorInfo@errorDescriptorInformation@@SAXXXPAUkind_struct@exception@@PAU?$__list_struct@UnamedValue@@@@PAPAV1@@@Z 
--- From 'Obj\exceptionDump.9F4FF40B.obj'
01:00011420 ?_formatDateTime@errorDescriptorInformation@@SAXPAPBUgmtTimeValue@core@@PAPB_W@Z 
--- From 'Obj\exception.0D818F93.obj'
01:00011498 ?_new@errorDescriptorInformation@@SAXPAUclassInfoDescriptor_struct@exception@@PAUexceptionDescriptor_struct@3@PAUkind_struct@3@PAU?$__list_struct@UnamedValue@@@@PAPBUgmtTimeValue@@PB_WIPAPAV1@@@Z 
01:000114D4 ?exceptionDescriptor@errorDescriptorInformation@@SGPAUexceptionDescriptor_struct@exception@@QAV1@@@Z 
01:000114E0 ?classInfoDescriptor@errorDescriptorInformation@@SGPAUclassInfoDescriptor_struct@exception@@QAV1@@@Z 
01:000114EC ?kind@errorDescriptorInformation@@SGPAUkind_struct@exception@@QAV1@@@Z 
01:000114F8 ?extraInfo@errorDescriptorInformation@@SGPAU?$__list_struct@UnamedValue@@@@QAV1@@@Z 
01:00011504 ?_gMTTime@errorDescriptorInformation@@SAXQAV1@@PAAAUgmtTimeValue@@@Z 
01:00011518 ?exceptionDescription@errorDescriptorInformation@@SGPB_WQAV1@@@Z 
01:00011524 ?threadId@errorDescriptorInformation@@SGIQAV1@@@Z 
01:00011530 ?internal@common_exception@@SAXPAXPAPB_W1@Z 
01:00011558 ?couldNotCreate@common_exception@@SAXPAXPAPB_W1@Z 
01:00011580 ?removeListener@common_exception@@SAXPAXPAPB_W1@Z 
01:000115A8 ?exceptionInListener@common_exception@@SAXPAXPAPB_W1@Z 
--- From 'Obj\fileSystem.03D2CA18.obj'
01:000115D0 ?nativeCallException@common_exception@@SAXPAXPAPB_W1@Z 
--- From 'Obj\exception.0D818F93.obj'
01:000115F8 ?unsupportedPredicate@common_exception@@SAXPAXPAPB_W1@Z 
01:00011620 ?unknown@common_exception@@SAXPAXPAPB_W1@Z 
01:00011648 ?overloadingExpected@common_exception@@SAXPAXPAPB_W1@Z 
--- From 'Obj\namedValue.0E580094.obj'
01:00011670 ?raise_error@common_exception@@SAXXPB_W@Z 
--- From 'Obj\exception.0D818F93.obj'
01:00011740 ?raise_exception@common_exception@@SAXXXPB_W@Z  (Idle)
01:00011810 ?raise_user@common_exception@@SAXXPB_W1@Z  (Idle)
01:00011830 ?raise_user@common_exception@@SAXXPB_W1PAU?$__list_struct@UnamedValue@@@@@Z 
--- From 'Obj\fileSystem_api.5262ADBC.obj'
01:00011854 ?raise_user@common_exception@@SAXXXPB_W2PAU?$__list_struct@UnamedValue@@@@@Z 
--- From 'Obj\exception.0D818F93.obj'
01:00011914 ?raise_definiteUser@common_exception@@SAXXPB_W1@Z  (Idle)
01:00011934 ?raise_definiteUser@common_exception@@SAXXPB_W1PAU?$__list_struct@UnamedValue@@@@@Z 
01:00011958 ?raise_definiteUser@common_exception@@SAXXXPB_W2PAU?$__list_struct@UnamedValue@@@@@Z 
01:00011A28 ?raise_packed@common_exception@@SAXPAUtraceInfo_struct@3@XPB_W@Z  (Idle)
01:00011B60 ?raise_errorf@common_exception@@SAXXPB_W1@Z  (Idle)
01:00011C6C ?raise_couldNotCreate@common_exception@@SAXXPB_WPAU?$__list_struct@UnamedValue@@@@@Z  (Idle)
01:00011CDC ?raise_removeListener@common_exception@@SAXXPB_W@Z  (Idle)
--- From 'Obj\systemInformation_api.671D1739.obj'
01:00011D50 ?raise_nativeCallException@common_exception@@SAXXPB_WIPAU?$__list_struct@UnamedValue@@@@@Z 
--- From 'Obj\multiThread_api.F2BE0D3B.obj'
01:00011D84 ?raise_nativeCallException@common_exception@@SAXXPB_WI1PAU?$__list_struct@UnamedValue@@@@@Z 
--- From 'Obj\exception.0D818F93.obj'
01:00011E9C ?raise_unsupportedPredicate@common_exception@@SAXXPB_W@Z  (Idle)
01:00011F10 ?raise_overloadingExpected@common_exception@@SAXX@Z  (Idle)
01:00011F30 ?raise_overloadingExpected@common_exception@@SAXXPB_W@Z  (Idle)
01:00011FA4 ?continue_exceptionInListener@common_exception@@SAXPBUtraceId@3@XPB_W@Z  (Idle)
01:00012018 ?continue_unknown@common_exception@@SAXPBUtraceId@3@XPB_W@Z 
01:000120EC ?continue_user@common_exception@@SAXPBUtraceId@3@XPB_W2@Z  (Idle)
01:00012110 ?continue_user@common_exception@@SAXPBUtraceId@3@XPB_W2PAU?$__list_struct@UnamedValue@@@@@Z 
01:00012134 ?continue_user@common_exception@@SAXPBUtraceId@3@XXPB_W3PAU?$__list_struct@UnamedValue@@@@@Z 
01:000121F4 ?continue_definiteUser@common_exception@@SAXPBUtraceId@3@XPB_W2@Z  (Idle)
01:00012218 ?continue_definiteUser@common_exception@@SAXPBUtraceId@3@XPB_W2PAU?$__list_struct@UnamedValue@@@@@Z 
01:0001223C ?continue_definiteUser@common_exception@@SAXPBUtraceId@3@XXPB_W3PAU?$__list_struct@UnamedValue@@@@@Z 
01:00012310 ?isDefiniteUserError@common_exception@@SAXPBUtraceId@3@@Z  (Idle)
--- From 'Obj\multiThread_api.F2BE0D3B.obj'
01:0001234C ?_getLastErrorDescription@common_exception@@SAXIPAPB_W@Z 
--- From 'Obj\exception.0D818F93.obj'
01:00012388 ?classInfo@common_exception@@SAXPAPB_W0@Z 
01:000123AC errorDescriptorInformation?_initObject@@@QAGXQAV1@H@Z 
01:000123C0 ?@create_object@errorDescriptorInformation@@SGQAV1@@XZ 
01:000123DC errorDescriptorInformation?_InternalFinalizer@@@QAGXQAV1@@Z 
--- From 'Obj\programControl.9EE7D4CB.obj'
01:000123F0 ?setRuntimeExceptionRaiser@programControl@@SAXXPAX@Z 
01:0001242C ?RemoveMe  (Idle)
01:0001243C ?classInfo@programControl@@SAXPAPB_W0@Z  (Idle)
--- From 'Obj\stream.50EDC860.obj'
01:00012460 ?classInfo@stream_exception@@SAXPAPB_W0@Z 
--- From 'Obj\binary.5C1BA76F.obj'
01:0001247C ?raise_EndOfStream@stream_exception@@SAXX@Z 
--- From 'Obj\outputStreamSupport.F4FF31D0.obj'
01:00012494 ?raise_notSupportedProperty@stream_exception@@SAXX@Z 
--- From 'Obj\binary.5C1BA76F.obj'
01:000124AC ?raise_NoCRLFconversion@stream_exception@@SAXX@Z 
01:000124C4 ?raise_WrongMode@stream_exception@@SAXXPB_W1@Z 
--- From 'Obj\stream.50EDC860.obj'
01:00012588 ?raise_NoStream@stream_exception@@SAXXPB_W@Z 
01:000125FC ?endOfStream@stream_exception@@SAXPAXPAPB_W1@Z 
01:00012624 ?notSupportedProperty@stream_exception@@SAXPAXPAPB_W1@Z 
01:0001264C ?noCRLFconversion@stream_exception@@SAXPAXPAPB_W1@Z 
01:00012674 ?wrongMode@stream_exception@@SAXPAXPAPB_W1@Z 
01:0001269C ?noStream@stream_exception@@SAXPAXPAPB_W1@Z 
01:000126C4 ?classInfo@stdioState@@SAXPAPB_W0@Z 
01:000126E0 ?setInputStream@stdioState@@SAXQAV1@@QAVinputStream@@@@Z 
01:00012708 ?_getInputStream@stdioState@@SAXQAV1@@PAPAVinputStream@@@@Z 
01:00012744 ?_tryGetInputStream@stdioState@@SAXQAV1@@PAPAVinputStream@@@@Z 
01:00012768 ?setOutputStream@stdioState@@SAXQAV1@@QAVoutputStream@@@@Z 
01:00012790 ?_getOutputStream@stdioState@@SAXQAV1@@PAPAVoutputStream@@@@Z 
01:000127CC ?_tryGetOutputStream@stdioState@@SAXQAV1@@PAPAVoutputStream@@@@Z 
01:000127F0 ?setErrorStream@stdioState@@SAXQAV1@@QAVoutputStream@@@@Z 
01:00012818 ?_getErrorStream@stdioState@@SAXQAV1@@PAPAVoutputStream@@@@Z 
01:00012854 ?_tryGetErrorStream@stdioState@@SAXQAV1@@PAPAVoutputStream@@@@Z 
01:00012878 ?new@stdioState@@SAXQAV1@@@Z 
01:00012880 ?_new@stdioState@@SAXPAPAV1@@@Z 
01:000128A8 ?setInputStream@stdio@@SAXQAVinputStream@@@@Z 
01:000128D0 ?_getInputStream@stdio@@SAXPAPAVinputStream@@@@Z  (Idle)
01:000128F8 ?_tryGetInputStream@stdio@@SAXPAPAVinputStream@@@@Z  (Idle)
01:00012920 ?setOutputStream@stdio@@SAXQAVoutputStream@@@@Z 
01:00012948 ?_getOutputStream@stdio@@SAXPAPAVoutputStream@@@@Z  (Idle)
--- From 'Obj\exceptionDump.9F4FF40B.obj'
01:00012970 ?_tryGetOutputStream@stdio@@SAXPAPAVoutputStream@@@@Z 
--- From 'Obj\stream.50EDC860.obj'
01:00012998 ?setErrorStream@stdio@@SAXQAVoutputStream@@@@Z 
01:000129C0 ?_getErrorStream@stdio@@SAXPAPAVoutputStream@@@@Z  (Idle)
01:000129E8 ?_tryGetErrorStream@stdio@@SAXPAPAVoutputStream@@@@Z  (Idle)
01:00012A10 ?write@stdio@@SAXXZ 
01:00012A4C ?writef@stdio@@SAXPB_W@Z 
01:00012A90 ?writeBytes@stdio@@SAXPAXPBUbyteCount@@@Z  (Idle)
01:00012AC0 ?writeQuoted@stdio@@SAXXZ  (Idle)
01:00012AFC ?nl@stdio@@SAXXZ  (Idle)
01:00012B24 ?save@stdio@@SAXPBUfactDB@@@Z  (Idle)
01:00012B50 ?flush@stdio@@SAXXZ  (Idle)
01:00012B78 ?write_error@stdio@@SAXXZ  (Idle)
01:00012BB4 ?writef_error@stdio@@SAXPB_W@Z  (Idle)
01:00012BF8 ?writeBytes_error@stdio@@SAXPAXPBUbyteCount@@@Z  (Idle)
01:00012C28 ?writeQuoted_error@stdio@@SAXXZ  (Idle)
01:00012C64 ?nl_error@stdio@@SAXXZ  (Idle)
01:00012C8C ?save_error@stdio@@SAXPBUfactDB@@@Z  (Idle)
01:00012CB8 ?flush_error@stdio@@SAXXZ  (Idle)
01:00012CE0 ?_read@stdio@@SAXQAVrTypeLibrary@TypeLibraries@RunTime@VIP@@PAPAX@Z  (Idle)
01:00012D24 ?_readChar@stdio@@SAXPA_W@Z  (Idle)
01:00012D60 ?ungetChar@stdio@@SAXXZ  (Idle)
01:00012D8C ?_readLine@stdio@@SAXPAPB_W@Z  (Idle)
01:00012DC8 ?_readString@stdio@@SAXPBUcharCount@@PAPB_W@Z  (Idle)
01:00012E0C ?_readBytes@stdio@@SAXPBUbyteCount@@QAPAE@Z  (Idle)
01:00012E50 ?consult@stdio@@SAXPBUfactDB@@@Z  (Idle)
01:00012E8C ?endOfStream@stdio@@SAXXZ  (Idle)
01:00012EB8 ?_getOutputStream@stdio@@SAXPB_WPAPAVoutputStream@@@@Z 
01:00012F00 ?_getErrorStream@stdio@@SAXPB_WPAPAVoutputStream@@@@Z 
01:00012F48 ?_getInputStream@stdio@@SAXPB_WPAPAVinputStream@@@@Z 
01:00012F90 ?classInfo@stdio@@SAXPAPB_W0@Z 
01:00012FAC ?_class_facts_initializer@stdio@@SGXXZ 
01:00012FD4 ?stdioState@stdio@@SGXQAV0@@@Z  (Idle)
01:00012FE0 ?stdioState@stdio@@SGQAV0@@XZ  (Idle)
01:00012FE8 ?new@outputStream_null@@SAXQAV1@@@Z 
01:00012FF0 ?getPosition@outputStream_null@@SGPBUfileSize@fileSystem_api@@QAVstream@@@@Z 
01:00012FF8 ?setPosition@outputStream_null@@SGXQAVstream@@@PBUfileSize@fileSystem_api@@@Z 
01:00013008 ?getCRLFconversion@outputStream_null@@SGPAUboolean_struct@_builtIn@@QAVstream@@@@Z 
01:00013010 ?setCRLFconversion@outputStream_null@@SGXQAVstream@@@PAUboolean_struct@_builtIn@@@Z 
01:00013020 ?close@outputStream_null@@SGXQAVstream@@@@Z 
01:00013030 ?setMode@outputStream_null@@SGXQAVstream@@@PAUmode_struct@2@@Z 
01:00013040 ?getMode@outputStream_null@@SGPAUmode_struct@stream@@QAV3@@@Z 
01:00013048 ?write@outputStream_null@@SAXQAVoutputStream@@@@Z 
01:00013050 ?writeQuoted@outputStream_null@@SAXQAVoutputStream@@@@Z 
01:00013058 ?writeBytes@outputStream_null@@SGXQAVoutputStream@@@PAXPBUbyteCount@@@Z 
01:00013068 ?writef@outputStream_null@@SAXQAVoutputStream@@@PB_W@Z 
01:00013070 ?nl@outputStream_null@@SGXQAVoutputStream@@@@Z 
01:00013080 ?save@outputStream_null@@SGXQAVoutputStream@@@PBUfactDB@@@Z 
01:00013090 ?flush@outputStream_null@@SGXQAVoutputStream@@@@Z 
01:000130A0 ?classInfo@outputStream_null@@SAXPAPB_W0@Z  (Idle)
01:000130BC ?_new@outputStream_null@@SAXPAPAVoutputStream@@@@Z 
01:000130E4 ?_class_facts_initializer@outputStream_null@@SGXXZ 
01:0001310C ?null@outputStream_0@SGQAVoutputStream@@@XZ  (Idle)
01:00013114 ?new@inputStream_null@@SAXQAV1@@@Z 
01:0001311C ?getPosition@inputStream_null@@SGPBUfileSize@fileSystem_api@@QAVstream@@@@Z 
01:00013124 ?setPosition@inputStream_null@@SGXQAVstream@@@PBUfileSize@fileSystem_api@@@Z 
01:00013134 ?getCRLFconversion@inputStream_null@@SGPAUboolean_struct@_builtIn@@QAVstream@@@@Z 
01:0001313C ?setCRLFconversion@inputStream_null@@SGXQAVstream@@@PAUboolean_struct@_builtIn@@@Z 
01:0001314C ?close@inputStream_null@@SGXQAVstream@@@@Z 
01:0001315C ?setMode@inputStream_null@@SGXQAVstream@@@PAUmode_struct@2@@Z 
01:0001316C ?getMode@inputStream_null@@SGPAUmode_struct@stream@@QAV3@@@Z 
01:00013174 ?_read@inputStream_null@@SAXQAVinputStream@@@QAVrTypeLibrary@TypeLibraries@RunTime@VIP@@PAPAX@Z 
01:00013184 ?_readBytes@inputStream_null@@SAXQAVinputStream@@@PBUbyteCount@@QAPAE@Z 
01:00013194 ?_readString@inputStream_null@@SAXQAVinputStream@@@PBUcharCount@@PAPB_W@Z 
01:000131A4 ?_readChar@inputStream_null@@SAXQAVinputStream@@@PA_W@Z 
01:000131B4 ?ungetChar@inputStream_null@@SAXQAVinputStream@@@@Z 
01:000131C4 ?_readLine@inputStream_null@@SAXQAVinputStream@@@PAPB_W@Z 
01:000131D4 ?consult@inputStream_null@@SAXQAVinputStream@@@PBUfactDB@@@Z 
01:000131E4 ?reconsult@inputStream_null@@SAXQAVinputStream@@@PBUfactDB@@@Z 
01:000131F4 ?endOfStream@inputStream_null@@SAXQAVinputStream@@@@Z 
01:000131FC ?exhausted@inputStream_null@@SAXXZ 
01:00013234 ?classInfo@inputStream_null@@SAXPAPB_W0@Z 
01:00013250 ?_new@inputStream_null@@SAXPAPAVinputStream@@@@Z 
01:00013278 ?_class_facts_initializer@inputStream_null@@SGXXZ 
01:000132A0 ?null@inputStream_0@SGQAVinputStream@@@XZ  (Idle)
01:000132B0 stdioState?_initObject@@@QAGXQAV1@H@Z 
01:000132C4 ?@create_object@stdioState@@SGQAV1@@XZ 
01:000132E0 stdioState?_InternalFinalizer@@@QAGXQAV1@@Z 
01:000132F4 outputStream_null?_initObject@@@QAGXQAV1@H@Z 
01:00013304 ?@create_object@outputStream_null@@SGQAV1@@XZ 
01:00013320 outputStream_null?_InternalFinalizer@@@QAGXQAV1@@Z 
01:00013334 inputStream_null?_initObject@@@QAGXQAV1@H@Z 
01:00013344 ?@create_object@inputStream_null@@SGQAV1@@XZ 
01:00013360 inputStream_null?_InternalFinalizer@@@QAGXQAV1@@Z 
--- From 'Obj\console_api.0DF09B51.obj'
01:00013370 ?_getStdHandle@console_api@@SAXPBUunsigned32@@AAUfileHandle@@@Z 
01:000133B4 ?addConsoleCtrlHandler@console_api@@SAXX@Z  (Idle)
01:000133F4 ?removeConsoleCtrlHandler@console_api@@SAXX@Z  (Idle)
01:00013434 ?classInfo@console_api@@SAXPAPB_W0@Z 
--- From 'Obj\exe_api.92EB01D8.obj'
01:00013450 ?_getModuleNameByAddress@exe_api@@SAXPBUhModule@@PAPB_W@Z 
01:00013508 ?_isOSConsoleApplication@exe_api@@SAXPB_WPAPAUboolean_struct@_builtIn@@@Z  (Idle)
01:000136D0 ?coInitialize@exe_api@@SAXPAU?$__list_struct@UcoInit@@@@@Z 
01:00013770 ?coUninitialize@exe_api@@SAXXZ 
01:0001377C ?_toCoInitFlag@exe_api@@SAXPAU?$__list_struct@UcoInit@@@@PAI@Z 
01:000137DC ?_coInitMap@exe_api@@SAXPAUcoInit_struct@1@PAI@Z 
01:00013818 ?classInfo@exe_api@@SAXPAPB_W0@Z 
--- From 'Obj\fileSystem_api.5262ADBC.obj'
01:00013840 ?classInfo@lZ_fileSystem_native@@SAXPAPB_W0@Z  (Idle)
01:0001385C _GetFinalPathNameByHandleW@16  (Idle)
01:00013880 ?classInfo@fileSystem_api@@SAXPAPB_W0@Z 
01:0001389C ?fileAttributeCorrespondence@fileSystem_api@@SAXPAUfileAttributeAtom_struct@1@AAUunsigned32@@@Z 
--- From 'Obj\fileSystem.03D2CA18.obj'
01:0001391C ?_toApiAttributes@fileSystem_api@@SAXPAU?$__list_struct@UfileAttributeAtom@@@@AAUunsigned32@@@Z 
--- From 'Obj\fileSystem_api.5262ADBC.obj'
01:00013938 ?_toApiAttributes@fileSystem_api@@SAXPAU?$__list_struct@UfileAttributeAtom@@@@IPAI@Z 
--- From 'Obj\fileSystem.03D2CA18.obj'
01:00013998 ?_fromApiAttributes@fileSystem_api@@SAXPBUunsigned32@@PAPAU?$__list_struct@UfileAttributeAtom@@@@@Z 
--- From 'Obj\fileSystem_api.5262ADBC.obj'
01:00013A00 ?_convertToFileAttribute_nd@fileSystem_api@@SAXIPAPAUfileAttributeAtom_struct@1@@Z 
--- From 'Obj\fileSystem.03D2CA18.obj'
01:00013A40 ?_createFile@fileSystem_api@@SAXPB_WPBUunsigned32@@PAUaccessPermit_struct@1@1PAU?$__list_struct@UfileAttributeAtom@@@@AAUfileHandle@@@Z 
--- From 'Obj\fileSystem_api.5262ADBC.obj'
01:00013AB4 ?_toShareModeAPI@fileSystem_api@@SAXPAUaccessPermit_struct@1@PAI@Z 
--- From 'Obj\fileSystem.03D2CA18.obj'
01:00013AF0 ?_getFileSize@fileSystem_api@@SAXPBUfileHandle@@PAAAUfileSize@@@Z 
01:00013B4C ?_setFilePointer@fileSystem_api@@SAXPBUfileHandle@@PA_JIPAAAUfileSize@@@Z 
01:00013BC4 ?getVolumeInformation@fileSystem_api@@SAXPB_WPAPB_WAAUunsigned32@@1@Z 
--- From 'Obj\fileSystem_api.5262ADBC.obj'
01:00013C94 ?cannotCreate@fileSystem_api@@SAXPAXPAPB_W1@Z 
01:00013CBC ?cannotGetFileSize@fileSystem_api@@SAXPAXPAPB_W1@Z 
01:00013CE4 ?cannotSetFilePointer@fileSystem_api@@SAXPAXPAPB_W1@Z 
--- From 'Obj\fileSystem.03D2CA18.obj'
01:00013D0C ?raise_CannotCreate@fileSystem_api@@SAXXPB_WI@Z 
--- From 'Obj\fileSystem_api.5262ADBC.obj'
01:00013EA0 ?raise_CannotGetFileSize@fileSystem_api@@SAXXPBUfileHandle@@I@Z 
01:00013FC8 ?raise_CannotSetFilePointer@fileSystem_api@@SAXXPBUfileHandle@@PA_JII@Z 
--- From 'Obj\fileSystem.03D2CA18.obj'
01:00014194 ?crlf_lf@fileSystem_api@@SAXPAXHPAUboolean_struct@_builtIn@@PAPAXAAUbyteCount@@PAPAU?$__list_struct@U4@@@PAPAU23@@Z 
--- From 'Obj\fileSystem_api.5262ADBC.obj'
01:00014214 ?prepareSearch@fileSystem_api@@SAXPAXHAAUbyteCount@@PAPAUboolean_struct@_builtIn@@@Z 
01:0001428C ?searchCRLF@fileSystem_api@@SAXPAXPBUbyteCount@@1AAU2@PAPAU?$__list_struct@U2@@@3@Z 
01:00014378 ?_tryGetPositionOfCRLF@fileSystem_api@@SAXPAXHPBUbyteCount@@AAU2@@Z 
01:000143E8 ?_convertCRLF_IfNeeded@fileSystem_api@@SAXPAUboolean_struct@_builtIn@@PAXPBUbyteCount@@PAU?$__list_struct@U4@@@2PAPAX@Z 
01:0001454C ?checkFirstPos@fileSystem_api@@SAXPBUbyteCount@@PAU?$__list_struct@U2@@@PAXPAPAX3PAPAU?$__list_struct@U2@@@@Z 
01:000145C4 ?_mem_move@fileSystem_api@@SAXPAXPAXPBUbyteCount@@PAPAX@Z 
01:000145EC ?_mem_copy@fileSystem_api@@SAXPAXPAXPBUbyteCount@@PAPAX@Z 
01:00014614 ?convertCRLF_LF@fileSystem_api@@SAXXPAXPAXPBUbyteCount@@PAU?$__list_struct@U2@@@@Z 
--- From 'Obj\fileSystem.03D2CA18.obj'
01:000146B4 ?crlf_lf@fileSystem_api@@SAXPB_W@Z 
--- From 'Obj\fileSystem_api.5262ADBC.obj'
01:000146C8 ?do_CRLF_LF@fileSystem_api@@SAXPB_W0@Z 
--- From 'Obj\fileSystem.03D2CA18.obj'
01:00014764 ?lf_crlf@fileSystem_api@@SAXPAXPBUbyteCountOptional@@PAPAXAAUbyteCount@@@Z 
--- From 'Obj\fileSystem_api.5262ADBC.obj'
01:000147D8 ?_getSize@fileSystem_api@@SAXPAXPBUbyteCountOptional@@AAUbyteCount@@@Z 
01:0001480C ?searchLineFeeds@fileSystem_api@@SAXPAXPBUbyteCount@@1AAU2@PAPAU?$__list_struct@U2@@@3@Z 
01:000148C8 ?_convertToCRLF_IfNeeded@fileSystem_api@@SAXPAXPBUbyteCount@@PAU?$__list_struct@U2@@@1PAPAX@Z 
01:00014924 ?convertToCRLF@fileSystem_api@@SAXPAXPAXPBUbyteCount@@PAU?$__list_struct@U2@@@@Z 
--- From 'Obj\fileSystem.03D2CA18.obj'
01:000149B4 ?removeDirectory@fileSystem_api@@SAXPB_W@Z 
01:00014A3C ?createDirectory@fileSystem_api@@SAXPB_WPAX@Z 
01:00014AC8 ?moveFile@fileSystem_api@@SAXPB_W0@Z 
01:00014BA4 ?setVolumeLabel@fileSystem_api@@SAXPB_W0@Z 
01:00014C80 ?getDiskFreeSpaceEx@fileSystem_api@@SAXPB_WPAAAUfileSize@@11@Z 
--- From 'Obj\fileSystem_api.5262ADBC.obj'
01:00014D78 ?_anonymous$1$367_13$getcurrentdirectory/0@fileSystem_api@@SAXPB_WPBUcharCount@@AAU2@@Z 
--- From 'Obj\fileSystem.03D2CA18.obj'
01:00014D90 ?_getCurrentDirectory@fileSystem_api@@SAXPAPB_W@Z 
01:00014DD0 ?setCurrentDirectory@fileSystem_api@@SAXPB_W@Z 
--- From 'Obj\fileSystem_api.5262ADBC.obj'
01:00014E58 ?_anonymous$2$377_13$getlongpathname/1@fileSystem_api@@SAXPAUanonymous$2$377_13$getlongpathname/1c_struct@1@PB_WPBUcharCount@@AAU4@@Z 
01:00014E7C ?_getLongPathName@fileSystem_api@@SAXPB_WPAPB_W@Z  (Idle)
01:00014F28 ?_anonymous$3$382_13$gettemppath/0@fileSystem_api@@SAXPB_WPBUcharCount@@AAU2@@Z 
--- From 'Obj\fileSystem.03D2CA18.obj'
01:00014F40 ?_getTempPath@fileSystem_api@@SAXPAPB_W@Z 
01:00014F80 ?findClose@fileSystem_api@@SAXPBUsearchHandle@fileSystem_native@@@Z 
--- From 'Obj\fileSystem_api.5262ADBC.obj'
01:00014FB8 ?checkZeroFailOperation@fileSystem_api@@SAXPB_WPAU?$__list_struct@UnamedValue@@@@PBUbooleanInt@@@Z 
01:00014FEC ?_firstSizeThenOperation@fileSystem_api@@SAXPB_WPAU?$__list_struct@UnamedValue@@@@XPAPB_W@Z 
01:000150A0 ?fileAttributeCorrespondence@fileSystem_api@@SAXPAPAUfileAttributeAtom_struct@1@PBUunsigned32@@@Z  (Idle)
01:0001517C ?fileAttributeCorrespondence@fileSystem_api@@SAXPAPAUfileAttributeAtom_struct@1@AAUunsigned32@@@Z 
01:000152A8 ?fileAttributeCorrespondence@fileSystem_api@@SAXPAUfileAttributeAtom_struct@1@PBUunsigned32@@@Z  (Idle)
--- From 'Obj\time_api.06541A64.obj'
01:00015360 _TzSpecificLocalTimeToSystemTimeW@12 
01:00015384 ?classInfo@time_api@@SAXPAPB_W0@Z 
--- From 'Obj\exceptionDump.9F4FF40B.obj'
01:000153A0 ?_getSystemTimeAsFileTime@time_api@@SAXPAAAUgmtTimeValue@@@Z 
--- From 'Obj\time_api.06541A64.obj'
01:000153E0 ?_gmtTimeToSystemTime@time_api@@SAXPAPBUgmtTimeValue@@PAPAUsystemTime_struct@time_native@@@Z 
01:000154A4 ?_systemTimeToGmtTime@time_api@@SAXPAUsystemTime_struct@time_native@@PAAAUgmtTimeValue@@@Z 
01:000157F8 ?_localTimeToSystemTime@time_api@@SAXPAPBUlocalTimeValue@@PAPAUsystemTime_struct@time_native@@@Z 
01:00015844 ?_systemTimeToLocalTime@time_api@@SAXPAUsystemTime_struct@time_native@@PAAAUlocalTimeValue@@@Z 
01:000158A0 ?_localFileTimeToFileTime@time_api@@SAXPAPBUgmtTimeValue@@PAAAU2@@Z 
01:00015964 ?_getTimeZoneInformation@time_api@@SAXPAPAUtimeZoneAPI_struct@time_native@@@Z  (Idle)
01:000159C4 ?_systemTimeToTzSpecificLocalTime@time_api@@SAXPAUtimeZoneAPI_struct@time_native@@PAUsystemTime_struct@3@PAPAU43@@Z 
01:00015A24 ?_tzSpecificLocalTimeToSystemTime@time_api@@SAXPAUtimeZoneAPI_struct@time_native@@PAUsystemTime_struct@3@PAPAU43@@Z 
01:00015AF0 ?_tzSpecificLocalTimeToSystemTime2@time_api@@SAXPAUtimeZoneAPI_struct@time_native@@PAUsystemTime_struct@3@PAPAU43@@Z 
01:00015B50 ?_gmtTimeToLocalTime@time_api@@SAXPAPBUgmtTimeValue@@PAAAUlocalTimeValue@@@Z  (Idle)
01:00015B74 ?_gmtTimeToLocalTime@time_api@@SAXPAPBUgmtTimeValue@@PAUtimeZoneAPI_struct@time_native@@PAAAUlocalTimeValue@@@Z 
01:00015BB8 ?_localTimeToGmtTime@time_api@@SAXPAPBUlocalTimeValue@@PAAAUgmtTimeValue@@@Z  (Idle)
01:00015BDC ?_localTimeToGmtTime@time_api@@SAXPAPBUlocalTimeValue@@PAUtimeZoneAPI_struct@time_native@@PAAAUgmtTimeValue@@@Z 
01:00015C20 ?_gmtTimeToFileTime@time_api@@SAXPAPBUgmtTimeValue@@PAPAUfileTime_struct@time_native@@@Z 
--- From 'Obj\fileSystem.03D2CA18.obj'
01:00015C44 ?_fileTimeToGmtTime@time_api@@SAXPAUfileTime_struct@time_native@@PAAAUgmtTimeValue@@@Z 
--- From 'Obj\time_api.06541A64.obj'
01:00015C58 ?_formatDate@time_api@@SAXPAPBUlocalTimeValue@@PB_WIPAPB_W@Z  (Idle)
01:00015CA4 ?_formatTime@time_api@@SAXPAPBUlocalTimeValue@@PB_WIPAPB_W@Z  (Idle)
01:00015CF0 ?_getDateFormat@time_api@@SAXIIPAUsystemTime_struct@time_native@@PB_WPAPB_W@Z 
01:00015DF4 ?_getTimeFormat@time_api@@SAXIIPAUsystemTime_struct@time_native@@PB_WPAPB_W@Z 
01:00015EF8 ?_getLocaleInfo_string@time_api@@SAXIIPAPB_W@Z  (Idle)
01:00015F78 ?_getLocaleInfo_integer@time_api@@SAXIIPAH@Z 
01:00015FD0 ?_getFirstDayOfWeek@time_api@@SAXIPAI@Z  (Idle)
01:00016008 ?isLeapYear@time_api@@SAXI@Z  (Idle)
01:00016090 ?cannotGetDateTimeFormat@time_api@@SAXPAXPAPB_W1@Z 
01:000160B8 ?cannotGetLocaleInfo@time_api@@SAXPAXPAPB_W1@Z 
01:000160E0 ?raise_CannotGetDateTimeFormat@time_api@@SAXIIIIIIIIIIPB_WI@Z 
01:000164D0 ?raise_CannotGetLocaleInfo@time_api@@SAXIII@Z 
--- From 'Obj\windowsAPI.91596BCC.obj'
01:000165F0 ?_toMsStringSeq@windowsAPI@@SAXPAU?$__list_struct@Ustring@@@@AAUmsStringSeq@@@Z  (Idle)
01:00016634 ?_totalLength@windowsAPI@@SAXPAU?$__list_struct@Ustring@@@@PBUcharCount@core@@AAU34@@Z 
01:000166A0 ?fill@windowsAPI@@SAXPAU?$__list_struct@Ustring@@@@PBUmsStringSeq@@@Z 
01:00016738 ?_fromMsStringSeq@windowsAPI@@SAXPBUmsStringSeq@@PAPAU?$__list_struct@Ustring@@@@@Z  (Idle)
01:000167B8 ?_getString_nd@windowsAPI@@SAXPBUmsStringSeq@@PAPB_W@Z 
--- From 'Obj\exceptionDump.9F4FF40B.obj'
01:00016880 ?classInfo@exceptionDump@@SAXPAPB_W0@Z  (Idle)
01:0001689C ?dump@exceptionDump@@SAXQAVoutputStream@@@PBUtraceId@exception@@@Z  (Idle)
01:000168C4 ?dump_info@exceptionDump@@SAXQAVoutputStream@@@PAUtraceInfo_struct@exception@@@Z 
01:00016950 ?dumpToStdOutput@exceptionDump@@SAXPBUtraceId@exception@@@Z 
01:00016978 ?dumpToStdOutput_info@exceptionDump@@SAXPAUtraceInfo_struct@exception@@@Z 
01:000169CC ?_dumpToString@exceptionDump@@SAXPBUtraceId@exception@@PAPB_W@Z  (Idle)
01:000169F4 ?_dumpToString_info@exceptionDump@@SAXPAUtraceInfo_struct@exception@@PAPB_W@Z 
01:00016A4C ?dumpToStdOutputInTrap@exceptionDump@@SAXPAUtraceInfo_struct@exception@@@Z 
01:00016AF4 ?processErrorOnDumpToStdOut@exceptionDump@@SAXPAUtraceInfo_struct@exception@@@Z 
01:00016B68 ?processErrorOnDumpToStdOutTrapped@exceptionDump@@SAXPBUtraceId@@@Z 
01:00016BC8 ?_formatDescriptorList@exceptionDump@@SAXPAU?$__list_struct@Udescriptor@exception@@@@PAPB_W@Z  (Idle)
01:00016C20 ?_formatDescriptor@exceptionDump@@SAXPAUdescriptor_struct@exception@@PAPB_W@Z  (Idle)
01:00016CC8 ?_formatExtraInfo@exceptionDump@@SAXPAU?$__list_struct@UnamedValue@@@@PAPB_W@Z  (Idle)
01:00016D20 ?_formatLineInfoList@exceptionDump@@SAXPAU?$__list_struct@UlineInfo@exception@@@@PAPB_W@Z  (Idle)
01:00016D78 ?_fillUsrMsgTags@exceptionDump@@SAXPB_WPAU?$__list_struct@UnamedValue@@@@PAPB_W@Z 
01:00016E50 ?_substituteTag@exceptionDump@@SAXPB_WPAU?$__list_struct@UnamedValue@@@@PAPB_W@Z 
01:00016E9C ?getUserMsgFromNV_dt@exceptionDump@@SAXPAU?$__list_struct@UnamedValue@@@@PAPB_W@Z 
01:00016F34 ?getUserMsg_dt@exceptionDump@@SAXPAUdescriptor_struct@exception@@PAPB_W@Z 
01:00016F4C ?_getUserMsg@exceptionDump@@SAXPAU?$__list_struct@Udescriptor@exception@@@@PAPB_W@Z 
01:00016FF0 ?_tryGetUserMessage@exceptionDump@@SAXPBUtraceId@exception@@PAPB_W@Z  (Idle)
01:00017018 ?_tryGetUserMessage_info@exceptionDump@@SAXPAUtraceInfo_struct@exception@@PAPB_W@Z 
01:00017030 ?_tryGetUserMessageFromDescriptorList@exceptionDump@@SAXPAU?$__list_struct@Udescriptor@exception@@@@PAPB_W@Z 
01:0001705C ?writeTraceInfo@exceptionDump@@SAXQAVoutputStream@@@PAUtraceInfo_struct@exception@@@Z 
01:000170A4 ?writeDescriptor_list@exceptionDump@@SAXQAVoutputStream@@@PAU?$__list_struct@Udescriptor@@@@@Z 
01:00017130 ?writeErrorDescriptorInformation@exceptionDump@@SAXQAVoutputStream@@@PAUclassInfoDescriptor_struct@exception@@PAUexceptionDescriptor_struct@4@PAUkind_struct@4@PAU?$__list_struct@UnamedValue@@@@PAPBUgmtTimeValue@@I@Z 
01:000173F8 ?section@exceptionDump@@SAXQAVoutputStream@@@PB_W@Z 
01:00017440 ?writeOSInformation@exceptionDump@@SAXQAVoutputStream@@@PB_W@Z 
01:000174B8 ?writeLineInfo_list@exceptionDump@@SAXQAVoutputStream@@@PAU?$__list_struct@UlineInfo@@@@@Z 
01:00017530 ?writeLineInfo@exceptionDump@@SAXQAVoutputStream@@@PAUlineInfo_struct@exception@@@Z 
01:000175C4 ?writeException@exceptionDump@@SAXQAVoutputStream@@@PAUexceptionDescriptor_struct@exception@@@Z 
01:00017628 ?writeExtraInfo@exceptionDump@@SAXQAVoutputStream@@@PAU?$__list_struct@UnamedValue@@@@@Z 
01:000176A4 ?writeClassInfo@exceptionDump@@SAXQAVoutputStream@@@PB_W1@Z 
01:000176E8 ?writePosition@exceptionDump@@SAXQAVoutputStream@@@IPB_W@Z 
01:0001772C ?writeNamedValue@exceptionDump@@SAXQAVoutputStream@@@PAUnamedValue_struct@core@@@Z 
01:000177E8 ?writeValue_or_NULL@exceptionDump@@SAXQAVoutputStream@@@PB_W@Z 
01:00017860 ?writeValue@exceptionDump@@SAXQAVoutputStream@@@PAUvalue_struct@core@@@Z 
01:00017B68 ?writeValue_or_NULL@exceptionDump@@SAXQAVoutputStream@@@PAD@Z 
01:00017BE0 ?writeValue_or_NULL@exceptionDump@@SAXQAVoutputStream@@@QAE@Z 
01:00017C58 ?writeValue_or_NULL@exceptionDump@@SAXQAVoutputStream@@@PBUbinaryNonAtomic@@@Z 
01:00017CD0 ?writeValue_or_NULL@exceptionDump@@SAXQAVoutputStream@@@QAVobject@@@@Z 
--- From 'Obj\fileSystem.03D2CA18.obj'
01:00017D50 ?classInfo@outputStream_file@@SAXPAPB_W0@Z 
01:00017D6C ?create@outputStream_file@@SAXQAV1@@PB_W@Z 
01:00017D90 ?create@outputStream_file@@SAXQAV1@@PB_WPAUmode_struct@stream@@@Z 
01:00017DB0 ?create@outputStream_file@@SAXQAV1@@PB_WPAUmode_struct@stream@@PAUaccessPermit_struct@fileSystem_api@@@Z 
01:00017DC4 ?create@outputStream_file@@SAXQAV1@@PB_WPAUmode_struct@stream@@PAUaccessPermit_struct@fileSystem_api@@PAU?$__list_struct@UfileAttributeAtom@@@@@Z 
01:00017E0C ?create8@outputStream_file@@SAXQAV1@@PB_W@Z 
01:00017E30 ?commonPartOfConstructors@outputStream_file@@SAXQAV1@@PBUfileHandle@@PAUmode_struct@stream@@@Z 
01:00017E90 ?handleMode_create@outputStream_file@@SAXQAV1@@PAUmode_struct@stream@@@Z 
01:00017EE0 ?openFile@outputStream_file@@SAXQAV1@@PB_W@Z 
01:00017F00 ?openFile8@outputStream_file@@SAXQAV1@@PB_W@Z 
01:00017F20 ?openFile@outputStream_file@@SAXQAV1@@PB_WPAUmode_struct@stream@@@Z 
01:00017F34 ?openFile@outputStream_file@@SAXQAV1@@PB_WPAUmode_struct@stream@@PAUaccessPermit_struct@fileSystem_api@@@Z 
01:00017F98 ?append@outputStream_file@@SAXQAV1@@PB_W@Z 
01:00017FAC ?append8@outputStream_file@@SAXQAV1@@PB_W@Z 
01:00017FC0 ?append@outputStream_file@@SAXQAV1@@PB_WPAUmode_struct@stream@@@Z 
01:00018044 ?newHandleFile@outputStream_file@@SAXQAV1@@PBUfileHandle@@PAUmode_struct@stream@@@Z 
01:00018094 ?newHandle@outputStream_file@@SAXQAV1@@PBUfileHandle@@PAUmode_struct@stream@@@Z 
01:0001809C ?checkUnicodeSignature@outputStream_file@@SAXQAV1@@PAUmode_struct@stream@@PAUboolean_struct@_builtIn@@@Z 
01:00018134 ?checkSign@outputStream_file@@SAXQAV1@@PBUbyteCount@@PAUpChar_struct@memory@@PAUboolean_struct@_builtIn@@@Z 
01:00018214 ?getCRLFconversion@outputStream_file@@SGPAUboolean_struct@_builtIn@@QAVstream@@@@Z 
01:00018240 ?setCRLFconversion@outputStream_file@@SGXQAVstream@@@PAUboolean_struct@_builtIn@@@Z 
01:000182A4 ?getPosition@outputStream_file@@SGPBUfileSize@fileSystem_api@@QAVstream@@@@Z 
01:0001839C ?_handlingGetPosition@outputStream_file@@SAXQAV1@@PAPBUfileSize@fileSystem_api@@PAAAU34@@Z 
01:0001841C ?setPosition@outputStream_file@@SGXQAVstream@@@PBUfileSize@fileSystem_api@@@Z 
01:00018528 ?_checkMovingIsInsideBuffer@outputStream_file@@SAXQAV1@@PAPBUfileSize@fileSystem_api@@1PBUbyteCount@@AAU7@@Z 
01:00018708 ?setMaxOffsetUsedInCurrentBuffer@outputStream_file@@SAXQAV1@@PBUbyteCount@@@Z 
01:0001872C ?_handlingSetPosition@outputStream_file@@SAXQAV1@@PAPBUfileSize@fileSystem_api@@PAAAU34@@Z 
01:00018814 ?close@outputStream_file@@SGXQAVstream@@@@Z 
01:00018868 ?flush@outputStream_file@@SGXQAVoutputStream@@@@Z 
01:000188BC ?bufferFullCallBack@outputStream_file@@SAXQAV1@@PBUbyteCount@@@Z 
01:0001895C ?convertLFtoCRLF_IfNeeded@outputStream_file@@SAXQAV1@@PAXPBUbyteCount@@PAPAXAAU3@@Z 
01:000189C0 ?convertToANSI_IfNeeded@outputStream_file@@SAXQAV1@@PAXPBUbyteCount@@PAPAXAAU3@@Z 
01:00018A50 ?getBuffer@outputStream_file@@SGXQAVbufferSupport@@@PAPAXAAUbyteCount@@@Z 
01:00018AB8 ?getBufferLocked@outputStream_file@@SGXQAVbufferSupport@@@PAPAXAAUbyteCount@@@Z 
01:00018AD4 ?_create@outputStream_file@@SAXPB_WPAPAVoutputStream@@@@Z 
01:00018AFC ?_create@outputStream_file@@SAXPB_WPAUmode_struct@stream@@PAPAVoutputStream@@@@Z  (Idle)
01:00018B28 ?_create@outputStream_file@@SAXPB_WPAUmode_struct@stream@@PAUaccessPermit_struct@fileSystem_api@@PAPAVoutputStream@@@@Z  (Idle)
01:00018B58 ?_create@outputStream_file@@SAXPB_WPAUmode_struct@stream@@PAUaccessPermit_struct@fileSystem_api@@PAU?$__list_struct@UfileAttributeAtom@@@@PAPAVoutputStream@@@@Z  (Idle)
01:00018B8C ?_create8@outputStream_file@@SAXPB_WPAPAVoutputStream@@@@Z 
01:00018BB4 ?_openFile@outputStream_file@@SAXPB_WPAPAVoutputStream@@@@Z  (Idle)
01:00018BDC ?_openFile@outputStream_file@@SAXPB_WPAUmode_struct@stream@@PAPAVoutputStream@@@@Z  (Idle)
01:00018C08 ?_openFile@outputStream_file@@SAXPB_WPAUmode_struct@stream@@PAUaccessPermit_struct@fileSystem_api@@PAPAVoutputStream@@@@Z  (Idle)
01:00018C38 ?_openFile8@outputStream_file@@SAXPB_WPAPAVoutputStream@@@@Z  (Idle)
01:00018C60 ?_append@outputStream_file@@SAXPB_WPAPAVoutputStream@@@@Z  (Idle)
01:00018C88 ?_append@outputStream_file@@SAXPB_WPAUmode_struct@stream@@PAPAVoutputStream@@@@Z 
01:00018CB4 ?_append8@outputStream_file@@SAXPB_WPAPAVoutputStream@@@@Z  (Idle)
01:00018CDC ?_newHandleFile@outputStream_file@@SAXPBUfileHandle@@PAUmode_struct@stream@@PAPAVoutputStream@@@@Z  (Idle)
01:00018D08 ?_newHandle@outputStream_file@@SAXPBUfileHandle@@PAUmode_struct@stream@@PAPAVoutputStream@@@@Z  (Idle)
01:00018D34 ?_commonPartOfConstructors@outputStream_file@@SAXPBUfileHandle@@PAUmode_struct@stream@@PAPAVoutputStream@@@@Z  (Idle)
01:00018D60 ?_object_facts_initializer@outputStream_file@@SGXQAV1@@@Z 
01:00018D80 ?classInfo@messageFile@@SAXPAPB_W0@Z 
01:00018D9C ?append@messageFile@@SAXQAV1@@PB_W@Z 
01:00018DB0 ?append@messageFile@@SAXQAV1@@PB_WPAUmode_struct@stream@@@Z 
01:00018DC8 ?flush@messageFile@@SGXQAVoutputStream@@@@Z 
01:00018DD8 ?write@messageFile@@SAXQAVoutputStream@@@@Z 
01:00018E6C ?writef@messageFile@@SAXQAVoutputStream@@@PB_W@Z 
01:00018F04 ?writeQuoted@messageFile@@SAXQAVoutputStream@@@@Z 
01:00018F98 ?nl@messageFile@@SGXQAVoutputStream@@@@Z 
01:0001902C ?writeBytes@messageFile@@SGXQAVoutputStream@@@PAXPBUbyteCount@@@Z 
01:000190C4 ?save@messageFile@@SGXQAVoutputStream@@@PBUfactDB@@@Z 
01:0001915C ?setMode@messageFile@@SGXQAVstream@@@PAUmode_struct@2@@Z 
01:00019174 ?getMode@messageFile@@SGPAUmode_struct@stream@@QAV3@@@Z 
01:0001918C ?getCRLFconversion@messageFile@@SGPAUboolean_struct@_builtIn@@QAVstream@@@@Z 
01:00019194 ?setCRLFconversion@messageFile@@SGXQAVstream@@@PAUboolean_struct@_builtIn@@@Z 
01:000191BC ?close@messageFile@@SGXQAVstream@@@@Z 
01:000191CC ?getPosition@messageFile@@SGPBUfileSize@fileSystem_api@@QAVstream@@@@Z 
01:000191E4 ?setPosition@messageFile@@SGXQAVstream@@@PBUfileSize@fileSystem_api@@@Z 
01:000191FC ?_append@messageFile@@SAXPB_WPAPAVoutputStream@@@@Z  (Idle)
01:00019224 ?_append@messageFile@@SAXPB_WPAUmode_struct@stream@@PAPAVoutputStream@@@@Z  (Idle)
01:00019250 ?classInfo@inputStream_file@@SAXPAPB_W0@Z 
01:0001926C ?openFile@inputStream_file@@SAXQAV1@@PB_W@Z 
01:0001928C ?openFile8@inputStream_file@@SAXQAV1@@PB_W@Z 
01:000192AC ?openFile@inputStream_file@@SAXQAV1@@PB_WPAUmode_struct@stream@@@Z 
01:000192C0 ?_halfBufferSize@inputStream_file@@SAXQAV1@@AAUbyteCount@@@Z 
01:000192D8 ?commonPartOfConstructors@inputStream_file@@SAXQAV1@@PBUfileHandle@@PAUmode_struct@stream@@PAUboolean_struct@_builtIn@@@Z 
01:00019398 ?handlingMode@inputStream_file@@SAXQAV1@@PAUmode_struct@stream@@PAUboolean_struct@_builtIn@@@Z 
01:00019458 ?openFile@inputStream_file@@SAXQAV1@@PB_WPAUmode_struct@stream@@PAUaccessPermit_struct@fileSystem_api@@@Z 
01:00019494 ?openFile@inputStream_file@@SAXQAV1@@PB_WPAUmode_struct@stream@@PAUaccessPermit_struct@fileSystem_api@@PBUbyteCount@@@Z 
01:000194E8 ?checkBufferSize@inputStream_file@@SAXPBUbyteCount@@@Z 
01:00019518 ?newHandleFile@inputStream_file@@SAXQAV1@@PBUfileHandle@@PAUmode_struct@stream@@@Z 
01:0001954C ?newHandle@inputStream_file@@SAXQAV1@@PBUfileHandle@@PAUmode_struct@stream@@@Z 
01:00019560 ?checkUnicodeSignature@inputStream_file@@SAXQAV1@@PAUboolean_struct@_builtIn@@@Z 
01:000195EC ?getPosition@inputStream_file@@SGPBUfileSize@fileSystem_api@@QAVstream@@@@Z 
01:000196AC ?_handlingFileMode@inputStream_file@@SAXQAV1@@PAUmode_struct@stream@@PBUbyteCount@@2AAU5@@Z 
01:00019748 ?_handleTextMode@inputStream_file@@SAXQAV1@@PAUmode_struct@stream@@PBUbyteCount@@IAAU5@@Z 
01:00019850 ?_getPassedConv@inputStream_file@@SAXPAU?$__list_struct@UbyteCount@@@@IIPBU2@PAI@Z 
01:000198F0 ?setPosition@inputStream_file@@SGXQAVstream@@@PBUfileSize@fileSystem_api@@@Z 
01:00019A4C ?_checkMovingIsInsideBuffer@inputStream_file@@SAXPAPBUfileSize@fileSystem_api@@0PBUbyteCount@@2AAU6@@Z 
01:00019C78 ?_handlingSetPosition@inputStream_file@@SAXQAV1@@PAPBUfileSize@fileSystem_api@@PAAAU34@@Z 
01:00019D08 ?checkOddness@inputStream_file@@SAXPAPBUfileSize@fileSystem_api@@@Z 
01:00019D7C ?endOfStream@inputStream_file@@SAXQAVinputStream@@@@Z 
01:00019DDC ?isEndOfFile@inputStream_file@@SAXQAV1@@PAPBUfileSize@fileSystem_api@@@Z 
01:00019E44 ?close@inputStream_file@@SGXQAVstream@@@@Z 
01:00019E90 ?getCRLFconversion@inputStream_file@@SGPAUboolean_struct@_builtIn@@QAVstream@@@@Z 
01:00019ED8 ?setCRLFconversion@inputStream_file@@SGXQAVstream@@@PAUboolean_struct@_builtIn@@@Z 
01:00019FA8 ?setMode@inputStream_file@@SGXQAVstream@@@PAUmode_struct@2@@Z 
01:0001A088 ?_checkModeAndPos@inputStream_file@@SAXQAV1@@PAUmode_struct@stream@@PAPBUfileSize@fileSystem_api@@PAAAU56@@Z 
01:0001A1B4 ?exTextBufferCB@inputStream_file@@SAXQAV1@@PAPAXAAUbyteCount@@@Z 
01:0001A210 ?exTextLockBufferCB@inputStream_file@@SAXQAV1@@PAPAXAAUbyteCount@@@Z 
01:0001A274 ?_fillBuffer@inputStream_file@@SAXQAV1@@PAUmode_struct@stream@@AAUbyteCount@@@Z 
01:0001A338 ?_convertToUnicode@inputStream_file@@SAXQAV1@@PBUbyteCount@@PAUcodepage_struct@core@@PAXAAUcharCount@@@Z 
01:0001A3A0 ?convertCRLFtoLF_ifNeeded@inputStream_file@@SAXQAV1@@PAUmode_struct@stream@@PBUbyteCount@@PAPAXAAU5@@Z 
01:0001A468 ?handlingBufferLastChar@inputStream_file@@SAXQAV1@@PBUbyteCount@@PAPAXAAU3@@Z 
01:0001A4B0 ?_getAvailableCount@inputStream_file@@SAXPBUfileHandle@@AAUbyteCount@@@Z 
01:0001A4F8 ?_readFromFile@inputStream_file@@SAXQAV1@@PAXPBUbyteCount@@AAU3@@Z 
01:0001A590 ?getBuffer@inputStream_file@@SGXQAVbufferSupport@@@PAPAXAAUbyteCount@@@Z 
01:0001A5B4 ?getBufferLocked@inputStream_file@@SGXQAVbufferSupport@@@PAPAXAAUbyteCount@@@Z 
01:0001A5D8 ?_openFile@inputStream_file@@SAXPB_WPAPAVinputStream@@@@Z  (Idle)
01:0001A600 ?_openFile8@inputStream_file@@SAXPB_WPAPAVinputStream@@@@Z  (Idle)
01:0001A628 ?_openFile@inputStream_file@@SAXPB_WPAUmode_struct@stream@@PAPAVinputStream@@@@Z 
01:0001A654 ?_openFile@inputStream_file@@SAXPB_WPAUmode_struct@stream@@PAUaccessPermit_struct@fileSystem_api@@PAPAVinputStream@@@@Z 
01:0001A684 ?_openFile@inputStream_file@@SAXPB_WPAUmode_struct@stream@@PAUaccessPermit_struct@fileSystem_api@@PBUbyteCount@@PAPAVinputStream@@@@Z  (Idle)
01:0001A6B8 ?_newHandleFile@inputStream_file@@SAXPBUfileHandle@@PAUmode_struct@stream@@PAPAVinputStream@@@@Z  (Idle)
01:0001A6E4 ?_newHandle@inputStream_file@@SAXPBUfileHandle@@PAUmode_struct@stream@@PAPAVinputStream@@@@Z  (Idle)
01:0001A710 ?_commonPartOfConstructors@inputStream_file@@SAXPBUfileHandle@@PAUmode_struct@stream@@PAUboolean_struct@_builtIn@@PAPAVinputStream@@@@Z  (Idle)
01:0001A740 ?_object_facts_initializer@inputStream_file@@SGXQAV1@@@Z 
01:0001A764 ?classInfo@fileVersion@@SAXPAPB_W0@Z 
01:0001A780 ?_tryVerQueryValue@fileVersion@@SAXQAEPB_WPAPAX@Z 
01:0001A7CC ?_getFileVersionInformation@fileVersion@@SAXQAEPB_W1PAPB_W@Z 
01:0001A864 ?_loadVersionInfo@fileVersion@@SAXPB_WQAPAE@Z 
01:0001A9A0 ?_getLanguageAndCodePageKey@fileVersion@@SAXQAEPAPB_W@Z 
01:0001AA34 ?_getVersionInfo@fileVersion@@SAXPB_WPAPAUversionInformation_struct@1@@Z  (Idle)
01:0001AB0C ?_getVersionBuildTime@fileVersion@@SAXPB_WPAPB_W@Z  (Idle)
01:0001AB64 ?_getProductVersion@fileVersion@@SAXPB_WPAPA_K@Z  (Idle)
01:0001ABC8 ?_getRootKey@fileVersion@@SAXQAEPAPAUvs_fixedfileinfo_struct@1@@Z 
01:0001AC14 ?_getFileVersionInfo@fileVersion@@SAXPB_WPAPAUfileVersionInformation_struct@1@@Z  (Idle)
01:0001ACCC ?classInfo@fileSystem_exception@@SAXPAPB_W0@Z 
01:0001ACE8 ?raise_FileAlreadyExists@fileSystem_exception@@SAXXPB_W@Z 
01:0001AD5C ?raise_WrongAttribute@fileSystem_exception@@SAXXI@Z 
01:0001ADCC ?raise_FileTooBig@fileSystem_exception@@SAXXPB_W@Z 
01:0001AE40 ?fileAlreadyExists@fileSystem_exception@@SAXPAXPAPB_W1@Z 
01:0001AE68 ?wrongAttribute@fileSystem_exception@@SAXPAXPAPB_W1@Z 
01:0001AE90 ?fileTooBig@fileSystem_exception@@SAXPAXPAPB_W1@Z 
01:0001AEB8 ?checkFileReadResult@fileSystem_exception@@SAXXH@Z  (Idle)
01:0001AEF4 ?_getPath@fileName@@SAXPB_WPAPB_W@Z 
01:0001AF14 ?_getPosLastSlash@fileName@@SAXPB_WAAUcharCount@@@Z 
01:0001AF94 ?_getNameWithExtension@fileName@@SAXPB_WPAPB_W@Z  (Idle)
01:0001AFCC ?getPathAndName@fileName@@SAXPB_WPAPB_W1@Z 
01:0001B018 ?_getName1@fileName@@SAXPB_WPAPB_W@Z 
01:0001B04C ?_getLastDirectory@fileName@@SAXPB_WPAPB_W1@Z  (Idle)
01:0001B0A4 ?_removeLastSlash@fileName@@SAXPB_WPAPB_W@Z 
01:0001B128 ?_getName@fileName@@SAXPB_WPAPB_W@Z  (Idle)
01:0001B150 ?_charGet@fileName@@SAXPB_WPBUcharCountOptional@@AAU2@@Z 
01:0001B1D8 ?_getExtension@fileName@@SAXPB_WPAPB_W@Z 
01:0001B230 ?_getExtension@fileName@@SAXPB_WPAPB_W1@Z  (Idle)
01:0001B2AC ?_setPath@fileName@@SAXPB_W0PAPB_W@Z 
01:0001B2D8 ?_setName@fileName@@SAXPB_W0PAPB_W@Z  (Idle)
01:0001B334 ?_setExtension@fileName@@SAXPB_W0PAPB_W@Z  (Idle)
01:0001B43C ?_reduce@fileName@@SAXPB_W0PAPB_W@Z 
01:0001B550 ?_reduceToShort@fileName@@SAXPB_W0PAPB_W@Z  (Idle)
01:0001B59C ?getFirstDirectory@fileName@@SAXPB_WPAPB_W1@Z 
01:0001B684 ?getNetName@fileName@@SAXPB_W0PAPB_W2@Z 
01:0001B6DC ?_setTrailSlash@fileName@@SAXPB_WPAPB_W@Z 
01:0001B75C ?_getSlashList@fileName@@SAXPB_W_WPBUcharCount@@PAPAU?$__list_struct@U2@@@@Z 
01:0001B7EC ?_tail@fileName@@SAXPB_WPBUcharCount@@PAPB_W@Z 
01:0001B810 ?_getOrderedList@fileName@@SAXPAU?$__list_struct@UcharCount@@@@0PAPAU?$__list_struct@U2@@@@Z 
01:0001B8E4 ?splitPathString@fileName@@SAXPB_WPAU?$__list_struct@UcharCount@@@@PBU2@PAPAU?$__list_struct@Ustring@@@@AAU2@@Z 
01:0001B97C ?splitOntoPathAndName@fileName@@SAXPB_WPAPAU?$__list_struct@Ustring@@@@PAPB_W@Z 
01:0001BA28 ?_splitFileExt@fileName@@SAXPB_WPAPB_W@Z 
01:0001BA6C ?_splitFileName@fileName@@SAXPB_WPAPB_W@Z 
01:0001BAB8 ?_directoryCompare@fileName@@SAXPAU?$__list_struct@Ustring@@@@0PAPB_W@Z 
01:0001BB3C ?_glueRest@fileName@@SAXPAU?$__list_struct@Ustring@@@@0PAPB_W@Z 
01:0001BB90 ?splitPath@fileName@@SAXPB_WPAPAU?$__list_struct@Ustring@@@@AAUcharCount@@@Z 
01:0001BC00 ?_nameConcat@fileName@@SAXPB_W00PAPB_W@Z 
01:0001BC94 ?_createPath@fileName@@SAXPB_W0PAPB_W@Z  (Idle)
01:0001BD04 ?_reducePath@fileName@@SAXPB_WPAPB_W@Z 
01:0001BD84 ?_createPath@fileName@@SAX_WPB_W11PAPB_W@Z 
01:0001BE44 ?_concatWithSlash@fileName@@SAXPB_W0PAPB_W@Z 
01:0001BEDC ?_getTypeOfSlash@fileName@@SAXPB_W0PAPB_W@Z 
01:0001BF88 ?isSlash@fileName@@SAX_W@Z 
01:0001BFA8 ?_checkSecondCharAfterSlash@fileName@@SAXPB_W00PAPB_W@Z 
01:0001C078 ?_checkThirdCharAfterColon@fileName@@SAXPB_W_W00PAPB_W@Z 
01:0001C14C ?_reducePath@fileName@@SAX_WPB_WPAPB_W@Z 
01:0001C17C ?_applyFileName@fileName@@SAXPB_WPAU?$__list_struct@Ustring@@@@PAPAU?$__list_struct@U2@@@@Z 
01:0001C284 ?stay_dir@fileName@@SAXPB_W@Z 
01:0001C2C4 ?up_dir@fileName@@SAXPB_W@Z 
01:0001C30C ?_reducePath_reversed@fileName@@SAXPAU?$__list_struct@Ustring@@@@PAPAU?$__list_struct@U2@@@@Z 
01:0001C3F4 ?_upOneDir_reversed@fileName@@SAXPAU?$__list_struct@Ustring@@@@PAPAU?$__list_struct@U2@@@@Z 
01:0001C518 ?notDriveOrNetworkVolume@fileName@@SAXPB_W@Z 
01:0001C5D0 ?front_wc@fileName@@SAXPB_WPBUcharCount@@PAPB_W2@Z 
01:0001C60C ?_normalize@fileName@@SAXPB_WPAPB_W@Z  (Idle)
01:0001C6F0 ?up_dir@fileName@@SAXPAPB_W@Z 
01:0001C704 ?classInfo@file@@SAXPAPB_W0@Z 
01:0001C720 ?copy@file@@SAXPB_W0@Z  (Idle)
01:0001C734 ?copy@file@@SAXPB_W0PAUoverwrite_struct@1@@Z 
01:0001C7A0 ?move@file@@SAXPB_W0@Z  (Idle)
01:0001C7B4 ?move@file@@SAXPB_W0PAUoverwrite_struct@1@@Z 
01:0001C838 ?delete@file@@SAXPB_W@Z  (Idle)
01:0001C8CC ?existExactFile@file@@SAXPB_W@Z  (Idle)
01:0001C900 ?existFile@file@@SAXPB_W@Z  (Idle)
01:0001CA18 ?tryGetFile@file@@SAXPBUsearchHandle@fileSystem_native@@PAUwin32_find_data_struct@3@@Z 
01:0001CAA0 ?_createUniqueName@file@@SAXPB_W0PAPB_W@Z 
01:0001CBA4 ?_getPhysicalName@file@@SAXPB_WPAPB_W@Z  (Idle)
01:0001CCE8 ?setAttributes@file@@SAXPB_WPAU?$__list_struct@UfileAttributeAtom@@@@PAUboolean_struct@_builtIn@@@Z  (Idle)
01:0001CF28 ?getFileProperties@file@@SAXPB_WPAPAU?$__list_struct@UfileAttributeAtom@@@@PAAAUfileSize@fileSystem_api@@PAAAUgmtTimeValue@@33@Z 
01:0001D0CC ?setFileTime@file@@SAXPB_WPAPBUgmtTimeValue@@11@Z  (Idle)
01:0001D31C ?moveToRecycleBin@file@@SAXPB_W@Z  (Idle)
01:0001D48C ?_readBinary@file@@SAXPB_WQAPAE@Z 
01:0001D554 ?_readFile@file@@SAXPBUfileHandle@@PAXPBUbyteCount@@AAU3@@Z 
01:0001D5F0 ?_readBinary@file@@SAXPB_WPAPBUfileSize@fileSystem_api@@PBUbyteCount@@QAPAE@Z  (Idle)
01:0001D75C ?_readString@file@@SAXPB_WPAPB_W@Z  (Idle)
01:0001D888 ?checkUnicodeSignature@file@@SAXPB_WPBUbyteCount@@PAPB_WAAU2@@Z 
01:0001D8D8 ?_readString@file@@SAXPB_WPAPAUboolean_struct@_builtIn@@PAPB_W@Z  (Idle)
01:0001D970 ?_readStringFromHandle@file@@SAXPBUfileHandle@@PAPAUboolean_struct@_builtIn@@PAPB_W@Z 
01:0001DA9C ?isUnicode@file@@SAXPB_W@Z  (Idle)
01:0001DBA0 ?_getUnicode@file@@SAXPAXPBUbyteCount@@PAPAUboolean_struct@_builtIn@@2@Z 
01:0001DC0C ?_isUnicode@file@@SAXPAXPBUbyteCount@@PAPAUboolean_struct@_builtIn@@@Z 
01:0001DC58 ?_getString@file@@SAXPBUbyteCount@@PAXPAUboolean_struct@_builtIn@@2PAPB_W@Z 
01:0001DD28 ?_getFileSize@file@@SAXPBUfileHandle@@PB_WAAUbyteCount@@@Z 
01:0001DDA0 ?writeBinary@file@@SAXPB_WQAE@Z  (Idle)
01:0001DE50 ?writeFile@file@@SAXPBUfileHandle@@PAXPBUbyteCount@@@Z 
01:0001DE9C ?writeBinary@file@@SAXPB_WPAPBUfileSize@fileSystem_api@@QAE@Z  (Idle)
01:0001DF80 ?writeString@file@@SAXPB_W0@Z 
01:0001E05C ?appendString@file@@SAXPB_W0PAUboolean_struct@_builtIn@@@Z  (Idle)
01:0001E280 ?writeString@file@@SAXPB_W0PAUboolean_struct@_builtIn@@@Z  (Idle)
01:0001E2A4 ?writeCodedString@file@@SAXPB_W0PAUcodePage_struct@core@@@Z 
01:0001E3C4 ?checkResult@file@@SAXPBUhResult@@PB_W11PAUoverwrite_struct@1@@Z 
01:0001E708 ?fileExists_errorCode@file@@SAXPBUhResult@@@Z 
01:0001E724 ?hideUnicodeSignature@file@@SAXQAEPBUbyteCount@@PAPAXAAU2@@Z 
01:0001E7A8 ?_setDestination@file@@SAXPB_W0PAPB_W@Z 
01:0001E800 ?_toApiAttributes@file@@SAXPAU?$__list_struct@UfileAttributeAtom@@@@PAI@Z 
01:0001E828 ?checkOnLegal@file@@SAXI@Z 
01:0001E860 ?_mixAttributes@file@@SAXPAUboolean_struct@_builtIn@@IIPAI@Z 
01:0001E8AC ?checkFileHandle@file@@SAXPBUfileHandle@@PB_W@Z 
01:0001E8E0 ?closeFileHandle@file@@SAXPBUfileHandle@@@Z 
01:0001E920 ?_getStreamCheckUnicode@file@@SAXPB_WPAUboolean_struct@_builtIn@@PAPAVoutputStream@@@@Z 
01:0001E948 ?save@file@@SAXPB_WPBUfactDB@@@Z  (Idle)
01:0001E95C ?save@file@@SAXPB_WPBUfactDB@@PAUboolean_struct@_builtIn@@@Z 
01:0001E9E0 ?_checkSignature@file@@SAXQAVinputStream@@@PAPAUboolean_struct@_builtIn@@@Z 
01:0001EAA4 ?consult@file@@SAXPB_WPBUfactDB@@@Z  (Idle)
01:0001EAC4 ?consult@file@@SAXPB_WPBUfactDB@@PAPAUboolean_struct@_builtIn@@@Z 
01:0001EB60 ?reconsult@file@@SAXPB_WPBUfactDB@@@Z  (Idle)
01:0001EB80 ?reconsult@file@@SAXPB_WPBUfactDB@@PAPAUboolean_struct@_builtIn@@@Z 
01:0001EB94 ?_trySearchFileInPath@file@@SAXPB_WPAPB_W@Z  (Idle)
01:0001EBD8 ?classInfo@directory@@SAXPAPB_W0@Z 
01:0001EBF4 ?deleteDirectory@directory@@SAXPB_W@Z  (Idle)
01:0001EBFC ?makeDirectory@directory@@SAXPB_W@Z  (Idle)
01:0001EC10 ?makeDirectoryPath@directory@@SAXPB_W@Z  (Idle)
01:0001ED10 ?setCurrentDirectory@directory@@SAXPB_W@Z  (Idle)
01:0001ED18 ?_getCurrentDirectory@directory@@SAXPAPB_W@Z 
01:0001ED20 ?moveDirectory@directory@@SAXPB_W0@Z  (Idle)
01:0001ED28 ?setVolumeLabel@directory@@SAXPB_W0@Z  (Idle)
01:0001ED30 ?existDirectory@directory@@SAXPB_W@Z 
01:0001EE38 ?_dirWithoutBackslash@directory@@SAXPB_WPAPB_W@Z 
01:0001EE84 ?getDirectoryProperties@directory@@SAXPB_WPAPAU?$__list_struct@UfileAttributeAtom@@@@PAAAUgmtTimeValue@@22@Z  (Idle)
01:0001EEAC ?getVolumeProperties@directory@@SAXPB_WPAPAUvolumeType_struct@1@PAAAUfileSize@fileSystem_api@@2PAPB_WPAI@Z  (Idle)
01:0001EF04 ?_tryGetLogicalDirectory@directory@@SAXPBUdirectoryID@@PAPB_W@Z  (Idle)
01:0001EF20 ?_getLogicalDirectory@directory@@SAXPBUdirectoryID@@PAPB_W@Z  (Idle)
01:0001EF3C ?_getTemporaryDirectory@directory@@SAXPAPB_W@Z  (Idle)
01:0001EF44 ?_tryCreateLogicalDirectory@directory@@SAXPBUdirectoryID@@PAPB_W@Z  (Idle)
01:0001EF60 ?_getFilesInDirectory_nd@directory@@SAXPB_WPAPB_W@Z  (Idle)
01:0001EF80 ?_getFilesInDirectory_nd@directory@@SAXPB_W0PAPB_W@Z 
01:0001EF9C ?_getFilesInDirectory_nd@directory@@SAXPB_W0PAUboolean_struct@_builtIn@@PAPB_W@Z 
01:0001EFC4 ?_getSubDirectories_nd@directory@@SAXPB_WPAPB_W@Z 
01:0001EFE4 ?_getSubDirectories_nd@directory@@SAXPB_W0PAPB_W@Z 
01:0001F008 ?_getFilesInDirectoryAndSub_nd@directory@@SAXPB_WPAPB_W@Z  (Idle)
01:0001F028 ?_getFilesInDirectoryAndSub_nd@directory@@SAXPB_W0PAPB_W@Z 
01:0001F0B8 ?_find@directory@@SAXPB_W0IPAUboolean_struct@_builtIn@@PAPB_W@Z 
01:0001F22C ?_dirWithBackslash@directory@@SAXPB_WPAPB_W@Z 
01:0001F2A8 ?checkHiddenOrSystem@directory@@SAXPB_WPAUboolean_struct@_builtIn@@@Z 
01:0001F2C0 ?isNotHiddenOrSystem@directory@@SAXPB_W@Z 
01:0001F30C ?isSlash@directory@@SAX_W@Z 
01:0001F32C ?findNext@directory@@SAXPBUsearchHandle@fileSystem_native@@PAUwin32_find_data_struct@3@I@Z 
01:0001F3BC ?_findNext_nd@directory@@SAXPBUsearchHandle@fileSystem_native@@PAUwin32_find_data_struct@3@IPAPB_W@Z 
01:0001F4B4 ?_createFullName@directory@@SAXPB_W0PAPB_W@Z 
01:0001F560 ?_tryLogicalDirectoryBuff@directory@@SAXPBUdirectoryId@1@PAUboolean_struct@_builtIn@@PB_WPAPB_W@Z 
01:0001F6B8 ?_logicalDirectoryBuff@directory@@SAXPBUdirectoryId@1@PAUboolean_struct@_builtIn@@PB_WPAPB_W@Z 
01:0001F8D8 ?_tryLogicalDirectory@directory@@SAXPBUdirectoryId@1@PAUboolean_struct@_builtIn@@PAPB_W@Z 
01:0001F910 ?_logicalDirectory@directory@@SAXPBUdirectoryId@1@PAUboolean_struct@_builtIn@@PAPB_W@Z 
01:0001F948 ?_addNeedCreateIfNecessary@directory@@SAXPBUdirectoryId@1@PAUboolean_struct@_builtIn@@AAU21@@Z 
01:0001F984 ?_convertToVolumeType@directory@@SAXHPAPAUvolumeType_struct@1@@Z 
01:0001FA04 ?_browseForFolder@directory@@SAXPBUhwnd@@PB_W1PAUboolean_struct@_builtIn@@PAPB_W@Z  (Idle)
01:0001FAB0 ?_getBrowseForFolderFlags@directory@@SAXPAUboolean_struct@_builtIn@@PAI@Z 
01:0001FAD4 ?browseForFolderCallback@directory@@SGHPBUhwnd@@III@Z 
01:0001FCB8 outputStream_file?_initObject@@@QAGXQAV1@H@Z 
01:0001FCEC ?@create_object@outputStream_file@@SGQAV1@@XZ 
01:0001FD08 outputStream_file?_InternalFinalizer@@@QAGXQAV1@@Z 
01:0001FD20 messageFile?_initObject@@@QAGXQAV1@H@Z 
01:0001FD34 ?@create_object@messageFile@@SGQAV1@@XZ 
01:0001FD50 messageFile?_InternalFinalizer@@@QAGXQAV1@@Z 
01:0001FED8 inputStream_file?_initObject@@@QAGXQAV1@H@Z 
01:0001FF0C ?@create_object@inputStream_file@@SGQAV1@@XZ 
01:0001FF28 inputStream_file?_InternalFinalizer@@@QAGXQAV1@@Z 
--- From 'Obj\math.D326B71E.obj'
01:0001FF40 ?classInfo@math_exception@@SAXPAPB_W0@Z 
01:0001FF5C ?raise_asinOutOfBounds@math_exception@@SAXXPAN@Z 
01:0001FFD0 ?asinOutOfBounds@math_exception@@SAXPAXPAPB_W1@Z 
01:0001FFF8 ?raise_acoshOutOfBounds@math_exception@@SAXXPAN@Z 
01:0002006C ?acoshOutOfBounds@math_exception@@SAXPAXPAPB_W1@Z 
01:00020094 ?raise_atanhOutOfBounds@math_exception@@SAXXPAN@Z 
01:00020108 ?atanhOutOfBounds@math_exception@@SAXPAXPAPB_W1@Z 
01:00020130 ?raise_acotanhOutOfBounds@math_exception@@SAXXPAN@Z 
01:000201A4 ?acotanhOutOfBounds@math_exception@@SAXPAXPAPB_W1@Z 
01:000201CC ?raise_cotanhInfinityResult@math_exception@@SAXXPAN@Z 
01:00020240 ?cotanhInfinityResult@math_exception@@SAXPAXPAPB_W1@Z 
01:00020268 ?classInfo@math@@SAXPAPB_W0@Z 
01:00020284 ?check_asin_nearBounds@math@@SAXPAPBUinCircle@@@Z 
01:000202C8 ?_getBoundsForValue@math@@SAXPAPBUinCircle@@PAPAN@Z 
01:000202FC ?_arcsin@math@@SAXPAPBUinCircle@@PAPAN@Z 
01:00020454 ?_sinh@math@@SAXPANPAPAN@Z 
01:000204C8 ?_tryToUnsigned@math@@SAXPB_WPAI@Z  (Idle)
01:000204E4 ?_tryToInteger@math@@SAXPB_WPAH@Z  (Idle)
01:00020500 ?_tryToReal@math@@SAXPB_WPAPAN@Z  (Idle)
01:0002051C ?_toUnsigned@math@@SAXPB_WPAI@Z  (Idle)
01:00020538 ?_toInteger@math@@SAXPB_WPAH@Z  (Idle)
01:00020554 ?_toReal@math@@SAXPB_WPAPAN@Z  (Idle)
01:00020570 ?_prepareResultForBigValue@math@@SAXPANPAAAUuReal@@@Z 
01:000206CC ?_arcsinh@math@@SAXPANPAPAN@Z  (Idle)
01:00020720 ?_arccos@math@@SAXPAPBUinCircle@@PAPAN@Z  (Idle)
01:0002076C ?_cosh@math@@SAXPANPAAAUuReal@@@Z 
01:000207F8 ?_prepareResultForValue@math@@SAXPAPBUuReal@@PAAAU2@@Z 
01:00020918 ?_arccosh@math@@SAXPAPBUuReal@@PAPAN@Z  (Idle)
01:00020990 ?_get_tanhBoundsForValue@math@@SAXPANPAAAUinCircle@@@Z 
01:000209C4 ?_tanh@math@@SAXPANPAAAUinCircle@@@Z  (Idle)
01:00020A78 ?_arctanh@math@@SAXPAPBUinCircle@@PAPAN@Z  (Idle)
01:00020B2C ?_cotanh@math@@SAXPANPAPAN@Z  (Idle)
01:00020BF0 ?_arccotanh@math@@SAXPANPAPAN@Z  (Idle)
01:00020CA0 ?_sqr@math@@SAXPANPAAAUuReal@@@Z 
01:00020CF4 ?_round@math@@SAXPANPAH@Z  (Idle)
01:00020D30 ?_roundToUnsigned@math@@SAXPANPAI@Z  (Idle)
01:00020D6C ?_roundToInteger64@math@@SAXPANPAPA_J@Z  (Idle)
01:00020DC8 ?_roundToUnsigned64@math@@SAXPANPAPA_K@Z  (Idle)
01:00020E24 ?_trunc@math@@SAXPANPAH@Z  (Idle)
01:00020E60 ?_fraction@math@@SAXPANPAPAN@Z  (Idle)
01:00020EB0 ?_ceil@math@@SAXPANPAH@Z 
01:00020EE8 ?_ceilToReal@math@@SAXPANPAPAN@Z 
01:00020F98 ?_floor@math@@SAXPANPAH@Z  (Idle)
01:00020FE0 ?_floorToReal@math@@SAXPANPAPAN@Z  (Idle)
--- From 'Obj\binary.5C1BA76F.obj'
01:00021040 ?_max@math@@SAXHHPAH@Z 
--- From 'Obj\math.D326B71E.obj'
01:00021064 ?_max@math@@SAXHHHPAH@Z  (Idle)
01:00021094 ?_min@math@@SAXHHPAH@Z 
01:000210B8 ?_min@math@@SAXHHHPAH@Z  (Idle)
01:000210E8 ?_restrict@math@@SAXHHHPAH@Z  (Idle)
01:0002111C ?divides_dt@math@@SAXHH@Z  (Idle)
01:00021158 ?_power64i@math@@SAXPA_JIPAPA_J@Z  (Idle)
01:00021160 ?_power64u@math@@SAXPA_KIPAPA_K@Z  (Idle)
01:00021168 ?_power64iu@math@@SAXPA_JIPAPA_J@Z 
01:000211C0 ?_power64acc@math@@SAXPA_JI0PAPA_J@Z 
01:000212BC ?_max@math@@SAXIIPAI@Z 
01:000212E0 ?_max@math@@SAXPANPANPAPAN@Z 
01:00021318 ?_max@math@@SAXMMPAM@Z 
01:0002137C ?_max@math@@SAXIIIPAI@Z  (Idle)
01:000213AC ?_max@math@@SAXPANPANPANPAPAN@Z  (Idle)
01:000213DC ?_max@math@@SAXMMMPAM@Z  (Idle)
01:00021418 ?_min@math@@SAXIIPAI@Z 
01:0002143C ?_min@math@@SAXPANPANPAPAN@Z 
01:00021474 ?_min@math@@SAXMMPAM@Z 
01:000214D8 ?_min@math@@SAXIIIPAI@Z  (Idle)
01:00021508 ?_min@math@@SAXPANPANPANPAPAN@Z  (Idle)
01:00021538 ?_min@math@@SAXMMMPAM@Z  (Idle)
01:00021574 ?_restrict@math@@SAXIIIPAI@Z  (Idle)
01:000215A8 ?_restrict@math@@SAXPANPANPANPAPAN@Z  (Idle)
01:000215DC ?divides_dt@math@@SAXII@Z  (Idle)
01:000215F8 ?_power64iu@math@@SAXPA_KIPAPA_K@Z 
01:00021650 ?_power64acc@math@@SAXPA_KI0PAPA_K@Z 
--- From 'Obj\memory.75BC8824.obj'
01:00021750 ?classInfo@weakPointer@@SAXPAPB_W0@Z  (Idle)
01:0002176C ?new@weakPointer@@SAXQAV1@@PAX@Z 
01:000217A8 ?newPredicate@weakPointer@@SAXQAV1@@PAX@Z 
01:00021840 ?_tryDeref@weakPointer@@SAXQAV1@@PAPAX@Z 
01:0002193C ?finalize@weakPointer@@SGXQAV1@@@Z 
01:000219C4 ?_new@weakPointer@@SAXPAXPAPAV1@@@Z  (Idle)
01:000219EC ?_newPredicate@weakPointer@@SAXPAXPAPAV1@@@Z  (Idle)
01:00021A14 ?_object_facts_initializer@weakPointer@@SGXQAV1@@@Z 
--- From 'Obj\string.F4C46458.obj'
01:00021A2C ?_append@memory@@SAXPAXPAXPBUbyteCount@@PAPAX@Z 
--- From 'Obj\memory.75BC8824.obj'
01:00021A54 ?isReadable@memory@@SAXPAX@Z 
01:00021A68 ?isReadable@memory@@SAXPAXPBUbyteCount@@@Z 
01:00021A88 ?isWritable@memory@@SAXPAX@Z  (Idle)
01:00021A9C ?isWritable@memory@@SAXPAXPBUbyteCount@@@Z 
01:00021ABC ?_allocHeap@memory@@SAXPBUbyteCount@@PAPAX@Z  (Idle)
--- From 'Obj\binary.5C1BA76F.obj'
01:00021AD8 ?_allocHeapProfile@memory@@SAXPBUbyteCount@@PBUcontext@@PAPAX@Z 
--- From 'Obj\memory.75BC8824.obj'
01:00021B04 ?_allocAtomicHeap@memory@@SAXPBUbyteCount@@PAPAX@Z 
--- From 'Obj\systemInformation_api.671D1739.obj'
01:00021B20 ?_allocAtomicHeapProfile@memory@@SAXPBUbyteCount@@PBUcontext@@PAPAX@Z 
--- From 'Obj\memory.75BC8824.obj'
01:00021B3C ?_allocUncollectableHeap@memory@@SAXPBUbyteCount@@PAPAX@Z  (Idle)
01:00021B58 ?_allocUncollectableHeapProfile@memory@@SAXPBUbyteCount@@PBUcontext@@PAPAX@Z 
01:00021B84 ?_allocString@memory@@SAXPBUcharCount@@PAPB_W@Z  (Idle)
01:00021B9C ?_allocStringProfile@memory@@SAXPBUcharCount@@PBUcontext@@PAPB_W@Z  (Idle)
01:00021BE0 ?_allocStringBuffer@memory@@SAXPBUcharCount@@PAPB_W@Z 
--- From 'Obj\binary.5C1BA76F.obj'
01:00021BFC ?_allocStringBufferProfile@memory@@SAXPBUcharCount@@PBUcontext@@PAPB_W@Z 
--- From 'Obj\memory.75BC8824.obj'
01:00021C20 ?_getChar@memory@@SAXPAXPA_W@Z 
--- From 'Obj\binary.5C1BA76F.obj'
01:00021C38 ?_getReal@memory@@SAXPAXPAPAN@Z 
01:00021C64 ?setReal@memory@@SGXPAXN@Z 
01:00021CA0 ?_getReal32@memory@@SAXPAXPAM@Z 
01:00021CB4 ?_getInteger8@memory@@SAXPAXAAUinteger8@@@Z 
01:00021CCC ?_getInteger16@memory@@SAXPAXAAUinteger16@@@Z 
01:00021CE4 ?_getInteger32@memory@@SAXPAXAAUinteger32@@@Z 
01:00021CF8 ?_getInteger@memory@@SAXPAXPAH@Z 
01:00021D0C ?_getInteger64@memory@@SAXPAXPAPA_J@Z 
01:00021D44 ?_getUnsigned8@memory@@SAXPAXAAUunsigned8@@@Z 
01:00021D5C ?_getUnsigned16@memory@@SAXPAXAAUunsigned16@@@Z 
01:00021D74 ?_getUnsigned32@memory@@SAXPAXAAUunsigned32@@@Z 
01:00021D88 ?_getUnsigned@memory@@SAXPAXPAI@Z 
01:00021D9C ?_getByteCount@memory@@SAXPAXAAUbyteCount@@@Z 
01:00021DB0 ?_getPointer@memory@@SAXPAXPAPAX@Z 
--- From 'Obj\memory.75BC8824.obj'
01:00021DC4 ?_getHandle@memory@@SAXPAXAAUhandle@@@Z  (Idle)
--- From 'Obj\binary.5C1BA76F.obj'
01:00021DD8 ?_getUnsigned64@memory@@SAXPAXPAPA_K@Z 
01:00021E10 ?setInteger64@memory@@SAXPAXPA_J@Z 
01:00021E28 ?setUnsigned64@memory@@SAXPAXPA_K@Z 
01:00021E40 ?_pointerAdd@memory@@SAXQAVrTypeLibrary@TypeLibraries@RunTime@VIP@@PAXPBUbyteOffset@@PAPAX@Z 
--- From 'Obj\multiThread_api.F2BE0D3B.obj'
01:00021E58 ?isNull@memory@@SAXQAVrTypeLibrary@TypeLibraries@RunTime@VIP@@PAX@Z 
--- From 'Obj\memory.75BC8824.obj'
01:00021E70 ?_mk_pChar@memory@@SAX_WPAPAUpChar_struct@1@@Z  (Idle)
01:00021E98 ?_mk_pInteger8@memory@@SAXPBUinteger8@@PAPAUpInteger8_struct@1@@Z  (Idle)
01:00021EBC ?_mk_pInteger16@memory@@SAXPBUinteger16@@PAPAUpInteger16_struct@1@@Z  (Idle)
01:00021EE4 ?_mk_pInteger@memory@@SAXHPAPAUpInteger_struct@1@@Z  (Idle)
01:00021F08 ?_mk_pInteger64@memory@@SAXPA_JPAPAUpInteger64_struct@1@@Z  (Idle)
01:00021F44 ?_mk_pUnsigned8@memory@@SAXPBUunsigned8@@PAPAUpUnsigned8_struct@1@@Z  (Idle)
01:00021F68 ?_mk_pUnsigned16@memory@@SAXPBUunsigned16@@PAPAUpUnsigned16_struct@1@@Z  (Idle)
01:00021F90 ?_mk_pUnsigned@memory@@SAXIPAPAUpUnsigned_struct@1@@Z  (Idle)
01:00021FB4 ?_mk_pUnsigned64@memory@@SAXPA_KPAPAUpUnsigned64_struct@1@@Z  (Idle)
01:00021FF0 ?_mk_pReal32@memory@@SAXMPAPAUpReal32_struct@1@@Z  (Idle)
01:00022014 ?_mk_pReal@memory@@SAXPANPAPAUpReal_struct@1@@Z  (Idle)
01:00022044 ?_mk_pPointer@memory@@SAXPAXPAPAUpPointer_struct@1@@Z  (Idle)
01:0002206C ?_mk_pHandle@memory@@SAXPBUhandle@@PAPAUpHandle_struct@1@@Z  (Idle)
01:00022090 ?_mk_pByteCount@memory@@SAXPBUbyteCount@@PAPAUpByteCount_struct@1@@Z  (Idle)
01:000220B4 ?_mk_pCharCount@memory@@SAXPBUcharCount@@PAPAUpCharCount_struct@1@@Z  (Idle)
01:000220D8 ?_deref_pChar@memory@@SAXPAUpChar_struct@1@PA_W@Z  (Idle)
01:000220F0 ?_deref_pInteger8@memory@@SAXPAUpInteger8_struct@1@AAUinteger8@@@Z  (Idle)
01:00022104 ?_deref_pInteger16@memory@@SAXPAUpInteger16_struct@1@AAUinteger16@@@Z  (Idle)
01:0002211C ?_deref_pInteger@memory@@SAXPAUpInteger_struct@1@PAH@Z  (Idle)
01:00022130 ?_deref_pInteger64@memory@@SAXPAUpInteger64_struct@1@PAPA_J@Z 
01:00022168 ?_deref_pUnsigned8@memory@@SAXPAUpUnsigned8_struct@1@AAUunsigned8@@@Z  (Idle)
01:0002217C ?_deref_pUnsigned16@memory@@SAXPAUpUnsigned16_struct@1@AAUunsigned16@@@Z  (Idle)
01:00022194 ?_deref_pUnsigned@memory@@SAXPAUpUnsigned_struct@1@PAI@Z  (Idle)
01:000221A8 ?_deref_pUnsigned64@memory@@SAXPAUpUnsigned64_struct@1@PAPA_K@Z 
01:000221E0 ?_deref_pReal32@memory@@SAXPAUpReal32_struct@1@PAM@Z  (Idle)
01:000221F4 ?_deref_pReal@memory@@SAXPAUpReal_struct@1@PAPAN@Z  (Idle)
01:00022220 ?_deref_pPointer@memory@@SAXPAUpPointer_struct@1@PAPAX@Z  (Idle)
01:00022234 ?_deref_pHandle@memory@@SAXPAUpHandle_struct@1@AAUhandle@@@Z  (Idle)
01:00022248 ?_deref_pByteCount@memory@@SAXPAUpByteCount_struct@1@AAUbyteCount@@@Z  (Idle)
01:0002225C ?_deref_pCharCount@memory@@SAXPAUpCharCount_struct@1@AAUcharCount@@@Z  (Idle)
01:00022270 ?_bitOr@bit@@SAXIIIPAI@Z  (Idle)
01:00022298 ?_bitOr@bit@@SAXIIIIPAI@Z 
01:000222D0 ?_bitOr@bit@@SAXIIIIIPAI@Z  (Idle)
01:00022314 ?_bitOrList@bit@@SAXPAU?$__list_struct@Uunsigned@@@@PAI@Z  (Idle)
01:00022330 ?bitOrList_Tail@bit@@SAXPAU?$__list_struct@Uunsigned@@@@IPAI@Z 
01:00022380 ?_getLow4of8@bit@@SAXPBUunsigned8@@AAUunsigned4@@@Z 
01:000223B4 ?_setLow4of8@bit@@SAXPBUunsigned8@@PBUunsigned4@@AAU2@@Z  (Idle)
01:00022418 ?_getHigh4of8@bit@@SAXPBUunsigned8@@AAUunsigned4@@@Z 
01:00022460 ?_setHigh4of8@bit@@SAXPBUunsigned8@@PBUunsigned4@@AAU2@@Z  (Idle)
01:000224D4 ?_swap4of8@bit@@SAXPBUunsigned8@@AAU2@@Z  (Idle)
01:00022544 ?_getLow8of16@bit@@SAXPBUunsigned16@@AAUunsigned8@@@Z 
01:0002257C ?_setLow8of16@bit@@SAXPBUunsigned16@@PBUunsigned8@@AAU2@@Z  (Idle)
01:000225C8 ?_getHigh8of16@bit@@SAXPBUunsigned16@@AAUunsigned8@@@Z 
01:00022610 ?_setHigh8of16@bit@@SAXPBUunsigned16@@PBUunsigned8@@AAU2@@Z  (Idle)
01:00022670 ?_swap8of16@bit@@SAXPBUunsigned16@@AAU2@@Z  (Idle)
01:000226E4 ?_getLow16of32@bit@@SAXIAAUunsigned16@@@Z 
01:00022714 ?_setLow16of32@bit@@SAXIPBUunsigned16@@PAI@Z 
01:00022748 ?_getHigh16of32@bit@@SAXIAAUunsigned16@@@Z 
01:00022788 ?_setHigh16of32@bit@@SAXIPBUunsigned16@@PAI@Z 
01:000227D8 ?_swap16of32@bit@@SAXIPAI@Z 
01:00022838 ?_toBigEndian@bit@@SAXIPAI@Z  (Idle)
01:000228EC ?_bitSplit@bit@@SAXIPAPAU?$__list_struct@Uunsigned@@@@@Z 
01:00022958 ?getUnsigned32bytes@bit@@SAXPBUunsigned32@@AAUunsigned16@@1@Z  (Idle)
01:00022994 ?getUnsigned64bytes@bit@@SAXPA_KPAIPAI@Z  (Idle)
01:000229B4 ?getInteger64bytes@bit@@SAXPA_JPAIPAH@Z  (Idle)
01:000229D4 ?_mkUnsigned32@bit@@SAXPBUunsigned16@@0PAI@Z 
01:00022A08 ?_mkInteger32@bit@@SAXPBUunsigned16@@PBUinteger16@@PAH@Z  (Idle)
01:00022A44 ?_mkUnsigned64@bit@@SAXIIPAPA_K@Z  (Idle)
01:00022A94 ?_mkInteger64@bit@@SAXIHPAPA_J@Z  (Idle)
01:00022AEC weakPointer?_initObject@@@QAGXQAV1@H@Z 
01:00022B0C ?@create_object@weakPointer@@SGQAV1@@XZ 
01:00022B28 weakPointer?_InternalFinalizer@@@QAGXQAV1@@Z 
--- From 'Obj\string.F4C46458.obj'
01:00022B70 ?classInfo@string_exception@@SAXPAPB_W0@Z 
01:00022B8C ?emptyString@string_exception@@SAXPAXPAPB_W1@Z 
--- From 'Obj\outputStreamSupport.F4FF31D0.obj'
01:00022BB4 ?format_exceptionHandler@string_exception@@SAXPBUtraceId@3@PB_W@Z 
--- From 'Obj\string.F4C46458.obj'
01:00022C9C ?outOfBoundaries@string_exception@@SAXPAXPAPB_W1@Z 
01:00022CC4 ?oddOffset@string_exception@@SAXPAXPAPB_W1@Z 
01:00022CEC ?raise_EmptyString@string_exception@@SAXX@Z 
01:00022D04 ?raise_OutOfBoundaries@string_exception@@SAXXPBUcharCount@@1@Z 
01:00022DC4 ?raise_OddOffset@string_exception@@SAXXPBUbyteCount@@@Z 
01:00022E34 ?classInfo@string@@SAXPAPB_W0@Z 
01:00022E50 ?_create@string@@SAXPBUcharCount@@PB_WPAPB_W@Z 
01:00022E98 ?_tryCreate@string@@SAXPBUcharCount@@PB_WPAPB_W@Z 
--- From 'Obj\systemInformation_api.671D1739.obj'
01:00022EF0 ?_createCopy@string@@SAXPB_WPAPB_W@Z 
--- From 'Obj\string.F4C46458.obj'
01:00022F70 ?hasSuffix@string@@SAXPB_W0PAPB_W@Z  (Idle)
01:00022FD4 ?hasPrefix@string@@SAXPB_W0PAPB_W@Z  (Idle)
01:00023004 ?_hasPrefixPtr@string@@SAXPAUpChar_struct@memory@@0PAPAU23@@Z 
--- From 'Obj\runTime_api.6CC3F910.obj'
01:000230A0 ?_concat@string@@SAXPB_W0PAPB_W@Z 
--- From 'Obj\string.F4C46458.obj'
01:00023118 ?_concat@string@@SAXPB_W00PAPB_W@Z 
01:000231C0 ?_concat@string@@SAXPB_W000PAPB_W@Z  (Idle)
01:000231E8 ?_concat@string@@SAXPB_W0000PAPB_W@Z  (Idle)
01:00023208 ?_concat@string@@SAXPB_W00000PAPB_W@Z 
01:00023358 ?_concatList@string@@SAXPAU?$__list_struct@U1@@@PAPB_W@Z 
01:000233F0 ?_concatWithDelimiter@string@@SAXPAU?$__list_struct@U1@@@PB_WPAPB_W@Z  (Idle)
01:00023514 ?concatListWithDelimiter_inner@string@@SAXPAXPAU?$__list_struct@U1@@@PAXPBUbyteCount@@PAU?$__list_struct@UcharCount@@@@@Z 
01:000235C4 ?_copyDelimiterIfNeeded@string@@SAXPAXPAU?$__list_struct@U1@@@PAXPBUbyteCount@@PAPAX@Z 
01:000235FC ?getStringListInfo@string@@SAXPAU?$__list_struct@U1@@@PBUpositive@@1AAU3@3PAPAU?$__list_struct@UcharCount@@@@@Z 
01:000236A0 ?concatStringList@string@@SAXPAXPAU?$__list_struct@U1@@@PAU?$__list_struct@UcharCount@@@@@Z 
--- From 'Obj\namedValue.0E580094.obj'
01:00023760 ?equalIgnoreCase@string@@SAXPB_W0@Z 
--- From 'Obj\string.F4C46458.obj'
01:00023790 ?equalIgnoreCase@string@@SAXPB_W0I@Z  (Idle)
01:000237B8 ?_compareIgnoreCase@string@@SAXPB_W0PAPAUcompareResult_struct@_builtIn@@@Z  (Idle)
01:0002390C ?_compareIgnoreCase@string@@SAXPB_W0IPAPAUcompareResult_struct@_builtIn@@@Z  (Idle)
01:00023A58 ?_adjustRight@string@@SAXPB_WPBUcharCount@@PAPB_W@Z 
01:00023A78 ?_adjustRight@string@@SAXPB_WPBUcharCount@@0PAPB_W@Z 
01:00023A94 ?_adjustRight@string@@SAXPB_WPBUcharCount@@0PAUadjustBehaviour_struct@1@PAPB_W@Z 
01:00023B04 ?_adjustLeft@string@@SAXPB_WPBUcharCount@@PAPB_W@Z 
01:00023B24 ?_adjustLeft@string@@SAXPB_WPBUcharCount@@0PAPB_W@Z 
01:00023B40 ?_adjust@string@@SAXPB_WPBUcharCount@@PAUadjustSide_struct@1@PAPB_W@Z  (Idle)
01:00023B68 ?_adjust@string@@SAXPB_WPBUcharCount@@0PAUadjustSide_struct@1@PAPB_W@Z  (Idle)
01:00023B90 ?_adjust@string@@SAXPB_WPBUcharCount@@0PAUadjustBehaviour_struct@1@PAUadjustSide_struct@1@PAPB_W@Z  (Idle)
01:00023BB8 ?_crop@string@@SAXPB_WPBUcharCount@@PAUadjustSide_struct@1@PAUadjustBehaviour_struct@1@PAPB_W@Z 
01:00023C5C ?_adjustLeft@string@@SAXPB_WPBUcharCount@@0PAUadjustBehaviour_struct@1@PAPB_W@Z 
01:00023CBC ?_split@string@@SAXPB_W0PAPAU?$__list_struct@U1@@@@Z 
--- From 'Obj\runTime_api.6CC3F910.obj'
01:00023D58 ?format@string@@SAPB_W0@Z 
--- From 'Obj\string.F4C46458.obj'
01:00023DB4 ?write@string@@SAPB_WXZ 
01:00023DCC ?_rear@string@@SAXPB_WPBUcharCount@@PAPB_W@Z  (Idle)
01:00023E28 ?_fromPosition@string@@SAXPB_WPBUcharCount@@PAPB_W@Z 
01:00023E5C ?front1@string@@SAXPB_WPA_WPAPB_W@Z 
01:00023E80 ?front_wc@string@@SAXPB_WPBUcharCount@@PAPB_W2@Z 
01:00023EB8 ?front@string@@SAXPB_WPBUcharCount@@PAPB_W2@Z 
01:00023F00 ?tryFront@string@@SAXPB_WPBUcharCount@@PAPB_W2@Z 
01:00023F40 ?checkPosition@string@@SAXPBUcharCount@@PB_W@Z 
01:00023FA4 ?_frontChar@string@@SAXPB_WPA_W@Z 
01:00023FBC ?_tryFrontChar@string@@SAXPB_WPA_W@Z  (Idle)
01:00023FE0 ?frontChar@string@@SAXPB_WPA_WPAPB_W@Z 
01:0002400C ?_tryLastChar@string@@SAXPB_WPA_W@Z 
01:00024044 ?lastChar@string@@SAXPB_WPAPB_WPA_W@Z 
01:00024098 ?_toCharList@string@@SAXPB_WPAPAU?$__list_struct@Uchar@@@@@Z 
01:00024104 ?frontToken@string@@SAXPB_WPAPB_W1@Z 
01:00024124 ?isValidToRead@string@@SAXPB_W@Z  (Idle)
01:00024144 ?_replaceFirst@string@@SAXPB_W00PAUcaseSensitivity_struct@1@PAPB_W@Z  (Idle)
01:00024178 ?_replaceAll@string@@SAXPB_W00PAPB_W@Z 
01:00024194 ?_replaceAll@string@@SAXPB_W00PAUcaseSensitivity_struct@1@PAPB_W@Z 
01:000241C8 ?_replaceAll@string@@SAXPB_W00PAUcaseSensitivity_struct@1@PAIPAPB_W@Z  (Idle)
01:00024200 ?_caseToInteger@string@@SAXPAUcaseSensitivity_struct@1@PAH@Z 
01:00024230 ?_replacePart@string@@SAXPB_WPBUcharCount@@10PAPB_W@Z  (Idle)
01:000242FC ?_tryReplacePart@string@@SAXPB_WPBUcharCount@@10PAPB_W@Z  (Idle)
01:000243C4 ?_search@string@@SAXPB_W0AAUcharCount@@@Z  (Idle)
01:00024400 ?_search@string@@SAXPB_W0PAUcaseSensitivity_struct@1@AAUcharCount@@@Z 
01:000244C0 ?_searchLast@string@@SAXPB_W0PAUcaseSensitivity_struct@1@AAUcharCount@@@Z  (Idle)
01:00024580 ?_subString@string@@SAXPB_WPBUcharCount@@1PAPB_W@Z 
01:000245CC ?_trySubString@string@@SAXPB_WPBUcharCount@@1PAPB_W@Z  (Idle)
01:00024610 ?_toUpperCase@string@@SAXPB_WPAPB_W@Z 
01:00024634 ?_toLowerCase@string@@SAXPB_WPAPB_W@Z 
01:00024658 ?isUpperCase@string@@SAXPB_W@Z  (Idle)
01:00024690 ?isLowerCase@string@@SAXPB_W@Z  (Idle)
01:000246C8 ?hasDecimalDigits@string@@SAXPB_W@Z  (Idle)
01:000246E4 ?isDecimalDigits@string@@SAXPB_W@Z 
01:00024738 ?decimalDigit@string@@SAX_W@Z 
01:0002475C ?hasAlpha@string@@SAXPB_W@Z  (Idle)
01:00024784 ?isWhiteSpace@string@@SAXPB_W@Z  (Idle)
01:0002478C ?_split_delimiter@string@@SAXPB_W0PAPAU?$__list_struct@U1@@@@Z  (Idle)
01:000247B8 ?_splitByString@string@@SAXPB_W0PBUcharCount@@PAPAU?$__list_struct@U1@@@@Z 
01:00024860 ?_split_length@string@@SAXPB_WPAU?$__list_struct@UcharCount@@@@PAPAU?$__list_struct@U1@@@@Z 
01:000248FC ?_trim@string@@SAXPB_WPAPB_W@Z 
01:00024920 ?_charToString@string@@SAX_WPAPB_W@Z 
01:0002494C ?_charUpper@string@@SAX_WPA_W@Z  (Idle)
01:00024968 ?_charLower@string@@SAX_WPA_W@Z  (Idle)
01:00024984 ?splitStringBySeparators@string@@SAXPB_W0PAPB_WPA_W2@Z 
01:000249E4 ?_getMinPosition@string@@SAXPB_W0PBUcharCount@@AAU2@@Z 
01:00024A58 ?isName@string@@SAXPB_W@Z  (Idle)
01:00024AAC ?isLegalFrontCharOfName@string@@SAX_W@Z 
01:00024AE0 ?isCorrectRemainderOfName@string@@SAXPB_W@Z 
01:00024B34 ?isCorrectRemainderCharOfName@string@@SAX_W@Z 
01:00024B6C ?isClassIdentifier@string@@SAXPB_W0@Z  (Idle)
01:00024BD8 ?isObjectIdentifier@string@@SAXPB_W0@Z  (Idle)
01:00024C54 ?isCorrectMemberName@string@@SAXPB_W@Z 
01:00024CE8 ?keywordString@string@@SAXPB_WPAPAUboolean_struct@_builtIn@@@Z 
01:00025570 ?isCorrectClassFrontChar@string@@SAX_W@Z 
01:000255A4 ?_searchChar@string@@SAXPB_W_WAAUcharCount@@@Z 
01:000255C8 ?_searchChar@string@@SAXPB_W_WPAUcaseSensitivity_struct@1@AAUcharCount@@@Z 
01:00025654 ?_subchar@string@@SAXPB_WPBUcharCount@@PA_W@Z  (Idle)
01:00025694 ?_trySubchar@string@@SAXPB_WPBUcharCount@@PA_W@Z  (Idle)
01:000256CC ?_getCharValue@string@@SAX_WAAUunsigned16@@@Z  (Idle)
01:000256E0 ?_getCharFromValue@string@@SAXPBUunsigned16@@PA_W@Z  (Idle)
01:000256F4 ?listToArray@string@@SAXPAU?$__list_struct@U1@@@PAPAXPAI@Z  (Idle)
01:0002575C ?_arrayToList@string@@SAXPAXIPAPAU?$__list_struct@U1@@@@Z  (Idle)
01:00025770 ?fillArray@string@@SAXPAXPAU?$__list_struct@U1@@@@Z 
01:000257DC ?_fillList@string@@SAXPBUunsignedNative@@IPAPAU?$__list_struct@U1@@@@Z 
01:00025840 ?_createFromCharList@string@@SAXPAU?$__list_struct@Uchar@@@@PAPB_W@Z  (Idle)
01:00025888 ?fillString@string@@SAXPB_WPAU?$__list_struct@Uchar@@@@@Z 
01:00025900 isWhiteSpace_C 
01:00025940 isWhiteSpace_S 
01:0002599C ?_last@string@@SAXPB_WPBUcharCount@@PAPB_W@Z  (Idle)
01:000259A4 ?isWhiteSpace@string@@SAX_W@Z  (Idle)
01:000259AC ?keywordString@string@@SAXPB_WPAUboolean_struct@_builtIn@@@Z  (Idle)
01:00026308 ?keywordString@string@@SAXPAPB_WPAPAUboolean_struct@_builtIn@@@Z  (Idle)
01:00026A1C ?classInfo@outputStream_string@@SAXPAPB_W0@Z 
01:00026A38 ?new@outputStream_string@@SAXQAV1@@@Z 
01:00026B1C ?setMode@outputStream_string@@SGXQAVstream@@@PAUmode_struct@2@@Z 
01:00026B5C ?flush@outputStream_string@@SGXQAVoutputStream@@@@Z 
01:00026B6C ?resetString@outputStream_string@@SAXQAV1@@@Z 
01:00026C34 ?close@outputStream_string@@SGXQAVstream@@@@Z 
01:00026C7C ?bufferFullCallBack@outputStream_string@@SAXQAV1@@PAPAXAAUbyteCount@@@Z 
01:00026CF4 ?get_buffer_from_db@outputStream_string@@SAXQAV1@@IPAPAXAAUbyteCount@@@Z 
01:00026D70 ?_getString@outputStream_string@@SAXQAV1@@PAPB_W@Z 
01:00026E68 ?writeBuffersToString@outputStream_string@@SAXQAV1@@PBUintegerNative@@@Z 
01:00026EE4 ?getPosition@outputStream_string@@SGPBUfileSize@fileSystem_api@@QAVstream@@@@Z 
01:00026FA0 ?setPosition@outputStream_string@@SGXQAVstream@@@PBUfileSize@fileSystem_api@@@Z 
01:00027020 ?checkOddness@outputStream_string@@SAXPAUmode_struct@stream@@PBUbyteCount@@@Z 
01:0002705C ?handleSetOffset@outputStream_string@@SAXQAV1@@PBUbyteCount@@@Z 
01:000270E4 ?updateCurrentBuffer@outputStream_string@@SAXQAV1@@@Z 
01:00027248 ?findBufferForOffset@outputStream_string@@SAXQAV1@@PBUbyteCount@@PAIPAPAXAAU3@4@Z 
01:000272D4 ?handleBiggerOffset@outputStream_string@@SAXQAV1@@PBUbyteCount@@@Z 
01:0002745C ?_newBuffer@outputStream_string@@SAXQAV1@@PBUbyteCount@@PAPAX@Z 
01:000274E8 ?_getSizeBefore@outputStream_string@@SAXQAV1@@AAUbyteCount@@@Z 
01:00027578 ?bufferNotFound_exception@outputStream_string@@SAXI@Z 
01:000275BC ?checkUsePrevBuff@outputStream_string@@SAXQAV1@@@Z 
01:00027618 ?getBuffer@outputStream_string@@SGXQAVbufferSupport@@@PAPAXAAUbyteCount@@@Z 
01:000276B8 ?getBufferLocked@outputStream_string@@SGXQAVbufferSupport@@@PAPAXAAUbyteCount@@@Z 
01:000276D4 ?addContentsChangedListener@outputStream_string@@SAXQAV1@@X@Z 
01:00027758 ?onWrite@outputStream_string@@SAXQAV1@@QAVoutputSupport@@@@Z 
01:000277D8 ?_new@outputStream_string@@SAXPAPAV1@@@Z 
01:00027800 ?_object_facts_initializer@outputStream_string@@SGXQAV1@@@Z 
01:00027820 ?classInfo@inputStream_string@@SAXPAPB_W0@Z 
01:0002783C ?new@inputStream_string@@SAXQAV1@@PB_W@Z 
01:00027890 ?endOfStream@inputStream_string@@SAXQAVinputStream@@@@Z 
01:000278CC ?setMode@inputStream_string@@SGXQAVstream@@@PAUmode_struct@2@@Z 
01:0002790C ?close@inputStream_string@@SGXQAVstream@@@@Z 
01:00027924 ?getCRLFconversion@inputStream_string@@SGPAUboolean_struct@_builtIn@@QAVstream@@@@Z 
01:0002792C ?setCRLFconversion@inputStream_string@@SGXQAVstream@@@PAUboolean_struct@_builtIn@@@Z 
01:00027954 ?getPosition@inputStream_string@@SGPBUfileSize@fileSystem_api@@QAVstream@@@@Z 
01:00027994 ?setPosition@inputStream_string@@SGXQAVstream@@@PBUfileSize@fileSystem_api@@@Z 
01:00027A20 ?checkOddness@inputStream_string@@SAXPAUmode_struct@stream@@PBUbyteCount@core@@@Z 
01:00027A5C ?getBuffer@inputStream_string@@SGXQAVbufferSupport@@@PAPAXAAUbyteCount@@@Z 
01:00027A78 ?getBufferLocked@inputStream_string@@SGXQAVbufferSupport@@@PAPAXAAUbyteCount@@@Z 
01:00027A94 ?_new@inputStream_string@@SAXPB_WPAPAVinputStream@@@@Z  (Idle)
01:00027ABC ?_object_facts_initializer@inputStream_string@@SGXQAV1@@@Z 
01:00027C80 outputStream_string?_initObject@@@QAGXQAV1@H@Z 
01:00027CB8 ?@create_object@outputStream_string@@SGQAV1@@XZ 
01:00027CD4 outputStream_string?_InternalFinalizer@@@QAGXQAV1@@Z 
01:00027E60 inputStream_string?_initObject@@@QAGXQAV1@H@Z 
01:00027E94 ?@create_object@inputStream_string@@SGQAV1@@XZ 
01:00027EB0 inputStream_string?_InternalFinalizer@@@QAGXQAV1@@Z 
--- From 'Obj\inputStreamSupport.7E046C1B.obj'
01:00027EC0 ?classInfo@inputSupport@@SAXPAPB_W0@Z 
--- From 'Obj\binary.5C1BA76F.obj'
01:00027EDC ?new@inputSupport@@SAXQAV1@@QAVinputBuffer@@@PAUmode_struct@stream@@@Z 
--- From 'Obj\inputStreamSupport.7E046C1B.obj'
01:00027F10 ?setMode@inputSupport@@SGXQAV1@@PAUmode_struct@stream@@@Z 
01:00027F44 ?getMode@inputSupport@@SGPAUmode_struct@stream@@QAV1@@@Z 
01:00027F5C ?_readChar@inputSupport@@SAXQAV1@@PA_W@Z 
01:00027F8C ?ungetChar@inputSupport@@SAXQAV1@@@Z 
01:00027FB4 ?_readLine@inputSupport@@SAXQAV1@@PAPB_W@Z 
01:00027FE4 ?_read@inputSupport@@SAXQAV1@@QAVrTypeLibrary@TypeLibraries@RunTime@VIP@@PAPAX@Z 
01:0002800C ?consult@inputSupport@@SAXQAV1@@PBUfactDB@@@Z 
01:00028038 ?reconsult@inputSupport@@SAXQAV1@@PBUfactDB@@@Z 
01:0002804C ?_readBytes@inputSupport@@SAXQAV1@@PBUbyteCount@@QAPAE@Z 
01:000280B0 ?_readString@inputSupport@@SAXQAV1@@PBUcharCount@@PAPB_W@Z 
01:000280E4 ?checkMode_text@inputSupport@@SAXQAV1@@PB_W@Z 
01:00028114 ?_convertMode@inputSupport@@SAXPAUmode_struct@stream@@AAUbooleanInt@core@@@Z 
01:00028138 ?_new@inputSupport@@SAXQAVinputBuffer@@@PAUmode_struct@stream@@PAPAV1@@@Z  (Idle)
--- From 'Obj\binary.5C1BA76F.obj'
01:0002816C inputSupport?_initObject@@@QAGXQAV1@H@Z 
--- From 'Obj\inputStreamSupport.7E046C1B.obj'
01:00028180 ?@create_object@inputSupport@@SGQAV1@@XZ 
--- From 'Obj\binary.5C1BA76F.obj'
01:0002819C inputSupport?_InternalFinalizer@@@QAGXQAV1@@Z 
--- From 'Obj\outputStreamSupport.F4FF31D0.obj'
01:000281B0 ?classInfo@outputSupport@@SAXPAPB_W0@Z 
01:000281CC ?_getFlushProcedure@outputSupport@@SAXQAV1@@PAUboolean_struct@_builtIn@@PAX@Z 
01:00028214 ?doFlush@outputSupport@@SAXQAV1@@0@Z 
01:00028224 ?doNotFlush@outputSupport@@SAXQAV1@@@Z 
--- From 'Obj\binary.5C1BA76F.obj'
01:0002822C ?new@outputSupport@@SAXQAV1@@QAVoutputBuffer@@@PAUmode_struct@stream@@PAUboolean_struct@_builtIn@@@Z 
--- From 'Obj\outputStreamSupport.F4FF31D0.obj'
01:00028274 ?newEx@outputSupport@@SAXQAV1@@QAVoutputBuffer@@@PAUmode_struct@stream@@PAUoptional_struct@core@@X@Z 
01:000282B4 ?nop@outputSupport@@SAXQAV1@@@Z 
01:000282BC ?setMode@outputSupport@@SGXQAVstream@@@PAUmode_struct@2@@Z 
01:000282F0 ?getMode@outputSupport@@SGPAUmode_struct@stream@@QAV3@@@Z 
01:00028308 ?flush@outputSupport@@SGXQAVoutputStream@@@@Z 
01:00028328 ?getPosition@outputSupport@@SGPBUfileSize@fileSystem_api@@QAVstream@@@@Z 
01:00028340 ?setPosition@outputSupport@@SGXQAVstream@@@PBUfileSize@fileSystem_api@@@Z 
01:00028358 ?getCRLFconversion@outputSupport@@SGPAUboolean_struct@_builtIn@@QAVstream@@@@Z 
01:00028360 ?setCRLFconversion@outputSupport@@SGXQAVstream@@@PAUboolean_struct@_builtIn@@@Z 
01:00028388 ?close@outputSupport@@SGXQAVstream@@@@Z 
01:00028398 ?write@outputSupport@@SAXQAVoutputStream@@@@Z 
01:000283E8 ?writeQuoted@outputSupport@@SAXQAVoutputStream@@@@Z 
01:00028448 ?writef@outputSupport@@SAXQAVoutputStream@@@PB_W@Z 
01:000284E8 ?nl@outputSupport@@SGXQAVoutputStream@@@@Z 
01:00028528 ?save@outputSupport@@SGXQAVoutputStream@@@PBUfactDB@@@Z 
01:0002858C ?writeBytes@outputSupport@@SGXQAVoutputStream@@@PAXPBUbyteCount@@@Z 
01:0002861C ?checkMode_text@outputSupport@@SAXQAV1@@PB_W@Z 
01:0002864C ?_new@outputSupport@@SAXQAVoutputBuffer@@@PAUmode_struct@stream@@PAUboolean_struct@_builtIn@@PAPAV1@@@Z  (Idle)
01:0002867C ?_newEx@outputSupport@@SAXQAVoutputBuffer@@@PAUmode_struct@stream@@PAUoptional_struct@core@@XPAPAV1@@@Z  (Idle)
--- From 'Obj\binary.5C1BA76F.obj'
01:000286B4 outputSupport?_initObject@@@QAGXQAV1@H@Z 
--- From 'Obj\outputStreamSupport.F4FF31D0.obj'
01:000286CC ?@create_object@outputSupport@@SGQAV1@@XZ 
--- From 'Obj\binary.5C1BA76F.obj'
01:000286E8 outputSupport?_InternalFinalizer@@@QAGXQAV1@@Z 
--- From 'Obj\multiThread_api.F2BE0D3B.obj'
01:00028700 ?classInfo@multiThread_api@@SAXPAPB_W0@Z 
01:0002871C ?_createEvent@multiThread_api@@SAXPB_WPAUboolean_struct@_builtIn@@1AAUsyncHandle@windowsAPI@@@Z  (Idle)
01:00028848 ?_openEvent@multiThread_api@@SAXPB_WAAUsyncHandle@windowsAPI@@@Z  (Idle)
01:00028894 ?setEvent@multiThread_api@@SAXPBUsyncHandle@@@Z  (Idle)
01:00028924 ?error@multiThread_api@@SAXPBUsyncHandle@windowsAPI@@PB_W@Z 
01:000289A0 ?resetEvent@multiThread_api@@SAXPBUsyncHandle@@@Z  (Idle)
01:000289C8 ?pulseEvent@multiThread_api@@SAXPBUsyncHandle@windowsAPI@@@Z  (Idle)
01:00028A58 ?_createMutex@multiThread_api@@SAXPB_WPAUboolean_struct@_builtIn@@AAUsyncHandle@@@Z  (Idle)
01:00028B10 ?_openMutex@multiThread_api@@SAXPB_WAAUsyncHandle@windowsAPI@@@Z  (Idle)
01:00028B5C ?releaseMutex@multiThread_api@@SAXPBUsyncHandle@windowsAPI@@@Z  (Idle)
01:00028B84 ?_createSemaphore@multiThread_api@@SAXPB_WIIAAUsyncHandle@windowsAPI@@@Z  (Idle)
01:00028C8C ?_openSemaphore@multiThread_api@@SAXPB_WAAUsyncHandle@@@Z  (Idle)
01:00028CD8 ?_releaseSemaphore@multiThread_api@@SAXPBUsyncHandle@@IPAI@Z  (Idle)
01:00028DBC ?_createWaitableTimer@multiThread_api@@SAXPB_WPAUboolean_struct@_builtIn@@AAUsyncHandle@@@Z  (Idle)
01:00028E88 ?_openWaitableTimer@multiThread_api@@SAXPB_WAAUsyncHandle@@@Z  (Idle)
01:00028ED4 ?setWaitableTimer@multiThread_api@@SAXPBUsyncHandle@@PAPBUtimeIntervalValue@@HPAUboolean_struct@_builtIn@@@Z  (Idle)
01:00028EFC ?setWaitableTimer@multiThread_api@@SAXPBUsyncHandle@@PAPBUtimeIntervalValue@@HXPAXPAUboolean_struct@_builtIn@@@Z 
01:000290B4 ?cancelWaitableTimer@multiThread_api@@SAXPBUsyncHandle@@@Z  (Idle)
01:000290DC ?_handlingNullString@multiThread_api@@SAXPB_WPAPB_W@Z 
01:00029120 ?checkHandle@multiThread_api@@SAXPBUsyncHandle@windowsAPI@@PB_W1PAU?$__list_struct@UnamedValue@@@@@Z 
01:000291BC ?checkAlreadyExist@multiThread_api@@SAXPBUhandle@@PB_W@Z 
--- From 'Obj\string8_api.7710D13D.obj'
01:00029280 ?classInfo@string8_api@@SAXPAPB_W0@Z 
01:0002929C ?toWideChar@string8_api@@SGXPAUcodePage_struct@core@@PADPBUbyteCountOptional@@PB_WPBUcharCount@@@Z 
01:00029314 ?_lenWideChar@string8_api@@SAXPAUcodePage_struct@core@@PADPBUbyteCountOptional@@AAUcharCount@@@Z 
01:000293A0 ?toMultiByte@string8_api@@SGXPAUcodePage_struct@core@@PB_WPBUcharCountOptional@@PADPBUbyteCount@@@Z 
01:0002941C ?_lenMultiByte@string8_api@@SAXPAUcodePage_struct@core@@PB_WPBUcharCountOptional@@AAUbyteCount@@@Z 
01:000294AC ?_toApiCodePage@string8_api@@SAXPAUcodePage_struct@core@@PAI@Z 
--- From 'Obj\binary.5C1BA76F.obj'
01:000294F0 ?classInfo@outputStream_binary@@SAXPAPB_W0@Z 
01:0002950C ?new@outputStream_binary@@SAXQAV1@@@Z 
01:000295AC ?setMode@outputStream_binary@@SGXQAVstream@@@PAUmode_struct@2@@Z 
01:000295EC ?flush@outputStream_binary@@SGXQAVoutputStream@@@@Z 
01:000295FC ?close@outputStream_binary@@SGXQAVstream@@@@Z 
01:00029644 ?bufferFullCallBack@outputStream_binary@@SAXQAV1@@PAPAXAAUbyteCount@@@Z 
01:000296BC ?get_buffer_from_db@outputStream_binary@@SAXQAV1@@IPAPAXAAUbyteCount@@@Z 
01:00029734 ?_getBinary@outputStream_binary@@SAXQAV1@@QAPAE@Z 
01:000297E4 ?writeBuffersToBinary@outputStream_binary@@SAXQAV1@@QAE@Z 
01:00029860 ?writeSingleBufferToBinary@outputStream_binary@@SAXQAEPBUbyteCount@@PAX1@Z 
01:00029894 ?getPosition@outputStream_binary@@SGPBUfileSize@fileSystem_api@@QAVstream@@@@Z 
01:0002996C ?setPosition@outputStream_binary@@SGXQAVstream@@@PBUfileSize@fileSystem_api@@@Z 
01:000299F0 ?handleSetOffset@outputStream_binary@@SAXQAV1@@PBUbyteCount@@@Z 
01:00029A78 ?updateCurrentBuffer@outputStream_binary@@SAXQAV1@@@Z 
01:00029BD4 ?findBufferForOffset@outputStream_binary@@SAXQAV1@@PBUbyteCount@@PAIPAPAXAAU3@4@Z 
01:00029C60 ?handleBiggerOffset@outputStream_binary@@SAXQAV1@@PBUbyteCount@@@Z 
01:00029DD0 ?_newBuffer@outputStream_binary@@SAXQAV1@@PBUbyteCount@@PAPAX@Z 
01:00029E64 ?_getSizeBefore@outputStream_binary@@SAXQAV1@@IAAUbyteCount@@@Z 
01:00029EE4 ?bufferNotFound_exception@outputStream_binary@@SGXI@Z 
01:00029F28 ?checkUsePrevBuff@outputStream_binary@@SAXQAV1@@@Z 
01:00029F84 ?getBuffer@outputStream_binary@@SGXQAVbufferSupport@@@PAPAXAAUbyteCount@@@Z 
01:0002A024 ?getBufferLocked@outputStream_binary@@SGXQAVbufferSupport@@@PAPAXAAUbyteCount@@@Z 
01:0002A040 ?_new@outputStream_binary@@SAXPAPAV1@@@Z  (Idle)
01:0002A068 ?_object_facts_initializer@outputStream_binary@@SGXQAV1@@@Z 
01:0002A088 ?classInfo@inputStream_binary@@SAXPAPB_W0@Z 
01:0002A0A4 ?new@inputStream_binary@@SAXQAV1@@QAE@Z 
01:0002A0FC ?endOfStream@inputStream_binary@@SAXQAVinputStream@@@@Z 
01:0002A138 ?setMode@inputStream_binary@@SGXQAVstream@@@PAUmode_struct@2@@Z 
01:0002A178 ?close@inputStream_binary@@SGXQAVstream@@@@Z 
01:0002A190 ?getCRLFconversion@inputStream_binary@@SGPAUboolean_struct@_builtIn@@QAVstream@@@@Z 
01:0002A198 ?setCRLFconversion@inputStream_binary@@SGXQAVstream@@@PAUboolean_struct@_builtIn@@@Z 
01:0002A1C0 ?getPosition@inputStream_binary@@SGPBUfileSize@fileSystem_api@@QAVstream@@@@Z 
01:0002A200 ?setPosition@inputStream_binary@@SGXQAVstream@@@PBUfileSize@fileSystem_api@@@Z 
01:0002A294 ?getBuffer@inputStream_binary@@SGXQAVbufferSupport@@@PAPAXAAUbyteCount@@@Z 
01:0002A2B0 ?getBufferLocked@inputStream_binary@@SGXQAVbufferSupport@@@PAPAXAAUbyteCount@@@Z 
01:0002A2CC ?_new@inputStream_binary@@SAXQAEPAPAVinputStream@@@@Z  (Idle)
01:0002A2F4 ?_object_facts_initializer@inputStream_binary@@SGXQAV1@@@Z 
01:0002A30C ?classInfo@binary_exception@@SAXPAPB_W0@Z 
01:0002A328 ?invalidCompressionFormat@binary_exception@@SAXPAXPAPB_W1@Z 
01:0002A350 ?internalDecodeError@binary_exception@@SAXPAXPAPB_W1@Z 
01:0002A378 ?wrongBinaryFormat@binary_exception@@SAXPAXPAPB_W1@Z 
01:0002A3A0 ?indexOutOfRange@binary_exception@@SAXPAXPAPB_W1@Z 
01:0002A3C8 ?raise_InvalidCompressionFormat@binary_exception@@SAXXQAE@Z  (Idle)
01:0002A43C ?raise_InternalDecodeError@binary_exception@@SAXXQAE@Z  (Idle)
01:0002A4B0 ?raise_IndexOutOfRange@binary_exception@@SAXXPBUbyteCount@@@Z 
01:0002A528 ?raise_WrongBinaryFormat@binary_exception@@SAXXQAE@Z  (Idle)
01:0002A59C ?raise_WrongBinaryFormat@binary_exception@@SAXXPBUbinaryNonAtomic@@@Z  (Idle)
01:0002A614 ?classInfo@binary@@SAXPAPB_W0@Z 
01:0002A630 ?_create0binaryAtomic@binary@@SAXQAPAE@Z 
01:0002A648 ?_create0binaryNonAtomic@binary@@SAXAAU2@@Z 
01:0002A660 ?_createNonAtomic@binary@@SAXPBUbyteCount@@AAUbinaryNonAtomic@@@Z 
01:0002A6D0 ?_createNonAtomic@binary@@SAXPBUpositive@@PBUbyteCount@@AAUbinaryNonAtomic@@@Z  (Idle)
--- From 'Obj\systemInformation_api.671D1739.obj'
01:0002A6F0 ?_createAtomic@binary@@SAXPBUbyteCount@@QAPAE@Z 
--- From 'Obj\binary.5C1BA76F.obj'
01:0002A760 ?_createAtomic@binary@@SAXPBUpositive@@PBUbyteCount@@QAPAE@Z  (Idle)
01:0002A780 ?_makeBinaryFromPtr@binary@@SAXPAXPBUbyteCount@@QAPAE@Z 
01:0002A7B8 ?_makeBinaryNonAtomicFromPtr@binary@@SAXPAXPBUbyteCount@@AAUbinaryNonAtomic@@@Z 
01:0002A7F0 ?_createCopyNonAtomic@binary@@SAXPBUbinaryNonAtomic@@AAU2@@Z  (Idle)
01:0002A870 ?_createCopyAtomic@binary@@SAXQAEQAPAE@Z  (Idle)
01:0002A8F0 ?_createNonAtomicFromPointer@binary@@SAXPAXPBUbyteCount@@AAUbinaryNonAtomic@@@Z  (Idle)
01:0002A938 ?_createAtomicFromPointer@binary@@SAXPAXPBUbyteCount@@QAPAE@Z 
01:0002A980 ?_createAtomicFromIntegerList@binary@@SAXPAU?$__list_struct@Uinteger@@@@QAPAE@Z  (Idle)
01:0002A9D8 ?_getSize@binary@@SAXQAEAAUbyteCount@@@Z 
01:0002A9F4 ?_reSizeNonAtomic@binary@@SAXPBUbinaryNonAtomic@@PBUbyteCount@@AAU2@@Z 
01:0002AAD8 ?_reSizeAtomic@binary@@SAXQAEPBUbyteCount@@QAPAE@Z 
01:0002ABBC ?_concatNonAtomic@binary@@SAXPBUbinaryNonAtomic@@0AAU2@@Z  (Idle)
01:0002AC38 ?_concatAtomic@binary@@SAXQAEQAEQAPAE@Z  (Idle)
01:0002ACB4 ?_insertAtomic@binary@@SAXQAEPBUbyteCount@@QAEQAPAE@Z  (Idle)
01:0002AD90 ?_insertNonAtomic@binary@@SAXPBUbinaryNonAtomic@@PBUbyteCount@@QAEAAU2@@Z  (Idle)
01:0002AE6C ?_deleteAtomic@binary@@SAXQAEPBUbyteCount@@1QAPAE@Z  (Idle)
01:0002AF0C ?_deleteNonAtomic@binary@@SAXPBUbinaryNonAtomic@@PBUbyteCount@@1AAU2@@Z  (Idle)
01:0002AFAC ?_getIndexed_unsigned8@binary@@SAXQAEPBUpositive@@AAU3@@Z  (Idle)
01:0002AFF8 ?_getIndexed_unsigned16@binary@@SAXQAEPBUpositive@@AAU3@@Z 
01:0002B048 ?_getIndexed_unsigned32@binary@@SAXQAEPBUpositive@@AAU3@@Z  (Idle)
01:0002B098 ?_getIndexed_unsigned64@binary@@SAXQAEPBUpositive@@PAPA_K@Z  (Idle)
01:0002B0E8 ?_getIndexed_integer8@binary@@SAXQAEPBUpositive@@AAU3@@Z  (Idle)
01:0002B134 ?_getIndexed_integer16@binary@@SAXQAEPBUpositive@@AAU3@@Z  (Idle)
01:0002B184 ?_getIndexed_integer32@binary@@SAXQAEPBUpositive@@AAU3@@Z  (Idle)
01:0002B1D4 ?_getIndexed_integer64@binary@@SAXQAEPBUpositive@@PAPA_J@Z  (Idle)
01:0002B224 ?_getIndexed_unsigned@binary@@SAXQAEPBUpositive@@PAI@Z  (Idle)
01:0002B274 ?_getIndexed_integer@binary@@SAXQAEPBUpositive@@PAH@Z  (Idle)
01:0002B2C4 ?_getIndexed_real32@binary@@SAXQAEPBUpositive@@PAM@Z  (Idle)
01:0002B314 ?_getIndexed_real@binary@@SAXQAEPBUpositive@@PAPAN@Z  (Idle)
01:0002B364 ?_getIndexed_pointer@binary@@SAXPBUbinaryNonAtomic@@PBUpositive@@PAPAX@Z 
01:0002B3B4 ?_getIndexed_object@binary@@SAXPBUbinaryNonAtomic@@PBUpositive@@PAPAV4@@@Z  (Idle)
01:0002B410 ?_getIndexed_string@binary@@SAXPBUbinaryNonAtomic@@PBUpositive@@PAPB_W@Z  (Idle)
01:0002B46C ?setIndexed_unsigned8@binary@@SAXQAEPBUpositive@@PBU3@@Z  (Idle)
01:0002B4B4 ?setIndexed_unsigned16@binary@@SAXQAEPBUpositive@@PBU3@@Z  (Idle)
01:0002B500 ?setIndexed_unsigned32@binary@@SAXQAEPBUpositive@@PBU3@@Z  (Idle)
01:0002B54C ?setIndexed_unsigned64@binary@@SAXQAEPBUpositive@@PA_K@Z  (Idle)
01:0002B59C ?setIndexed_integer8@binary@@SAXQAEPBUpositive@@PBU3@@Z  (Idle)
01:0002B5E4 ?setIndexed_integer16@binary@@SAXQAEPBUpositive@@PBU3@@Z  (Idle)
01:0002B630 ?setIndexed_integer32@binary@@SAXQAEPBUpositive@@PBU3@@Z  (Idle)
01:0002B67C ?setIndexed_integer64@binary@@SAXQAEPBUpositive@@PA_J@Z  (Idle)
01:0002B6CC ?setIndexed_integer@binary@@SAXQAEPBUpositive@@H@Z 
01:0002B718 ?setIndexed_unsigned@binary@@SAXQAEPBUpositive@@I@Z  (Idle)
01:0002B764 ?setIndexed_real32@binary@@SAXQAEPBUpositive@@M@Z  (Idle)
01:0002B7B4 ?setIndexed_real@binary@@SAXQAEPBUpositive@@PAN@Z  (Idle)
01:0002B80C ?setIndexed_pointer@binary@@SAXPBUbinaryNonAtomic@@PBUpositive@@PAX@Z  (Idle)
01:0002B858 ?setIndexed_object@binary@@SAXPBUbinaryNonAtomic@@PBUpositive@@QAV4@@@Z  (Idle)
01:0002B8A4 ?setIndexed_string@binary@@SAXPBUbinaryNonAtomic@@PBUpositive@@PB_W@Z  (Idle)
01:0002B8F0 ?_getBinaryNonAtomic@binary@@SAXPBUbinaryNonAtomic@@PBUbyteCount@@1AAU2@@Z 
01:0002B97C ?_getBinaryAtomic@binary@@SAXQAEPBUbyteCount@@1QAPAE@Z 
01:0002BA08 ?setBinaryNonAtomic@binary@@SGXPBUbinaryNonAtomic@@PBUbyteCount@@QAE@Z  (Idle)
01:0002BA98 ?setBinaryAtomic@binary@@SGXQAEPBUbyteCount@@QAE@Z  (Idle)
01:0002BB28 ?setValue@binary@@SAXQAEPBUbyteCount@@PAUvalue_struct@core@@@Z  (Idle)
01:0002C014 $getValue$binary$predicate$(i,i,unsigned64(o))$b$_c88  (Idle)
01:0002C068 ?_getString@binary@@SAXPAXPBUcharCount@@PAPB_W@Z 
01:0002C144 ?checkOffsetForSetGetValue@binary@@SAXQAEPBUbyteCount@@1@Z 
01:0002C17C ?fillFromIntegerList@binary@@SAXQAEPBUpositive@@PAU?$__list_struct@Uinteger@@@@@Z 
01:0002C1C8 ?copyTailIfNeeded@binary@@SAXQAEPBUbyteCount@@1QAE1@Z 
01:0002C22C ?splitBinaryNonAtomic@binary@@SAXPBUbinaryNonAtomic@@PBUbyteCount@@AAU2@2@Z  (Idle)
01:0002C26C ?splitBinaryAtomic@binary@@SAXQAEPBUbyteCount@@QAPAE2@Z  (Idle)
01:0002C2AC ?_binaryToStringList@binary@@SAXQAEPAPAU?$__list_struct@Ustring@@@@@Z  (Idle)
01:0002C2E8 ?_getStringList@binary@@SAXPAXPBUbyteCount@@PAPAU?$__list_struct@Ustring@@@@@Z 
01:0002C460 ?_search@binary@@SAXQAEQAEAAUbyteCount@@@Z  (Idle)
01:0002C4B4 ?_binary8ToStringList@binary@@SAXQAEPAPAU?$__list_struct@Ustring@@@@@Z  (Idle)
01:0002C4DC ?_binary8ToStringList@binary@@SAXQAEPAUcodePage_struct@core@@PAPAU?$__list_struct@Ustring@@@@@Z 
01:0002C524 ?_getStringListForBinary8@binary@@SAXPAXPBUbyteCount@@PAUcodePage_struct@core@@PAPAU?$__list_struct@Ustring@@@@@Z 
01:0002C678 binaryIsAtomicExpectedNonAtomic 
01:0002C6A8 doNothing 
01:0002C6B0 ?_getSize@binary@@SAXPBUbinaryNonAtomic@@AAUbyteCount@@@Z 
01:0002C6CC ?_insertNonAtomic@binary@@SAXPBUbinaryNonAtomic@@PBUbyteCount@@0AAU2@@Z  (Idle)
01:0002C7A8 ?_getIndexed_unsigned8@binary@@SAXPBUbinaryNonAtomic@@PBUpositive@@AAU4@@Z  (Idle)
01:0002C7F4 ?_getIndexed_unsigned16@binary@@SAXPBUbinaryNonAtomic@@PBUpositive@@AAU4@@Z  (Idle)
01:0002C844 ?_getIndexed_unsigned32@binary@@SAXPBUbinaryNonAtomic@@PBUpositive@@AAU4@@Z  (Idle)
01:0002C894 ?_getIndexed_unsigned64@binary@@SAXPBUbinaryNonAtomic@@PBUpositive@@PAPA_K@Z  (Idle)
01:0002C8E4 ?_getIndexed_integer8@binary@@SAXPBUbinaryNonAtomic@@PBUpositive@@AAU4@@Z  (Idle)
01:0002C930 ?_getIndexed_integer16@binary@@SAXPBUbinaryNonAtomic@@PBUpositive@@AAU4@@Z  (Idle)
01:0002C980 ?_getIndexed_integer32@binary@@SAXPBUbinaryNonAtomic@@PBUpositive@@AAU4@@Z  (Idle)
01:0002C9D0 ?_getIndexed_integer64@binary@@SAXPBUbinaryNonAtomic@@PBUpositive@@PAPA_J@Z  (Idle)
01:0002CA20 ?_getIndexed_unsigned@binary@@SAXPBUbinaryNonAtomic@@PBUpositive@@PAI@Z  (Idle)
01:0002CA70 ?_getIndexed_integer@binary@@SAXPBUbinaryNonAtomic@@PBUpositive@@PAH@Z  (Idle)
01:0002CAC0 ?_getIndexed_real32@binary@@SAXPBUbinaryNonAtomic@@PBUpositive@@PAM@Z  (Idle)
01:0002CB10 ?_getIndexed_real@binary@@SAXPBUbinaryNonAtomic@@PBUpositive@@PAPAN@Z  (Idle)
01:0002CB60 ?setIndexed_unsigned8@binary@@SAXPBUbinaryNonAtomic@@PBUpositive@@PBU4@@Z  (Idle)
01:0002CBA8 ?setIndexed_unsigned16@binary@@SAXPBUbinaryNonAtomic@@PBUpositive@@PBU4@@Z  (Idle)
01:0002CBF4 ?setIndexed_unsigned32@binary@@SAXPBUbinaryNonAtomic@@PBUpositive@@PBU4@@Z  (Idle)
01:0002CC40 ?setIndexed_unsigned64@binary@@SAXPBUbinaryNonAtomic@@PBUpositive@@PA_K@Z  (Idle)
01:0002CC90 ?setIndexed_integer8@binary@@SAXPBUbinaryNonAtomic@@PBUpositive@@PBU4@@Z  (Idle)
01:0002CCD8 ?setIndexed_integer16@binary@@SAXPBUbinaryNonAtomic@@PBUpositive@@PBU4@@Z  (Idle)
01:0002CD24 ?setIndexed_integer32@binary@@SAXPBUbinaryNonAtomic@@PBUpositive@@PBU4@@Z  (Idle)
01:0002CD70 ?setIndexed_integer64@binary@@SAXPBUbinaryNonAtomic@@PBUpositive@@PA_J@Z  (Idle)
01:0002CDC0 ?setIndexed_integer@binary@@SAXPBUbinaryNonAtomic@@PBUpositive@@H@Z  (Idle)
01:0002CE0C ?setIndexed_unsigned@binary@@SAXPBUbinaryNonAtomic@@PBUpositive@@I@Z  (Idle)
01:0002CE58 ?setIndexed_real32@binary@@SAXPBUbinaryNonAtomic@@PBUpositive@@M@Z  (Idle)
01:0002CEA8 ?setIndexed_real@binary@@SAXPBUbinaryNonAtomic@@PBUpositive@@PAN@Z  (Idle)
01:0002CF00 ?setBinaryNonAtomic@binary@@SGXPBUbinaryNonAtomic@@PBUbyteCount@@0@Z  (Idle)
01:0002CF90 ?setBinaryAtomic@binary@@SGXPBUbinaryNonAtomic@@PBUbyteCount@@QAE@Z  (Idle)
01:0002D020 ?setBinaryAtomic@binary@@SGXPBUbinaryNonAtomic@@PBUbyteCount@@0@Z  (Idle)
01:0002D0B0 ?setValue@binary@@SAXPBUbinaryNonAtomic@@PBUbyteCount@@PAUvalue_struct@core@@@Z  (Idle)
01:0002D59C $getValue$binary$predicate$(i,i,unsigned(o))$b$_c89  (Idle)
01:0002D5F0 $getValue$binary$predicate$(i,i,integer64(o))$b$_c90  (Idle)
01:0002D644 $getValue$binary$predicate$(i,i,integer(o))$b$_c91 
01:0002D698 $getValue$binary$predicate$(i,i,real(o))$b$_c92  (Idle)
01:0002D6EC $getValue$binary$predicate$(i,i,char(o))$b$_c93  (Idle)
01:0002D744 $getValue$binary$predicate$(i,i,string(o))$b$_c94  (Idle)
01:0002D7B4 $getValue$binary$predicate$(i,i,localtimevalue(o))$b$_c95  (Idle)
01:0002D808 $getValue$binary$predicate$(i,i,gmttimevalue(o))$b$_c96  (Idle)
01:0002D85C $getValue$binary$predicate$(i,i,unsigned64(o))$b$_c97  (Idle)
01:0002D8B0 $getValue$binary$predicate$(i,i,unsigned(o))$b$_c98  (Idle)
01:0002D904 $getValue$binary$predicate$(i,i,integer64(o))$b$_c99  (Idle)
01:0002D958 $getValue$binary$predicate$(i,i,integer(o))$b$_c100  (Idle)
01:0002D9AC $getValue$binary$predicate$(i,i,real(o))$b$_c101  (Idle)
01:0002DA00 $getValue$binary$predicate$(i,i,pointer(o))$b$_c102  (Idle)
01:0002DA54 $getValue$binary$predicate$(i,i,object(o))$b$_c103  (Idle)
01:0002DAA8 $getValue$binary$predicate$(i,i,char(o))$b$_c104  (Idle)
01:0002DB00 $getValue$binary$predicate$(i,i,string(o))$b$_c105  (Idle)
01:0002DB70 $getValue$binary$predicate$(i,i,localtimevalue(o))$b$_c106  (Idle)
01:0002DBC4 $getValue$binary$predicate$(i,i,gmttimevalue(o))$b$_c107  (Idle)
01:0002DC18 ?checkOffsetForSetGetValue@binary@@SAXPBUbinaryNonAtomic@@PBUbyteCount@@1@Z 
01:0002DC50 ?copyTailIfNeeded@binary@@SAXPBUbinaryNonAtomic@@PBUbyteCount@@101@Z 
01:0002DE50 outputStream_binary?_initObject@@@QAGXQAV1@H@Z 
01:0002DE84 ?@create_object@outputStream_binary@@SGQAV1@@XZ 
01:0002DEA0 outputStream_binary?_InternalFinalizer@@@QAGXQAV1@@Z 
01:0002E01C inputStream_binary?_initObject@@@QAGXQAV1@H@Z 
01:0002E050 ?@create_object@inputStream_binary@@SGQAV1@@XZ 
01:0002E06C inputStream_binary?_InternalFinalizer@@@QAGXQAV1@@Z 
--- From 'Obj\list.372A041A.obj'
01:0002E080 ?_length@list@@SAXQAVrTypeLibrary@TypeLibraries@RunTime@VIP@@PAU?$__list_struct@PAX@@AAUpositive@@@Z 
01:0002E09C ?_length2@list@@SAXQAVrTypeLibrary@TypeLibraries@RunTime@VIP@@PAU?$__list_struct@PAX@@PBUpositive@@AAU2@@Z 
01:0002E0D8 ?isMember@list@@SAXQAVrTypeLibrary@TypeLibraries@RunTime@VIP@@PAXPAU?$__list_struct@PAX@@@Z 
01:0002E12C ?isMemberBy@list@@SAXQAVrTypeLibrary@TypeLibraries@RunTime@VIP@@0XPAXPAU?$__list_struct@PAX@@@Z  (Idle)
01:0002E158 ?anonymous$1$36_27$comp2eq/1@list@@SAXPAUanonymous$1$36_27$comp2eq/1c_struct@1@PAXPAX@Z 
01:0002E198 ?_comp2eq@list@@SAXQAVrTypeLibrary@TypeLibraries@RunTime@VIP@@0XPAX@Z 
01:0002E1D8 ?isMemberEq@list@@SAXQAVrTypeLibrary@TypeLibraries@RunTime@VIP@@0XPAXPAU?$__list_struct@PAX@@@Z 
01:0002E240 ?_tryGetMemberBy@list@@SAXQAVrTypeLibrary@TypeLibraries@RunTime@VIP@@0XPAXPAU?$__list_struct@PAX@@PAPAX@Z  (Idle)
01:0002E26C ?_tryGetMemberEq@list@@SAXQAVrTypeLibrary@TypeLibraries@RunTime@VIP@@0XPAXPAU?$__list_struct@PAX@@PAPAX@Z 
01:0002E2D8 ?_getMember_nd@list@@SAXQAVrTypeLibrary@TypeLibraries@RunTime@VIP@@PAU?$__list_struct@PAX@@PAPAX@Z 
01:0002E320 ?_getTupleMember_nd@list@@SAXQAVrTypeLibrary@TypeLibraries@RunTime@VIP@@0PAUtuple_struct@core@@PAU?$__list_struct@PAX@@PAU?$__list_struct@PAX@@PAPAU23@PAPAXPAPAX@Z  (Idle)
01:0002E354 ?memberIndex_nd@list@@SAXQAVrTypeLibrary@TypeLibraries@RunTime@VIP@@PAPAXAAUpositive@@PAU?$__list_struct@PAX@@@Z  (Idle)
01:0002E368 ?memberIndexAcc_nd@list@@SAXQAVrTypeLibrary@TypeLibraries@RunTime@VIP@@PAPAXAAUpositive@@PAU?$__list_struct@PAX@@PBU2@@Z 
01:0002E3C8 ?_zipHead_nd@list@@SAXQAVrTypeLibrary@TypeLibraries@RunTime@VIP@@0PAU?$__list_struct@PAX@@2PAPAUtuple_struct@core@@PAPAXPAPAX@Z 
01:0002E458 ?_zip_nd@list@@SAXQAVrTypeLibrary@TypeLibraries@RunTime@VIP@@0PAU?$__list_struct@PAX@@2PAPAUtuple_struct@core@@PAPAXPAPAX@Z 
01:0002E514 ?_zip_nd@list@@SAXQAVrTypeLibrary@TypeLibraries@RunTime@VIP@@00PAU?$__list_struct@PAX@@33PAPAUtuple_struct@core@@PAPAXPAPAXPAPAX@Z 
01:0002E664 ?_zip@list@@SAXQAVrTypeLibrary@TypeLibraries@RunTime@VIP@@0PAU?$__list_struct@PAX@@2PAPAU?$__list_struct@PAPAUtuple_struct@core@@PAPAXPAPAX@@@Z  (Idle)
01:0002E6D4 ?_zip@list@@SAXQAVrTypeLibrary@TypeLibraries@RunTime@VIP@@00PAU?$__list_struct@PAX@@33PAPAU?$__list_struct@PAPAUtuple_struct@core@@PAPAXPAPAXPAPAX@@@Z  (Idle)
01:0002E74C ?unzip@list@@SAXQAVrTypeLibrary@TypeLibraries@RunTime@VIP@@0PAU?$__list_struct@PAUtuple_struct@core@@PAXPAX@@PAPAU?$__list_struct@PAPAX@@3@Z 
01:0002E7EC ?unzip@list@@SAXQAVrTypeLibrary@TypeLibraries@RunTime@VIP@@00PAU?$__list_struct@PAUtuple_struct@core@@PAXPAXPAX@@PAPAU?$__list_struct@PAPAX@@44@Z 
01:0002E8C0 ?_anonymous$2$116_22$compare@list@@SAXPAUanonymous$2$116_22$comparec_struct@1@PAXPAXPAPAUcompareResult_struct@_builtIn@@@Z 
01:0002E8D8 ?_sort@list@@SAXQAVrTypeLibrary@TypeLibraries@RunTime@VIP@@PAU?$__list_struct@PAX@@PAPAU?$__list_struct@PAPAX@@@Z 
01:0002E924 ?_anonymous$3$120_39$sort/2@list@@SAXPAUanonymous$3$120_39$sort/2c_struct@1@PAXPAXPAPAUcompareResult_struct@_builtIn@@@Z 
01:0002E958 ?_sort@list@@SAXQAVrTypeLibrary@TypeLibraries@RunTime@VIP@@PAU?$__list_struct@PAX@@PAUsortOrder_struct@core@@PAPAU?$__list_struct@PAPAX@@@Z  (Idle)
01:0002E9C0 ?_anonymous$4$124_53$sortby/3@list@@SAXPAUanonymous$4$124_53$sortby/3c_struct@1@PAXPAXPAPAUcompareResult_struct@_builtIn@@@Z 
01:0002E9F0 ?_sortBy@list@@SAXQAVrTypeLibrary@TypeLibraries@RunTime@VIP@@XPAU?$__list_struct@PAX@@PAUsortOrder_struct@core@@PAPAU?$__list_struct@PAPAX@@@Z  (Idle)
01:0002EA4C ?_sortBy@list@@SAXQAVrTypeLibrary@TypeLibraries@RunTime@VIP@@XPAU?$__list_struct@PAX@@PAPAU?$__list_struct@PAPAX@@@Z 
01:0002EA78 ?_merge@list@@SAXQAVrTypeLibrary@TypeLibraries@RunTime@VIP@@XPAU?$__list_struct@PAU?$__list_struct@PAX@@@@PAPAU?$__list_struct@PAPAX@@@Z 
01:0002EAF4 ?mergeL@list@@SAXQAVrTypeLibrary@TypeLibraries@RunTime@VIP@@XPAU?$__list_struct@PAU?$__list_struct@PAX@@@@PAPAU?$__list_struct@PAPAU?$__list_struct@PAPAX@@@@@Z 
01:0002EB8C ?_merge2@list@@SAXQAVrTypeLibrary@TypeLibraries@RunTime@VIP@@XPAU?$__list_struct@PAX@@2PAPAU?$__list_struct@PAPAX@@@Z 
01:0002EC88 ?_mkRuns@list@@SAXQAVrTypeLibrary@TypeLibraries@RunTime@VIP@@XPAU?$__list_struct@PAX@@PAPAU?$__list_struct@PAPAU?$__list_struct@PAPAX@@@@@Z 
01:0002EDAC ?takeRun@list@@SAXQAVrTypeLibrary@TypeLibraries@RunTime@VIP@@XPAXPAU?$__list_struct@PAX@@PAPAU?$__list_struct@PAPAX@@4@Z 
01:0002EE98 ?takeRunDown@list@@SAXQAVrTypeLibrary@TypeLibraries@RunTime@VIP@@XPAXPAU?$__list_struct@PAX@@3PAPAU?$__list_struct@PAPAX@@5@Z 
01:0002EF6C ?_append@list@@SAXQAVrTypeLibrary@TypeLibraries@RunTime@VIP@@PAU?$__list_struct@PAX@@1PAPAU?$__list_struct@PAPAX@@@Z 
01:0002EF90 ?_append1@list@@SAXQAVrTypeLibrary@TypeLibraries@RunTime@VIP@@PAU?$__list_struct@PAX@@1PAPAU?$__list_struct@PAPAX@@@Z 
01:0002EFF8 ?_append@list@@SAXQAVrTypeLibrary@TypeLibraries@RunTime@VIP@@PAU?$__list_struct@PAX@@11PAPAU?$__list_struct@PAPAX@@@Z 
01:0002F02C ?_append@list@@SAXQAVrTypeLibrary@TypeLibraries@RunTime@VIP@@PAU?$__list_struct@PAX@@111PAPAU?$__list_struct@PAPAX@@@Z 
01:0002F060 ?_append@list@@SAXQAVrTypeLibrary@TypeLibraries@RunTime@VIP@@PAU?$__list_struct@PAX@@1111PAPAU?$__list_struct@PAPAX@@@Z  (Idle)
01:0002F094 ?_appendList@list@@SAXQAVrTypeLibrary@TypeLibraries@RunTime@VIP@@PAU?$__list_struct@PAU?$__list_struct@PAX@@@@PAPAU?$__list_struct@PAPAX@@@Z 
01:0002F114 ?_reverse@list@@SAXQAVrTypeLibrary@TypeLibraries@RunTime@VIP@@PAU?$__list_struct@PAX@@PAPAU?$__list_struct@PAPAX@@@Z 
01:0002F13C ?_reverse1@list@@SAXQAVrTypeLibrary@TypeLibraries@RunTime@VIP@@PAU?$__list_struct@PAX@@1PAPAU?$__list_struct@PAPAX@@@Z 
01:0002F194 ?_remove@list@@SAXQAVrTypeLibrary@TypeLibraries@RunTime@VIP@@PAU?$__list_struct@PAX@@PAXPAPAU?$__list_struct@PAPAX@@@Z 
01:0002F22C ?_removeBy@list@@SAXQAVrTypeLibrary@TypeLibraries@RunTime@VIP@@0XPAU?$__list_struct@PAX@@PAXPAPAU?$__list_struct@PAPAX@@@Z  (Idle)
01:0002F258 ?_removeEq@list@@SAXQAVrTypeLibrary@TypeLibraries@RunTime@VIP@@0XPAU?$__list_struct@PAX@@PAXPAPAU?$__list_struct@PAPAX@@@Z 
01:0002F300 ?_removeAll@list@@SAXQAVrTypeLibrary@TypeLibraries@RunTime@VIP@@PAU?$__list_struct@PAX@@PAXPAPAU?$__list_struct@PAPAX@@@Z 
01:0002F3A4 ?_removeAllBy@list@@SAXQAVrTypeLibrary@TypeLibraries@RunTime@VIP@@0XPAU?$__list_struct@PAX@@PAXPAPAU?$__list_struct@PAPAX@@@Z  (Idle)
01:0002F3D0 ?_removeAllEq@list@@SAXQAVrTypeLibrary@TypeLibraries@RunTime@VIP@@0XPAU?$__list_struct@PAX@@PAXPAPAU?$__list_struct@PAPAX@@@Z 
01:0002F480 ?_removeDuplicates@list@@SAXQAVrTypeLibrary@TypeLibraries@RunTime@VIP@@PAU?$__list_struct@PAX@@PAPAU?$__list_struct@PAPAX@@@Z  (Idle)
01:0002F4B4 ?_removeDuplicatesBy@list@@SAXQAVrTypeLibrary@TypeLibraries@RunTime@VIP@@XPAU?$__list_struct@PAX@@PAPAU?$__list_struct@PAPAX@@@Z  (Idle)
01:0002F4E8 ?_removeDuplicates1@list@@SAXQAVrTypeLibrary@TypeLibraries@RunTime@VIP@@PAU?$__list_struct@PAX@@QAVsetM@@@PAXPAPAU?$__list_struct@PAPAX@@@Z 
01:0002F5B8 ?_removeDuplicatesEq@list@@SAXQAVrTypeLibrary@TypeLibraries@RunTime@VIP@@XPAU?$__list_struct@PAX@@PAPAU?$__list_struct@PAPAX@@@Z 
01:0002F660 ?_anonymous$5$287_71$compare@list@@SAXPAUanonymous$5$287_71$comparec_struct@1@PAXPAXPAPAUcompareResult_struct@_builtIn@@@Z 
01:0002F678 ?_removeConsecutiveDuplicates@list@@SAXQAVrTypeLibrary@TypeLibraries@RunTime@VIP@@PAU?$__list_struct@PAX@@PAPAU?$__list_struct@PAPAX@@@Z  (Idle)
01:0002F6C4 ?_removeConsecutiveDuplicatesEq@list@@SAXQAVrTypeLibrary@TypeLibraries@RunTime@VIP@@XPAU?$__list_struct@PAX@@PAPAU?$__list_struct@PAPAX@@@Z 
01:0002F79C ?_removeConsecutiveDuplicatesBy@list@@SAXQAVrTypeLibrary@TypeLibraries@RunTime@VIP@@XPAU?$__list_struct@PAX@@PAPAU?$__list_struct@PAPAX@@@Z 
01:0002F870 ?_difference@list@@SAXQAVrTypeLibrary@TypeLibraries@RunTime@VIP@@PAU?$__list_struct@PAX@@1PAPAU?$__list_struct@PAPAX@@@Z 
01:0002F91C ?_differenceBy@list@@SAXQAVrTypeLibrary@TypeLibraries@RunTime@VIP@@0XPAU?$__list_struct@PAX@@3PAPAU?$__list_struct@PAPAX@@@Z  (Idle)
01:0002F948 ?_differenceEq@list@@SAXQAVrTypeLibrary@TypeLibraries@RunTime@VIP@@0XPAU?$__list_struct@PAX@@3PAPAU?$__list_struct@PAPAX@@@Z 
01:0002F9FC ?_nDuplicates@list@@SAXQAVrTypeLibrary@TypeLibraries@RunTime@VIP@@PAXPBUpositive@@PAPAU?$__list_struct@PAPAX@@@Z 
01:0002FA50 ?_tryGetIndex@list@@SAXQAVrTypeLibrary@TypeLibraries@RunTime@VIP@@PAXPAU?$__list_struct@PAX@@AAUpositive@@@Z  (Idle)
01:0002FA6C ?_tryGetIndex@list@@SAXQAVrTypeLibrary@TypeLibraries@RunTime@VIP@@PAXPAU?$__list_struct@PAX@@PBUpositive@@AAU2@@Z 
01:0002FAD8 ?_tryGetIndexBy@list@@SAXQAVrTypeLibrary@TypeLibraries@RunTime@VIP@@0XPAXPAU?$__list_struct@PAX@@AAUpositive@@@Z  (Idle)
01:0002FB28 ?_tryGetIndexEq@list@@SAXQAVrTypeLibrary@TypeLibraries@RunTime@VIP@@0XPAXPAU?$__list_struct@PAX@@AAUpositive@@@Z  (Idle)
01:0002FB44 ?_tryGetIndexEq@list@@SAXQAVrTypeLibrary@TypeLibraries@RunTime@VIP@@0XPAXPAU?$__list_struct@PAX@@PBUpositive@@AAU2@@Z 
01:0002FBC4 ?_tryLastItem@list@@SAXQAVrTypeLibrary@TypeLibraries@RunTime@VIP@@PAU?$__list_struct@PAX@@PAPAX@Z 
01:0002FC0C ?_nth@list@@SAXQAVrTypeLibrary@TypeLibraries@RunTime@VIP@@PBUpositive@@PAU?$__list_struct@PAX@@PAPAX@Z  (Idle)
01:0002FC80 ?_tryGetNth@list@@SAXQAVrTypeLibrary@TypeLibraries@RunTime@VIP@@PBUpositive@@PAU?$__list_struct@PAX@@PAPAX@Z 
01:0002FCE4 ?setNth@list@@SAXQAVrTypeLibrary@TypeLibraries@RunTime@VIP@@PBUpositive@@PAU?$__list_struct@PAX@@PAXPAPAU?$__list_struct@PAPAX@@@Z 
01:0002FDE8 ?split@list@@SAXQAVrTypeLibrary@TypeLibraries@RunTime@VIP@@PBUpositive@@PAU?$__list_struct@PAX@@PAPAU?$__list_struct@PAPAX@@3@Z 
01:0002FEA0 ?_take@list@@SAXQAVrTypeLibrary@TypeLibraries@RunTime@VIP@@PBUpositive@@PAU?$__list_struct@PAX@@PAPAU?$__list_struct@PAPAX@@@Z  (Idle)
01:0002FEC4 ?_drop@list@@SAXQAVrTypeLibrary@TypeLibraries@RunTime@VIP@@PBUpositive@@PAU?$__list_struct@PAX@@PAPAU?$__list_struct@PAPAX@@@Z 
01:0002FF24 ?_anonymous$6$394_31$compare@list@@SAXPAUanonymous$6$394_31$comparec_struct@1@PAXPAXPAPAUcompareResult_struct@_builtIn@@@Z 
01:0002FF3C ?_maximum@list@@SAXQAVrTypeLibrary@TypeLibraries@RunTime@VIP@@PAU?$__list_struct@PAX@@PAPAX@Z  (Idle)
01:0002FF88 ?_maximumBy@list@@SAXQAVrTypeLibrary@TypeLibraries@RunTime@VIP@@XPAU?$__list_struct@PAX@@PAPAX@Z 
01:0002FFD8 ?_anonymous$7$402_31$compare@list@@SAXPAUanonymous$7$402_31$comparec_struct@1@PAXPAXPAPAUcompareResult_struct@_builtIn@@@Z 
01:0002FFF0 ?_minimum@list@@SAXQAVrTypeLibrary@TypeLibraries@RunTime@VIP@@PAU?$__list_struct@PAX@@PAPAX@Z  (Idle)
01:0003003C ?_anonymous$8$407_53$minimumby/2@list@@SAXPAUanonymous$8$407_53$minimumby/2c_struct@1@PAXPAXPAPAUcompareResult_struct@_builtIn@@@Z 
01:0003006C ?_minimumBy@list@@SAXQAVrTypeLibrary@TypeLibraries@RunTime@VIP@@XPAU?$__list_struct@PAX@@PAPAX@Z 
01:000300F4 ?_extremum@list@@SAXQAVrTypeLibrary@TypeLibraries@RunTime@VIP@@XPAXPAU?$__list_struct@PAX@@PAPAX@Z 
01:00030174 ?_union@list@@SAXQAVrTypeLibrary@TypeLibraries@RunTime@VIP@@PAU?$__list_struct@PAX@@1PAPAU?$__list_struct@PAPAX@@@Z 
01:00030220 ?_unionBy@list@@SAXQAVrTypeLibrary@TypeLibraries@RunTime@VIP@@XPAU?$__list_struct@PAX@@2PAPAU?$__list_struct@PAPAX@@@Z  (Idle)
01:0003024C ?_unionEq@list@@SAXQAVrTypeLibrary@TypeLibraries@RunTime@VIP@@XPAU?$__list_struct@PAX@@2PAPAU?$__list_struct@PAPAX@@@Z 
01:000302FC ?_intersection@list@@SAXQAVrTypeLibrary@TypeLibraries@RunTime@VIP@@PAU?$__list_struct@PAX@@1PAPAU?$__list_struct@PAPAX@@@Z 
01:000303A0 ?_intersectionBy@list@@SAXQAVrTypeLibrary@TypeLibraries@RunTime@VIP@@XPAU?$__list_struct@PAX@@2PAPAU?$__list_struct@PAPAX@@@Z  (Idle)
01:000303CC ?_intersectionEq@list@@SAXQAVrTypeLibrary@TypeLibraries@RunTime@VIP@@XPAU?$__list_struct@PAX@@2PAPAU?$__list_struct@PAPAX@@@Z 
01:00030478 ?_filter@list@@SAXQAVrTypeLibrary@TypeLibraries@RunTime@VIP@@PAU?$__list_struct@PAX@@XPAPAU?$__list_struct@PAPAX@@@Z  (Idle)
01:000304FC ?filter@list@@SAXQAVrTypeLibrary@TypeLibraries@RunTime@VIP@@PAU?$__list_struct@PAX@@XPAPAU?$__list_struct@PAPAX@@3@Z 
01:000305E4 ?_decompose@list@@SAXQAVrTypeLibrary@TypeLibraries@RunTime@VIP@@0PAU?$__list_struct@PAX@@XPAPAU?$__list_struct@PAPAUtuple_struct@core@@PAPAXPAPAU?$__list_struct@PAPAX@@@@@Z  (Idle)
01:00030780 ?_map@list@@SAXQAVrTypeLibrary@TypeLibraries@RunTime@VIP@@0PAU?$__list_struct@PAX@@XPAPAU?$__list_struct@PAPAX@@@Z  (Idle)
01:00030808 ?_fold@list@@SAXQAVrTypeLibrary@TypeLibraries@RunTime@VIP@@0PAU?$__list_struct@PAX@@XPAXPAPAX@Z 
01:00030874 ?forAll@list@@SAXQAVrTypeLibrary@TypeLibraries@RunTime@VIP@@PAU?$__list_struct@PAX@@X@Z  (Idle)
01:000308BC ?exists@list@@SAXQAVrTypeLibrary@TypeLibraries@RunTime@VIP@@PAU?$__list_struct@PAX@@X@Z 
01:00030920 ?exceptionDifferentLength@list@@SAXPB_W@Z 
01:00030958 ?exceptionEmpty@list@@SAXPB_W@Z 
01:00030990 ?classInfo@list@@SAXPAPB_W0@Z 
--- From 'Obj\namedValue.0E580094.obj'
01:000309B0 ?classInfo@namedValue@@SAXPAPB_W0@Z 
01:000309CC ?_tryMapLookUp@namedValue@@SAXPAU?$__list_struct@U1@@@PB_WPAPAUvalue_struct@core@@@Z 
01:00030A28 ?_tryMapLookUpIgnoreCase@namedValue@@SAXPAU?$__list_struct@U1@@@PB_WPAPAUvalue_struct@core@@@Z 
01:00030A90 ?_mapLookUp@namedValue@@SAXPAU?$__list_struct@U1@@@PB_WPAPAUvalue_struct@core@@@Z 
01:00030B94 ?nameNotInMap@namedValue@@SAXPAXPAPB_W1@Z 
01:00030BBC ?_mapLookUp@namedValue@@SAXPAU?$__list_struct@U1@@@PB_WPAUvalue_struct@core@@PAPAU34@@Z  (Idle)
01:00030BF8 ?_lookUp_nd@namedValue@@SAXPAU?$__list_struct@U1@@@PB_WPAPAUvalue_struct@core@@@Z 
01:00030C68 ?_getNamed_integer@namedValue@@SAXPAU?$__list_struct@U1@@@PB_WPAH@Z  (Idle)
01:00030C98 ?_tryGetNamed_integer@namedValue@@SAXPAU?$__list_struct@U1@@@PB_WPAH@Z  (Idle)
01:00030CD8 ?_getNamedDefault_integer@namedValue@@SAXPAU?$__list_struct@U1@@@PB_WHPAH@Z  (Idle)
01:00030D30 ?_getNamed_unsigned@namedValue@@SAXPAU?$__list_struct@U1@@@PB_WPAI@Z  (Idle)
01:00030D60 ?_tryGetNamed_unsigned@namedValue@@SAXPAU?$__list_struct@U1@@@PB_WPAI@Z  (Idle)
01:00030DA0 ?_getNamedDefault_unsigned@namedValue@@SAXPAU?$__list_struct@U1@@@PB_WIPAI@Z  (Idle)
01:00030DF8 ?_getNamed_real@namedValue@@SAXPAU?$__list_struct@U1@@@PB_WPAPAN@Z  (Idle)
01:00030E28 ?_tryGetNamed_real@namedValue@@SAXPAU?$__list_struct@U1@@@PB_WPAPAN@Z  (Idle)
01:00030E68 ?_getNamedDefault_real@namedValue@@SAXPAU?$__list_struct@U1@@@PB_WPANPAPAN@Z  (Idle)
01:00030EC0 ?_getNamed_char@namedValue@@SAXPAU?$__list_struct@U1@@@PB_WPA_W@Z  (Idle)
01:00030EF0 ?_tryGetNamed_char@namedValue@@SAXPAU?$__list_struct@U1@@@PB_WPA_W@Z  (Idle)
01:00030F34 ?_getNamedDefault_char@namedValue@@SAXPAU?$__list_struct@U1@@@PB_W_WPA_W@Z  (Idle)
01:00030F90 ?_getNamed_string@namedValue@@SAXPAU?$__list_struct@U1@@@PB_WPAPB_W@Z  (Idle)
01:00030FC0 ?_tryGetNamed_string@namedValue@@SAXPAU?$__list_struct@U1@@@PB_WPAPB_W@Z 
01:00031000 ?_getNamedDefault_string@namedValue@@SAXPAU?$__list_struct@U1@@@PB_W1PAPB_W@Z  (Idle)
01:00031058 ?_getNamed_boolean@namedValue@@SAXPAU?$__list_struct@U1@@@PB_WPAPAUboolean_struct@_builtIn@@@Z  (Idle)
01:00031088 ?_tryGetNamed_boolean@namedValue@@SAXPAU?$__list_struct@U1@@@PB_WPAPAUboolean_struct@_builtIn@@@Z  (Idle)
01:000310C8 ?_getNamedDefault_boolean@namedValue@@SAXPAU?$__list_struct@U1@@@PB_WPAUboolean_struct@_builtIn@@PAPAU34@@Z  (Idle)
01:00031120 ?_getNamed_binary@namedValue@@SAXPAU?$__list_struct@U1@@@PB_WQAPAE@Z  (Idle)
01:000311A4 ?_tryGetNamed_binary@namedValue@@SAXPAU?$__list_struct@U1@@@PB_WQAPAE@Z  (Idle)
01:000311E4 ?_getNamedDefault_binary@namedValue@@SAXPAU?$__list_struct@U1@@@PB_WQAEQAPAE@Z  (Idle)
01:00031214 ?_getNamed_object@namedValue@@SAXPAU?$__list_struct@U1@@@PB_WPAPAV3@@@Z  (Idle)
01:00031298 ?_tryGetNamed_object@namedValue@@SAXPAU?$__list_struct@U1@@@PB_WPAPAV3@@@Z  (Idle)
01:000312D8 ?_getNamedDefault_object@namedValue@@SAXPAU?$__list_struct@U1@@@PB_WQAV3@@PAPAV3@@@Z  (Idle)
01:00031308 ?_getNamed_pointer@namedValue@@SAXPAU?$__list_struct@U1@@@PB_WPAPAX@Z  (Idle)
01:0003138C ?_tryGetNamed_pointer@namedValue@@SAXPAU?$__list_struct@U1@@@PB_WPAPAX@Z  (Idle)
01:000313CC ?_getNamedDefault_pointer@namedValue@@SAXPAU?$__list_struct@U1@@@PB_WPAXPAPAX@Z  (Idle)
01:00031424 ?_getNamed_handle@namedValue@@SAXPAU?$__list_struct@U1@@@PB_WAAU3@@Z  (Idle)
01:000314A8 ?_tryGetNamed_handle@namedValue@@SAXPAU?$__list_struct@U1@@@PB_WAAU3@@Z  (Idle)
01:000314E8 ?_getNamedDefault_handle@namedValue@@SAXPAU?$__list_struct@U1@@@PB_WPBU3@AAU3@@Z  (Idle)
01:00031540 ?_getNamed_gmtTimeValue@namedValue@@SAXPAU?$__list_struct@U1@@@PB_WPAAAU3@@Z  (Idle)
01:00031570 ?_tryGetNamed_gmtTimeValue@namedValue@@SAXPAU?$__list_struct@U1@@@PB_WPAAAU3@@Z  (Idle)
01:000315B0 ?_getNamedDefault_gmtTimeValue@namedValue@@SAXPAU?$__list_struct@U1@@@PB_WPAPBU3@PAAAU3@@Z  (Idle)
01:00031608 ?_getNamed_integer64@namedValue@@SAXPAU?$__list_struct@U1@@@PB_WPAPA_J@Z  (Idle)
01:0003168C ?_tryGetNamed_integer64@namedValue@@SAXPAU?$__list_struct@U1@@@PB_WPAPA_J@Z  (Idle)
01:000316CC ?_getNamedDefault_integer64@namedValue@@SAXPAU?$__list_struct@U1@@@PB_WPA_JPAPA_J@Z  (Idle)
01:000316FC ?_getNamed_unsigned64@namedValue@@SAXPAU?$__list_struct@U1@@@PB_WPAPA_K@Z  (Idle)
01:00031780 ?_tryGetNamed_unsigned64@namedValue@@SAXPAU?$__list_struct@U1@@@PB_WPAPA_K@Z  (Idle)
01:000317C0 ?_getNamedDefault_unsigned64@namedValue@@SAXPAU?$__list_struct@U1@@@PB_WPA_KPAPA_K@Z  (Idle)
--- From 'Obj\std.9E23208D.obj'
01:000317F0 ?classInfo@std@@SAXPAPB_W0@Z  (Idle)
01:0003180C ?_fromTo@std@@SAXHHPAH@Z 
01:00031858 ?_downTo@std@@SAXHHPAH@Z 
01:000318A4 ?_between@std@@SAXHHPAH@Z  (Idle)
01:00031944 ?_fromToInStep@std@@SAXHHPBUpositive@@PAH@Z 
01:00031994 ?_downToInStep@std@@SAXHHPBUpositive@@PAH@Z 
01:000319E4 ?_betweenInStep@std@@SAXHHPBUpositive@@PAH@Z  (Idle)
01:00031A98 ?_countFrom@std@@SAXHPAH@Z 
01:00031AC8 ?_countFromInStep@std@@SAXHPBUpositive@@PAH@Z 
01:00031AFC ?_countDownFrom@std@@SAXHPAH@Z 
01:00031B2C ?_countDownFromInStep@std@@SAXHPBUpositive@@PAH@Z 
01:00031B60 ?repeat@std@@SAXXZ 
01:00031B80 ?_fromTo@std@@SAXIIPAI@Z 
01:00031BCC ?_downTo@std@@SAXIIPAI@Z 
01:00031C18 ?_between@std@@SAXIIPAI@Z  (Idle)
--- From 'Obj\runTime_api.6CC3F910.obj'
01:00031CC0 ?classInfo@runtime_api@@SAXPAPB_W0@Z  (Idle)
01:00031CDC ?_determineOSV5@runtime_api@@SAXIIPBUunsigned16@@PAPB_W@Z 
01:00031F88 ?_determineOSV4@runtime_api@@SAXIIPBUunsigned16@@PAPB_W@Z 
01:00032020 ?_determineOSV6@runtime_api@@SAXIIPBUunsigned16@@PAPB_W@Z 
01:00032118 ?_determineMajorVersion@runtime_api@@SAXIIIPBUunsigned16@@PAPB_W@Z 
01:000321E4 ?_determineOSFamily@runtime_api@@SAXIPAPB_W@Z 
01:00032328 ?getOSVersion@runtime_api@@SAXQAVoutputStream@@@@Z 
01:00032478 ?_getSysInfoStr@runtime_api@@SAXPAPB_W@Z 
01:0003250C ?_systemInfo_native@runtime_api@@SAXXPAPAUsystem_Info_struct@systemInformation_native@@@Z 
01:0003253C ?_getNativeSysInfo@runtime_api@@SAXPAPB_W@Z 
01:00032620 ?_getRegInfo@runtime_api@@SAXPAPB_W@Z 
01:000326C4 ?_getRegInfoK@runtime_api@@SAXPB_WPAPB_W@Z 
01:00032730 ?_printString@runtime_api@@SAXPAUvalue_struct@core@@PAPB_W@Z 
01:00032784 ?_class_facts_initializer@runtime_api@@SGXXZ 
--- From 'Obj\locale_api.81889F56.obj'
01:000327A0 ?classInfo@locale_native@@SAXPAPB_W0@Z  (Idle)
01:000327BC ?classInfo@locale_api@@SAXPAPB_W0@Z  (Idle)
01:000327D8 ?_makeLangId@locale_api@@SAXIIPAI@Z  (Idle)
01:000327FC ?_primaryLangId@locale_api@@SAXIPAI@Z  (Idle)
01:00032818 ?_subLangId@locale_api@@SAXIPAI@Z  (Idle)
01:00032834 ?_makeLcId@locale_api@@SAXIIPAI@Z  (Idle)
01:00032858 ?_makeSortLcId@locale_api@@SAXIIIPAI@Z  (Idle)
01:000328A0 ?_langIdFromLcId@locale_api@@SAXIPAI@Z  (Idle)
01:000328BC ?_sortIdFromLcId@locale_api@@SAXIPAI@Z  (Idle)
01:000328E4 ?_sortVersionFromLcId@locale_api@@SAXIPAI@Z  (Idle)
--- From 'Obj\systemInformation_api.671D1739.obj'
01:00032900 ?classInfo@systemInformation_api@@SAXPAPB_W0@Z 
01:0003291C ?getVersionEx@systemInformation_api@@SAXPAIPAIPAIPAIPAPB_WAAUunsigned16@@55AAUunsigned8@@@Z 
01:00032A68 ?_allocWithSize@systemInformation_api@@SAXPBUbyteCount@@PAPAX@Z 
01:00032A94 ?systemInfo@systemInformation_api@@SGPAUsystem_Info_struct@systemInformation_native@@XZ 
01:00032AC4 ?_getUserName@systemInformation_api@@SAXPAPB_W@Z  (Idle)
01:00032B4C ?_getUserNameEx@systemInformation_api@@SAXPBUuserNameFormat@systemInformation_native@@PAPB_W@Z  (Idle)
01:00032BCC ?_getComputerName@systemInformation_api@@SAXPAPB_W@Z  (Idle)
01:00032C54 ?_getComputerNameEx@systemInformation_api@@SAXPBUcomputerNameFormat@systemInformation_native@@PAPB_W@Z  (Idle)
01:00032CD4 ?systemParametersInfo@systemInformation_api@@SAXIIPAXI@Z  (Idle)
01:00032D1C ?systemParametersInfo_outInt@systemInformation_api@@SAXIIPAHI@Z  (Idle)
01:00032D64 ?isVersionWindows98@systemInformation_api@@SAXXZ  (Idle)
--- From '.\releasepe\VIPMain.obj'
01:00032D70 _VIPStartUp@0  (Idle)
--- From '.\releasepe\VIPDll.obj'
01:00032DE0 _VIPSetDllHook@4  (Idle)
01:00032E00 ?tryCallHook@VIPDllHook@RunTime@VIP@@QBEHPAXK0@Z 
01:00032E50 ?VIPDllGetHandleModule@RunTime@VIP@@YAPAXXZ 
01:00032E60 _VIPDllMain@12  (Idle)
--- From '.\releasepe\VIPPE.obj'
01:00032F50 ?VIP_PE_Dialog@@YAXXZ 
Frame 033000   Size 000870.  Name=<  VIPini>, 	Chars=40000040h. [IR]
033000:000000 000004   VIPini$A::VIPini$A::VIPini F=4
--- From 'Obj\main.A22FE9BF.obj'
02:00033000 _VIPStartOfClassDescriptors 
033000:000004 0001D0   VIPini$C::VIPini$C::VIPini F=4
033000:0001D4 000008   VIPini$E::VIPini$E::VIPini F=4
Frame 034000   Size 000010.  Name=<  VIPsym>, 	Chars=40000040h. [IR]
034000:000000 000004   VIPsym$A::VIPsym$A::VIPsym F=4
--- From 'Obj\main.A22FE9BF.obj'
03:00034000 _VIPStartOfSymbols 
034000:000004 000000   VIPsym$C::VIPsym$C::VIPsym F=4
034000:000004 000008   VIPsym$E::VIPsym$E::VIPsym F=4
Frame 035000   Size 000E00.  Name=<  VIPtpl>, 	Chars=40000040h. [IR]
035000:000000 000004   VIPtpl$A::VIPtpl$A::VIPtpl F=4
--- From 'Obj\main.A22FE9BF.obj'
04:00035000 _VIPStartOfTypeLibraries 
035000:000004 000DE8   VIPtpl$C::VIPtpl$C::VIPtpl F=4
035000:000DEC 000008   VIPtpl$E::VIPtpl$E::VIPtpl F=4
Frame 036000   Size 01C200.  Name=<  .rdata>, 	Chars=40000040h. [IR]
036000:000000 00DE20   VIPClass::VIPClass::.rdata F=4
--- From 'Obj\main.A22FE9BF.obj'
05:00036000 class$main 
--- From 'Obj\string_api.6EE9B13E.obj'
05:00036040 class$_global 
--- From 'Obj\main.A22FE9BF.obj'
05:00036070 class$_builtIn 
--- From 'Obj\string.F4C46458.obj'
05:0003608C $integer$_builtIn$0$domain$ 
--- From 'Obj\binary.5C1BA76F.obj'
05:000360A4 $integer$_builtIn$0$domain$$type_library$ 
05:000360A8 $unsigned$_builtIn$0$domain$ 
--- From 'Obj\string_api.6EE9B13E.obj'
05:000360C0 $unsigned$_builtIn$0$domain$$type_library$ 
--- From 'Obj\math.D326B71E.obj'
05:000360C4 $real$_builtIn$0$domain$ 
--- From 'Obj\memory.75BC8824.obj'
05:000360E8 $real$_builtIn$0$domain$$type_library$ 
--- From 'Obj\math.D326B71E.obj'
05:000360EC $real32$_builtIn$0$domain$ 
--- From 'Obj\memory.75BC8824.obj'
05:00036110 $real32$_builtIn$0$domain$$type_library$ 
--- From 'Obj\main.A22FE9BF.obj'
05:00036114 $$byte$_builtIn$0$domain$ 
05:0003612C $$byte$_builtIn$0$domain$$type_library$  (Idle)
05:00036130 $string$_builtIn$0$domain$ 
--- From 'Obj\systemInformation_api.671D1739.obj'
05:0003613C $string$_builtIn$0$domain$$type_library$ 
--- From 'Obj\main.A22FE9BF.obj'
05:00036140 $symbol$_builtIn$0$domain$ 
05:0003614C $symbol$_builtIn$0$domain$$type_library$  (Idle)
05:00036150 $string8$_builtIn$0$domain$ 
--- From 'Obj\memory.75BC8824.obj'
05:0003615C $string8$_builtIn$0$domain$$type_library$ 
--- From 'Obj\main.A22FE9BF.obj'
05:00036160 $char$_builtIn$0$domain$ 
--- From 'Obj\string.F4C46458.obj'
05:0003616C $char$_builtIn$0$domain$$type_library$ 
--- From 'Obj\main.A22FE9BF.obj'
05:00036170 $binary$_builtIn$0$domain$ 
--- From 'Obj\binary.5C1BA76F.obj'
05:00036180 $binary$_builtIn$0$domain$$type_library$ 
--- From 'Obj\main.A22FE9BF.obj'
05:00036184 $binarynonatomic$_builtIn$0$domain$ 
--- From 'Obj\binary.5C1BA76F.obj'
05:00036194 $binarynonatomic$_builtIn$0$domain$$type_library$ 
--- From 'Obj\main.A22FE9BF.obj'
05:00036198 $pointer$_builtIn$0$domain$ 
--- From 'Obj\systemInformation_api.671D1739.obj'
05:000361A4 $pointer$_builtIn$0$domain$$type_library$ 
--- From 'Obj\main.A22FE9BF.obj'
05:000361A8 $handle$_builtIn$0$domain$ 
--- From 'Obj\multiThread_api.F2BE0D3B.obj'
05:000361B4 $handle$_builtIn$0$domain$$type_library$ 
--- From 'Obj\main.A22FE9BF.obj'
05:000361B8 $factdb$_builtIn$0$domain$ 
05:000361C4 $factdb$_builtIn$0$domain$$type_library$  (Idle)
05:000361C8 $...$_builtIn$0$domain$ 
05:000361D4 $...$_builtIn$0$domain$$type_library$  (Idle)
--- From 'Obj\binary.5C1BA76F.obj'
05:000361D8 $integer64$_builtIn$0$domain$ 
--- From 'Obj\memory.75BC8824.obj'
05:000361F8 $integer64$_builtIn$0$domain$$type_library$ 
05:000361FC $unsigned64$_builtIn$0$domain$ 
--- From 'Obj\memory_api.26CFD9D6.obj'
05:0003621C $unsigned64$_builtIn$0$domain$$type_library$ 
--- From 'Obj\main.A22FE9BF.obj'
05:00036220 $any$_builtIn$0$domain$ 
05:0003622C $any$_builtIn$0$domain$$type_library$  (Idle)
05:00036230 $integernative$_builtIn$0$domain$ 
--- From 'Obj\gui_api.C64EF22C.obj'
05:00036248 $integernative$_builtIn$0$domain$$type_library$ 
--- From 'Obj\memory.75BC8824.obj'
05:0003624C $unsignednative$_builtIn$0$domain$ 
05:00036264 $unsignednative$_builtIn$0$domain$$type_library$ 
--- From 'Obj\namedValue.0E580094.obj'
05:00036280 $*$_builtIn$1$domain$ 
--- From 'Obj\main.A22FE9BF.obj'
05:000362A4 $_someType$_builtIn$0$domain$ 
05:000362BC $_someType$_builtIn$0$domain$$type_library$  (Idle)
05:000362C0 $boolean$_builtIn$0$domain$ 
--- From 'Obj\fileSystem.03D2CA18.obj'
05:000362DC $boolean$_builtIn$0$domain$$type_library$ 
--- From 'Obj\main.A22FE9BF.obj'
05:000362E0 $compareResult$_builtIn$0$domain$ 
05:00036300 $compareResult$_builtIn$0$domain$$type_library$  (Idle)
--- From 'Obj\time_api.06541A64.obj'
05:00036310 $$inline_1$_builtIn$1$domain$ 
--- From 'Obj\registry.70FB0061.obj'
05:00036550 class$registry 
05:0003656C $rootKey$registry$0$domain$ 
05:0003659C $rootKey$registry$0$domain$$type_library$ 
05:000366A0 class$registry_exception 
--- From 'Obj\registry_api.4F19C9C1.obj'
05:00036730 class$registry_api 
05:000367C0 class$registry_native 
05:000367F0 $securityAttr$registry_native$0$domain$ 
05:00036808 $securityAttr$registry_native$0$domain$$type_library$  (Idle)
--- From 'Obj\boolean.5CA1A2E0.obj'
05:000368C0 class$boolean 
--- From 'Obj\mapM_redBlack.55C022F2.obj'
05:00036920 class$mapM_redBlack{@Key,@Data} 
05:00036CFC class$mapM_redBlack{@Key,@Data}$vtable$  (Idle)
--- From 'Obj\setM_redBlack.1C81612B.obj'
05:00037050 class$setM_redBlack{@Type} 
05:0003726C class$setM_redBlack{@Type}$vtable$  (Idle)
--- From 'Obj\string8.5F8F6B63.obj'
05:000374C0 class$string8 
--- From 'Obj\Shell_api.8B3C7C0A.obj'
05:00037520 class$shell_api 
05:000375A0 class$shell_native 
05:00037600 $shellExecuteInfo$shell_native$0$domain$ 
05:00037618 $shellExecuteInfo$shell_native$0$domain$$type_library$  (Idle)
05:00037658 $appBarData$shell_native$0$domain$ 
05:00037670 $appBarData$shell_native$0$domain$$type_library$  (Idle)
--- From 'Obj\fileSystem.03D2CA18.obj'
05:0003769C $shFileOpStruct$shell_native$0$domain$ 
--- From 'Obj\Shell_api.8B3C7C0A.obj'
05:000376B4 $shFileOpStruct$shell_native$0$domain$$type_library$  (Idle)
05:000376D0 $sHNameMapping$shell_native$0$domain$ 
05:000376E8 $sHNameMapping$shell_native$0$domain$$type_library$  (Idle)
05:0003770C $shQueryRBinfo$shell_native$0$domain$ 
05:00037724 $shQueryRBinfo$shell_native$0$domain$$type_library$  (Idle)
05:000377A8 $notifyIcondata$shell_native$0$domain$ 
05:000377C0 $notifyIcondata$shell_native$0$domain$$type_library$  (Idle)
05:00037800 $sHFileInfo$shell_native$0$domain$ 
05:00037818 $sHFileInfo$shell_native$0$domain$$type_library$  (Idle)
--- From 'Obj\fileSystem.03D2CA18.obj'
05:00037844 $browseinfo$shell_native$0$domain$ 
--- From 'Obj\Shell_api.8B3C7C0A.obj'
05:0003785C $browseinfo$shell_native$0$domain$$type_library$  (Idle)
05:00037860 $browseCallbackProc$shell_native$0$domain$ 
05:00037870 $browseCallbackProc$shell_native$0$domain$$type_library$ 
05:00037880 $$inline_64$shell_native$1$domain$ 
05:000378A4 $$inline_256$shell_native$1$domain$ 
05:000378C8 $$inline_260$shell_native$1$domain$ 
05:000378EC $$inline_80$shell_native$1$domain$ 
--- From 'Obj\vpiDomains.B278478A.obj'
05:00037B90 class$vpiDomains 
--- From 'Obj\gui_api.C64EF22C.obj'
05:00037BBC $pnt$vpiDomains$0$domain$ 
05:00037BD4 $pnt$vpiDomains$0$domain$$type_library$ 
--- From 'Obj\vpiDomains.B278478A.obj'
05:00037BF0 $rct$vpiDomains$0$domain$ 
--- From 'Obj\gui_api.C64EF22C.obj'
05:00037C08 $rct$vpiDomains$0$domain$$type_library$ 
--- From 'Obj\vpiDomains.B278478A.obj'
05:00037C1C $brush$vpiDomains$0$domain$ 
05:00037C34 $brush$vpiDomains$0$domain$$type_library$ 
05:00037C4C $pen$vpiDomains$0$domain$ 
05:00037C64 $pen$vpiDomains$0$domain$$type_library$ 
05:00037C8C $drawtools$vpiDomains$0$domain$ 
05:00037CA4 $drawtools$vpiDomains$0$domain$$type_library$  (Idle)
05:00037CD0 $menu$vpiDomains$0$domain$ 
05:00037CF0 $menu$vpiDomains$0$domain$$type_library$ 
05:00037CF4 $keyModifier$vpiDomains$0$domain$ 
05:00037D0C $keyModifier$vpiDomains$0$domain$$type_library$ 
05:00037D28 $acceleratorKey$vpiDomains$0$domain$ 
05:00037D44 $acceleratorKey$vpiDomains$0$domain$$type_library$ 
05:00037DA4 $menuItem$vpiDomains$0$domain$ 
05:00037DC8 $menuItem$vpiDomains$0$domain$$type_library$ 
05:00037FF0 $event$vpiDomains$0$domain$ 
05:00038090 $event$vpiDomains$0$domain$$type_library$  (Idle)
05:000380A8 $handledFlag$vpiDomains$0$domain$ 
05:000380C4 $handledFlag$vpiDomains$0$domain$$type_library$  (Idle)
05:000380C8 $createHandler$vpiDomains$0$domain$ 
05:000380D8 $createHandler$vpiDomains$0$domain$$type_library$  (Idle)
05:000380DC $destroyHandler$vpiDomains$0$domain$ 
05:000380EC $destroyHandler$vpiDomains$0$domain$$type_library$  (Idle)
05:000380F0 $getFocusHandler$vpiDomains$0$domain$ 
05:00038100 $getFocusHandler$vpiDomains$0$domain$$type_library$  (Idle)
05:00038104 $loseFocusHandler$vpiDomains$0$domain$ 
05:00038114 $loseFocusHandler$vpiDomains$0$domain$$type_library$  (Idle)
05:00038118 $sizeHandler$vpiDomains$0$domain$ 
05:00038128 $sizeHandler$vpiDomains$0$domain$$type_library$  (Idle)
05:0003812C $moveHandler$vpiDomains$0$domain$ 
05:0003813C $moveHandler$vpiDomains$0$domain$$type_library$  (Idle)
05:00038140 $updateHandler$vpiDomains$0$domain$ 
05:00038150 $updateHandler$vpiDomains$0$domain$$type_library$  (Idle)
05:00038154 $eraseBackgroundHandler$vpiDomains$0$domain$ 
05:00038164 $eraseBackgroundHandler$vpiDomains$0$domain$$type_library$  (Idle)
05:00038168 $closeRequestHandler$vpiDomains$0$domain$ 
05:00038178 $closeRequestHandler$vpiDomains$0$domain$$type_library$  (Idle)
05:0003817C $mouseDownHandler$vpiDomains$0$domain$ 
05:0003818C $mouseDownHandler$vpiDomains$0$domain$$type_library$  (Idle)
05:00038190 $mouseUpHandler$vpiDomains$0$domain$ 
05:000381A0 $mouseUpHandler$vpiDomains$0$domain$$type_library$  (Idle)
05:000381A4 $mouseDblHandler$vpiDomains$0$domain$ 
05:000381B4 $mouseDblHandler$vpiDomains$0$domain$$type_library$  (Idle)
05:000381B8 $mouseMoveHandler$vpiDomains$0$domain$ 
05:000381C8 $mouseMoveHandler$vpiDomains$0$domain$$type_library$  (Idle)
05:000381CC $charHandler$vpiDomains$0$domain$ 
05:000381DC $charHandler$vpiDomains$0$domain$$type_library$  (Idle)
05:000381E0 $keyDownHandler$vpiDomains$0$domain$ 
05:000381F0 $keyDownHandler$vpiDomains$0$domain$$type_library$  (Idle)
05:000381F4 $keyUpHandler$vpiDomains$0$domain$ 
05:00038204 $keyUpHandler$vpiDomains$0$domain$$type_library$  (Idle)
05:00038208 $vScrollHandler$vpiDomains$0$domain$ 
05:00038218 $vScrollHandler$vpiDomains$0$domain$$type_library$  (Idle)
05:0003821C $hScrollHandler$vpiDomains$0$domain$ 
05:0003822C $hScrollHandler$vpiDomains$0$domain$$type_library$  (Idle)
05:00038230 $menuItemHandler$vpiDomains$0$domain$ 
05:00038240 $menuItemHandler$vpiDomains$0$domain$$type_library$  (Idle)
05:00038244 $initMenuHandler$vpiDomains$0$domain$ 
05:00038254 $initMenuHandler$vpiDomains$0$domain$$type_library$  (Idle)
05:00038258 $controlHandler$vpiDomains$0$domain$ 
05:00038268 $controlHandler$vpiDomains$0$domain$$type_library$  (Idle)
05:0003826C $timerHandler$vpiDomains$0$domain$ 
05:0003827C $timerHandler$vpiDomains$0$domain$$type_library$  (Idle)
05:00038280 $ownerMeasureItemHandler$vpiDomains$0$domain$ 
05:00038290 $ownerMeasureItemHandler$vpiDomains$0$domain$$type_library$  (Idle)
05:00038294 $ownerDrawHandler$vpiDomains$0$domain$ 
05:000382A4 $ownerDrawHandler$vpiDomains$0$domain$$type_library$  (Idle)
05:000382A8 $ddeHandler$vpiDomains$0$domain$ 
05:000382B8 $ddeHandler$vpiDomains$0$domain$$type_library$  (Idle)
05:000382BC $endSessionHandler$vpiDomains$0$domain$ 
05:000382CC $endSessionHandler$vpiDomains$0$domain$$type_library$  (Idle)
05:000382D0 $nativeHandler$vpiDomains$0$domain$ 
05:000382E0 $nativeHandler$vpiDomains$0$domain$$type_library$  (Idle)
05:000382E4 $eventUserHandler$vpiDomains$0$domain$ 
05:000382F4 $eventUserHandler$vpiDomains$0$domain$$type_library$  (Idle)
05:000382F8 $endApplicationHandler$vpiDomains$0$domain$ 
05:00038308 $endApplicationHandler$vpiDomains$0$domain$$type_library$  (Idle)
05:0003830C $stateHandler$vpiDomains$0$domain$ 
05:0003831C $stateHandler$vpiDomains$0$domain$$type_library$  (Idle)
05:00038320 $activateHandler$vpiDomains$0$domain$ 
05:00038330 $activateHandler$vpiDomains$0$domain$$type_library$  (Idle)
05:00038334 $deactivateHandler$vpiDomains$0$domain$ 
05:00038344 $deactivateHandler$vpiDomains$0$domain$$type_library$  (Idle)
05:00038390 $controlInfo$vpiDomains$0$domain$ 
05:000383C4 $controlInfo$vpiDomains$0$domain$$type_library$ 
05:00038400 $stateInfo$vpiDomains$0$domain$ 
05:0003842C $stateInfo$vpiDomains$0$domain$$type_library$ 
05:0003850C $windef$vpiDomains$0$domain$ 
05:00038540 $windef$vpiDomains$0$domain$$type_library$  (Idle)
05:0003855C $wdef$vpiDomains$0$domain$ 
05:00038574 $wdef$vpiDomains$0$domain$$type_library$ 
05:00038578 $errhandler$vpiDomains$0$domain$ 
05:00038588 $errhandler$vpiDomains$0$domain$$type_library$  (Idle)
05:0003858C $eHandler$vpiDomains$0$domain$ 
05:0003859C $eHandler$vpiDomains$0$domain$$type_library$  (Idle)
05:000385B4 $accelerator$vpiDomains$0$domain$ 
05:000385CC $accelerator$vpiDomains$0$domain$$type_library$  (Idle)
05:000385F4 $bitmapId$vpiDomains$0$domain$ 
05:00038614 $bitmapId$vpiDomains$0$domain$$type_library$  (Idle)
05:00038628 $ddeserviceInfo$vpiDomains$0$domain$ 
05:00038640 $ddeserviceInfo$vpiDomains$0$domain$$type_library$  (Idle)
05:00038670 $ddedata$vpiDomains$0$domain$ 
05:00038694 $ddedata$vpiDomains$0$domain$$type_library$ 
05:00038768 $ddeevent$vpiDomains$0$domain$ 
05:000387B0 $ddeevent$vpiDomains$0$domain$$type_library$ 
05:000387B4 $alignment$vpiDomains$0$domain$ 
05:000387D4 $alignment$vpiDomains$0$domain$$type_library$  (Idle)
05:00039480 class$vpiOwnerDraw 
--- From 'Obj\gui_api.C64EF22C.obj'
05:00039500 class$gui_api 
05:00039538 $scrollInfo$gui_api$0$domain$ 
05:00039550 $scrollInfo$gui_api$0$domain$$type_library$  (Idle)
05:00039570 $windowPlacement$gui_api$0$domain$ 
05:00039588 $windowPlacement$gui_api$0$domain$$type_library$  (Idle)
05:00039650 class$gui_native 
05:000396D8 $logfont$gui_native$0$domain$ 
05:000396F0 $logfont$gui_native$0$domain$$type_library$  (Idle)
05:0003970C $mouseMovePoint$gui_native$0$domain$ 
05:00039724 $mouseMovePoint$gui_native$0$domain$$type_library$  (Idle)
05:00039728 $enumDesktopProc$gui_native$0$domain$ 
05:00039738 $enumDesktopProc$gui_native$0$domain$$type_library$  (Idle)
05:0003973C $enumWindowStationProc$gui_native$0$domain$ 
05:0003974C $enumWindowStationProc$gui_native$0$domain$$type_library$  (Idle)
05:00039788 $security_descriptor$gui_native$0$domain$ 
05:000397A0 $security_descriptor$gui_native$0$domain$$type_library$  (Idle)
05:000397D0 $acl$gui_native$0$domain$ 
05:000397E8 $acl$gui_native$0$domain$$type_library$ 
05:0003980C $copyDataStruct$gui_native$0$domain$ 
05:00039824 $copyDataStruct$gui_native$0$domain$$type_library$  (Idle)
05:00039840 $trackMouseEvent$gui_native$0$domain$ 
05:00039858 $trackMouseEvent$gui_native$0$domain$$type_library$  (Idle)
05:00039898 $msg$gui_native$0$domain$ 
05:000398B0 $msg$gui_native$0$domain$$type_library$  (Idle)
05:000398B4 $sendAsyncProc$gui_native$0$domain$ 
05:000398C4 $sendAsyncProc$gui_native$0$domain$$type_library$  (Idle)
05:000398C8 $wndProc$gui_native$0$domain$ 
05:000398D8 $wndProc$gui_native$0$domain$$type_library$ 
05:00039934 $wndClassEx$gui_native$0$domain$ 
05:0003994C $wndClassEx$gui_native$0$domain$$type_library$  (Idle)
05:000399A8 $createstruct$gui_native$0$domain$ 
05:000399C0 $createstruct$gui_native$0$domain$$type_library$  (Idle)
05:000399E0 $flashInfo$gui_native$0$domain$ 
05:000399F8 $flashInfo$gui_native$0$domain$$type_library$  (Idle)
05:00039A20 $windowPos$gui_native$0$domain$ 
05:00039A38 $windowPos$gui_native$0$domain$$type_library$  (Idle)
05:00039A88 $windowPlacement$gui_native$0$domain$ 
05:00039AA0 $windowPlacement$gui_native$0$domain$$type_library$  (Idle)
05:00039B00 $windowInfo$gui_native$0$domain$ 
05:00039B18 $windowInfo$gui_native$0$domain$$type_library$  (Idle)
05:00039B54 $monitorInfo$gui_native$0$domain$ 
05:00039B6C $monitorInfo$gui_native$0$domain$$type_library$  (Idle)
05:00039BB4 $monitorInfoEx$gui_native$0$domain$ 
05:00039BCC $monitorInfoEx$gui_native$0$domain$$type_library$  (Idle)
05:00039BD0 $monitorEnumProc$gui_native$0$domain$ 
05:00039BE0 $monitorEnumProc$gui_native$0$domain$$type_library$  (Idle)
05:00039C1C $dlgTemplate$gui_native$0$domain$ 
05:00039C34 $dlgTemplate$gui_native$0$domain$$type_library$  (Idle)
05:00039C38 $timerProc$gui_native$0$domain$ 
05:00039C48 $timerProc$gui_native$0$domain$$type_library$  (Idle)
05:00039C6C $accel$gui_native$0$domain$ 
05:00039C84 $accel$gui_native$0$domain$$type_library$  (Idle)
05:00039CE0 $menuItemInfo$gui_native$0$domain$ 
05:00039CF8 $menuItemInfo$gui_native$0$domain$$type_library$  (Idle)
05:00039D18 $drawTextParams$gui_native$0$domain$ 
05:00039D30 $drawTextParams$gui_native$0$domain$$type_library$  (Idle)
05:00039D34 $grayStringProc$gui_native$0$domain$ 
05:00039D44 $grayStringProc$gui_native$0$domain$$type_library$  (Idle)
05:00039D48 $drawStateProc$gui_native$0$domain$ 
05:00039D58 $drawStateProc$gui_native$0$domain$$type_library$  (Idle)
05:00039D78 $size$gui_native$0$domain$ 
05:00039D90 $size$gui_native$0$domain$$type_library$  (Idle)
05:00039E1C $textmetric$gui_native$0$domain$ 
05:00039E34 $textmetric$gui_native$0$domain$$type_library$  (Idle)
05:00039E7C $paintStruct$gui_native$0$domain$ 
05:00039E94 $paintStruct$gui_native$0$domain$$type_library$  (Idle)
05:00039E98 $propEnumProc$gui_native$0$domain$ 
05:00039EA8 $propEnumProc$gui_native$0$domain$$type_library$  (Idle)
05:00039EAC $wndEnumProc$gui_native$0$domain$ 
05:00039EBC $wndEnumProc$gui_native$0$domain$$type_library$  (Idle)
05:00039EC0 $hookProc$gui_native$0$domain$ 
05:00039ED0 $hookProc$gui_native$0$domain$$type_library$  (Idle)
05:00039EF0 $iconInfo$gui_native$0$domain$ 
05:00039F08 $iconInfo$gui_native$0$domain$$type_library$  (Idle)
05:00039F20 $nmhdr$gui_native$0$domain$ 
05:00039F38 $nmhdr$gui_native$0$domain$$type_library$  (Idle)
05:00039F60 $scrollInfo$gui_native$0$domain$ 
05:00039F78 $scrollInfo$gui_native$0$domain$$type_library$ 
05:00039FDC $scrollBarInfo$gui_native$0$domain$ 
05:00039FF4 $scrollBarInfo$gui_native$0$domain$$type_library$  (Idle)
05:0003A00C $logbrush$gui_native$0$domain$ 
05:0003A024 $logbrush$gui_native$0$domain$$type_library$  (Idle)
05:0003A038 $tagInitCommonControlsEx$gui_native$0$domain$ 
05:0003A050 $tagInitCommonControlsEx$gui_native$0$domain$$type_library$  (Idle)
05:0003A074 $mouseInput$gui_native$0$domain$ 
05:0003A08C $mouseInput$gui_native$0$domain$$type_library$ 
05:0003A0BC $keybdInput$gui_native$0$domain$ 
05:0003A0D4 $keybdInput$gui_native$0$domain$$type_library$ 
05:0003A0F8 $hardwareInput$gui_native$0$domain$ 
05:0003A110 $hardwareInput$gui_native$0$domain$$type_library$ 
05:0003A114 $inputUnion$gui_native$0$domain$ 
05:0003A134 $inputUnion$gui_native$0$domain$$type_library$ 
05:0003A148 $input$gui_native$0$domain$ 
05:0003A160 $input$gui_native$0$domain$$type_library$  (Idle)
05:0003A1B0 $wndClass$gui_native$0$domain$ 
05:0003A1C8 $wndClass$gui_native$0$domain$$type_library$  (Idle)
05:0003A1E0 $inputUnion_mi$gui_native$0$domain$ 
05:0003A1F8 $inputUnion_mi$gui_native$0$domain$$type_library$  (Idle)
05:0003A210 $inputUnion_ki$gui_native$0$domain$ 
05:0003A228 $inputUnion_ki$gui_native$0$domain$$type_library$  (Idle)
05:0003A240 $inputUnion_hi$gui_native$0$domain$ 
05:0003A258 $inputUnion_hi$gui_native$0$domain$$type_library$  (Idle)
05:0003A268 $$inline_32$gui_native$1$domain$ 
--- From 'Obj\mapMSupport.F2ECDBAC.obj'
05:0003A9D0 class$collectionSupportM\mapMSupport{@Key,@Data} 
05:0003AB6C class$collectionSupportM\mapMSupport{@Key,@Data}$vtable$ 
--- From 'Obj\redBlackTree.6E2D2CC8.obj'
05:0003ADB0 class$redBlackTree 
05:0003ADCC $color$redBlackTree$0$domain$ 
05:0003ADE8 $color$redBlackTree$0$domain$$type_library$ 
05:0003AE10 $treeRep$redBlackTree$2$domain$ 
05:0003AE2C $uniqueKey$redBlackTree$0$domain$ 
05:0003AE48 $uniqueKey$redBlackTree$0$domain$$type_library$ 
05:0003AE5C $treeProperty$redBlackTree$1$domain$ 
05:0003AE98 $tree$redBlackTree$2$domain$ 
--- From 'Obj\redBlackSet.97D1E054.obj'
05:0003B0F0 class$redBlackSet 
05:0003B10C $color$redBlackSet$0$domain$ 
05:0003B128 $color$redBlackSet$0$domain$$type_library$ 
05:0003B14C $setRep$redBlackSet$1$domain$ 
05:0003B180 $set$redBlackSet$1$domain$ 
--- From 'Obj\collectionMsupport.B3E5070C.obj'
05:0003B300 class$collectionSupportM\collectionMsupport{@Type} 
05:0003B39C class$collectionSupportM\collectionMsupport{@Type}$vtable$ 
--- From 'Obj\exe.064FFF24.obj'
05:0003B570 class$mainExe 
05:0003B5A8 $runMode$mainExe$0$domain$ 
05:0003B5C4 $runMode$mainExe$0$domain$$type_library$ 
--- From 'Obj\console.FF8DBACA.obj'
05:0003B6E0 class$console 
05:0003B758 $event$console$0$domain$ 
05:0003B780 $event$console$0$domain$$type_library$  (Idle)
05:0003B8D0 class$inputStream_console 
05:0003BB38 class$inputStream_console$vtable$  (Idle)
05:0003BD70 class$outputStream_console 
05:0003BF3C class$outputStream_console$vtable$  (Idle)
--- From 'Obj\core.6F82B3D2.obj'
05:0003C150 class$core 
--- From 'Obj\memory.75BC8824.obj'
05:0003C16C $unsigned8$core$0$domain$ 
--- From 'Obj\systemInformation_api.671D1739.obj'
05:0003C184 $unsigned8$core$0$domain$$type_library$ 
--- From 'Obj\memory.75BC8824.obj'
05:0003C188 $unsigned16$core$0$domain$ 
--- From 'Obj\systemInformation_api.671D1739.obj'
05:0003C1A0 $unsigned16$core$0$domain$$type_library$ 
--- From 'Obj\core.6F82B3D2.obj'
05:0003C1A4 $unsigned32$core$0$domain$ 
--- From 'Obj\systemInformation_api.671D1739.obj'
05:0003C1BC $unsigned32$core$0$domain$$type_library$ 
--- From 'Obj\memory.75BC8824.obj'
05:0003C1D0 $unsigned64_struct$core$0$domain$ 
--- From 'Obj\core.6F82B3D2.obj'
05:0003C1E8 $unsigned64_struct$core$0$domain$$type_library$  (Idle)
05:0003C1EC $integer8$core$0$domain$ 
--- From 'Obj\memory.75BC8824.obj'
05:0003C204 $integer8$core$0$domain$$type_library$ 
--- From 'Obj\core.6F82B3D2.obj'
05:0003C208 $integer16$core$0$domain$ 
--- From 'Obj\memory.75BC8824.obj'
05:0003C220 $integer16$core$0$domain$$type_library$ 
--- From 'Obj\core.6F82B3D2.obj'
05:0003C224 $integer32$core$0$domain$ 
--- From 'Obj\time_api.06541A64.obj'
05:0003C23C $integer32$core$0$domain$$type_library$ 
--- From 'Obj\memory.75BC8824.obj'
05:0003C250 $integer64_struct$core$0$domain$ 
--- From 'Obj\core.6F82B3D2.obj'
05:0003C268 $integer64_struct$core$0$domain$$type_library$  (Idle)
--- From 'Obj\namedValue.0E580094.obj'
05:0003C27C $namedValue$core$0$domain$ 
05:0003C294 $namedValue$core$0$domain$$type_library$ 
--- From 'Obj\core.6F82B3D2.obj'
05:0003C2B4 $codePage$core$0$domain$ 
--- From 'Obj\string_api.6EE9B13E.obj'
05:0003C2D4 $codePage$core$0$domain$$type_library$ 
--- From 'Obj\core.6F82B3D2.obj'
05:0003C2D8 $classInfo$core$0$domain$ 
05:0003C2E8 $classInfo$core$0$domain$$type_library$  (Idle)
05:0003C2EC $exception$core$0$domain$ 
05:0003C2FC $exception$core$0$domain$$type_library$  (Idle)
05:0003C350 $nativeGuid$core$0$domain$ 
05:0003C368 $nativeGuid$core$0$domain$$type_library$  (Idle)
05:0003C36C $byteCountOptional$core$0$domain$ 
05:0003C384 $byteCountOptional$core$0$domain$$type_library$  (Idle)
--- From 'Obj\binary.5C1BA76F.obj'
05:0003C388 $byteCount$core$0$domain$ 
05:0003C3A0 $byteCount$core$0$domain$$type_library$ 
--- From 'Obj\core.6F82B3D2.obj'
05:0003C3A4 $charCountOptional$core$0$domain$ 
05:0003C3BC $charCountOptional$core$0$domain$$type_library$  (Idle)
--- From 'Obj\string8_api.7710D13D.obj'
05:0003C3C0 $charCount$core$0$domain$ 
--- From 'Obj\memory.75BC8824.obj'
05:0003C3D8 $charCount$core$0$domain$$type_library$ 
--- From 'Obj\core.6F82B3D2.obj'
05:0003C3DC $positiveOptional$core$0$domain$ 
05:0003C3F4 $positiveOptional$core$0$domain$$type_library$  (Idle)
--- From 'Obj\exe_api.92EB01D8.obj'
05:0003C3F8 $positive$core$0$domain$ 
--- From 'Obj\list.372A041A.obj'
05:0003C410 $positive$core$0$domain$$type_library$ 
05:0003C424 $tuple$core$2$domain$ 
05:0003C450 $tuple$core$3$domain$ 
--- From 'Obj\core.6F82B3D2.obj'
05:0003C480 $tuple$core$4$domain$ 
05:0003C4B4 $tuple$core$5$domain$ 
05:0003C4EC $tuple$core$6$domain$ 
05:0003C528 $tuple$core$7$domain$ 
05:0003C568 $tuple$core$8$domain$ 
05:0003C5AC $tuple$core$9$domain$ 
05:0003C5F4 $tuple$core$10$domain$ 
05:0003C640 $tuple$core$11$domain$ 
05:0003C690 $tuple$core$12$domain$ 
--- From 'Obj\outputStreamSupport.F4FF31D0.obj'
05:0003C6BC $optional$core$1$domain$ 
--- From 'Obj\core.6F82B3D2.obj'
05:0003C6D8 $function$core$1$domain$ 
05:0003C6E8 $function$core$1$domain$$type_library$  (Idle)
05:0003C6EC $function$core$2$domain$ 
05:0003C6FC $function$core$2$domain$$type_library$  (Idle)
05:0003C700 $function$core$3$domain$ 
--- From 'Obj\list.372A041A.obj'
05:0003C710 $function$core$3$domain$$type_library$ 
--- From 'Obj\core.6F82B3D2.obj'
05:0003C714 $function$core$4$domain$ 
05:0003C724 $function$core$4$domain$$type_library$  (Idle)
05:0003C728 $function$core$5$domain$ 
05:0003C738 $function$core$5$domain$$type_library$  (Idle)
05:0003C73C $function$core$6$domain$ 
05:0003C74C $function$core$6$domain$$type_library$  (Idle)
05:0003C750 $predicate$core$0$domain$ 
05:0003C760 $predicate$core$0$domain$$type_library$  (Idle)
05:0003C764 $predicate$core$1$domain$ 
--- From 'Obj\outputStreamSupport.F4FF31D0.obj'
05:0003C774 $predicate$core$1$domain$$type_library$ 
--- From 'Obj\core.6F82B3D2.obj'
05:0003C778 $predicate$core$2$domain$ 
05:0003C788 $predicate$core$2$domain$$type_library$  (Idle)
05:0003C78C $predicate$core$3$domain$ 
05:0003C79C $predicate$core$3$domain$$type_library$  (Idle)
05:0003C7A0 $predicate$core$4$domain$ 
05:0003C7B0 $predicate$core$4$domain$$type_library$  (Idle)
05:0003C7B4 $predicate$core$5$domain$ 
05:0003C7C4 $predicate$core$5$domain$$type_library$  (Idle)
05:0003C7C8 $predicate_dt$core$0$domain$ 
05:0003C7D8 $predicate_dt$core$0$domain$$type_library$  (Idle)
05:0003C7DC $predicate_dt$core$1$domain$ 
05:0003C7EC $predicate_dt$core$1$domain$$type_library$  (Idle)
05:0003C7F0 $predicate_dt$core$2$domain$ 
05:0003C800 $predicate_dt$core$2$domain$$type_library$  (Idle)
05:0003C804 $predicate_dt$core$3$domain$ 
05:0003C814 $predicate_dt$core$3$domain$$type_library$  (Idle)
05:0003C818 $predicate_dt$core$4$domain$ 
05:0003C828 $predicate_dt$core$4$domain$$type_library$  (Idle)
05:0003C82C $predicate_dt$core$5$domain$ 
05:0003C83C $predicate_dt$core$5$domain$$type_library$  (Idle)
05:0003C840 $comparator$core$1$domain$ 
05:0003C850 $comparator$core$1$domain$$type_library$  (Idle)
05:0003C854 $comparator$core$2$domain$ 
05:0003C864 $comparator$core$2$domain$$type_library$  (Idle)
05:0003C868 $sortOrder$core$0$domain$ 
05:0003C884 $sortOrder$core$0$domain$$type_library$  (Idle)
--- From 'Obj\namedValue.0E580094.obj'
05:0003C950 $value$core$0$domain$ 
--- From 'Obj\core.6F82B3D2.obj'
05:0003C9A8 $value$core$0$domain$$type_library$ 
05:0003C9C0 $sourceCursor$core$0$domain$ 
05:0003C9D8 $sourceCursor$core$0$domain$$type_library$  (Idle)
--- From 'Obj\exception.0D818F93.obj'
05:0003CE40 class$common_exception 
05:0003CED0 class$errorDescriptorInformation 
05:0003CFE4 class$errorDescriptorInformation$vtable$ 
05:0003D200 class$exception 
05:0003D21C $kind$exception$0$domain$ 
--- From 'Obj\exceptionDump.9F4FF40B.obj'
05:0003D238 $kind$exception$0$domain$$type_library$ 
--- From 'Obj\exception.0D818F93.obj'
05:0003D24C $classInfoDescriptor$exception$0$domain$ 
05:0003D264 $classInfoDescriptor$exception$0$domain$$type_library$ 
05:0003D27C $exceptionDescriptor$exception$0$domain$ 
05:0003D294 $exceptionDescriptor$exception$0$domain$$type_library$ 
05:0003D2D8 $descriptor$exception$0$domain$ 
05:0003D2F0 $descriptor$exception$0$domain$$type_library$ 
05:0003D318 $traceInfo$exception$0$domain$ 
--- From 'Obj\exceptionDump.9F4FF40B.obj'
05:0003D330 $traceInfo$exception$0$domain$$type_library$ 
--- From 'Obj\exception.0D818F93.obj'
05:0003D354 $lineInfo$exception$0$domain$ 
--- From 'Obj\exceptionDump.9F4FF40B.obj'
05:0003D370 $lineInfo$exception$0$domain$$type_library$ 
--- From 'Obj\exception.0D818F93.obj'
05:0003D510 class$exception_exception 
05:0003D5A0 class$runtime_exception 
--- From 'Obj\programControl.9EE7D4CB.obj'
05:0003D630 class$programControl 
05:0003D64C $exceptionRaiser$programControl$0$domain$ 
05:0003D65C $exceptionRaiser$programControl$0$domain$$type_library$ 
--- From 'Obj\stream.50EDC860.obj'
05:0003D740 class$inputStream_null 
05:0003D7A4 class$inputStream_null$vtable$ 
05:0003D8D0 class$outputStream_null 
05:0003D934 class$outputStream_null$vtable$ 
05:0003DA60 class$stdio 
05:0003DB20 class$stdioState 
05:0003DBB4 class$stdioState$vtable$ 
05:0003DCC0 class$stream_exception 
--- From 'Obj\console_api.0DF09B51.obj'
05:0003DD40 class$console_api 
05:0003DDD0 class$console_native 
05:0003DE08 $coord$console_native$0$domain$ 
05:0003DE20 $coord$console_native$0$domain$$type_library$ 
05:0003DE70 $consoleScreenBufferInfo$console_native$0$domain$ 
05:0003DE88 $consoleScreenBufferInfo$console_native$0$domain$$type_library$  (Idle)
05:0003DEC0 $key_event_record$console_native$0$domain$ 
05:0003DED8 $key_event_record$console_native$0$domain$$type_library$  (Idle)
05:0003DF0C $mouse_event_record$console_native$0$domain$ 
05:0003DF24 $mouse_event_record$console_native$0$domain$$type_library$  (Idle)
05:0003DF44 $char_info$console_native$0$domain$ 
05:0003DF5C $char_info$console_native$0$domain$$type_library$  (Idle)
05:0003DF88 $small_rect$console_native$0$domain$ 
05:0003DFA0 $small_rect$console_native$0$domain$$type_library$ 
05:0003DFA4 $handlerRoutine$console_native$0$domain$ 
05:0003DFB4 $handlerRoutine$console_native$0$domain$$type_library$  (Idle)
--- From 'Obj\exe_api.92EB01D8.obj'
05:0003E120 class$exe_api 
05:0003E13C $coInit$exe_api$0$domain$ 
05:0003E160 $coInit$exe_api$0$domain$$type_library$ 
05:0003E250 class$exe_native 
05:0003E2B0 $shellExecuteInfo$exe_native$0$domain$ 
05:0003E2C8 $shellExecuteInfo$exe_native$0$domain$$type_library$  (Idle)
--- From 'Obj\fileSystem_api.5262ADBC.obj'
05:0003E370 class$fileSystem_api 
05:0003E38C $fileAttributeAtom$fileSystem_api$0$domain$ 
05:0003E3C4 $fileAttributeAtom$fileSystem_api$0$domain$$type_library$  (Idle)
05:0003E3C8 $accessPermit$fileSystem_api$0$domain$ 
05:0003E3EC $accessPermit$fileSystem_api$0$domain$$type_library$  (Idle)
05:0003E720 class$fileSystem_native 
05:0003E748 $pointerToI32$fileSystem_native$0$domain$ 
05:0003E760 $pointerToI32$fileSystem_native$0$domain$$type_library$  (Idle)
05:0003E7C8 $fileInfo$fileSystem_native$0$domain$ 
05:0003E7E0 $fileInfo$fileSystem_native$0$domain$$type_library$  (Idle)
05:0003E830 $fileAttributesInfo$fileSystem_native$0$domain$ 
05:0003E848 $fileAttributesInfo$fileSystem_native$0$domain$$type_library$  (Idle)
05:0003E8C0 $win32_find_data$fileSystem_native$0$domain$ 
05:0003E8D8 $win32_find_data$fileSystem_native$0$domain$$type_library$  (Idle)
05:0003E8DC $fileAction$fileSystem_native$0$domain$ 
05:0003E904 $fileAction$fileSystem_native$0$domain$$type_library$ 
05:0003E908 $fileIOCompletionRoutine$fileSystem_native$0$domain$ 
05:0003E918 $fileIOCompletionRoutine$fileSystem_native$0$domain$$type_library$  (Idle)
05:0003E94C $file_notify_information$fileSystem_native$0$domain$ 
05:0003E964 $file_notify_information$fileSystem_native$0$domain$$type_library$  (Idle)
05:0003E984 $overlapped$fileSystem_native$0$domain$ 
05:0003E99C $overlapped$fileSystem_native$0$domain$$type_library$  (Idle)
05:0003EA38 $openFileName$fileSystem_native$0$domain$ 
05:0003EA50 $openFileName$fileSystem_native$0$domain$$type_library$  (Idle)
05:0003EA54 $oFNHookProc$fileSystem_native$0$domain$ 
05:0003EA64 $oFNHookProc$fileSystem_native$0$domain$$type_library$ 
05:0003EA78 $uSE_INFO_0$fileSystem_native$0$domain$ 
05:0003EA90 $uSE_INFO_0$fileSystem_native$0$domain$$type_library$  (Idle)
05:0003EAA0 $$inline_260$fileSystem_native$1$domain$ 
05:0003EAC4 $$inline_14$fileSystem_native$1$domain$ 
05:0003EE50 class$lZ_fileSystem_native 
05:0003EEA0 $ofStruct$lZ_fileSystem_native$0$domain$ 
05:0003EEB8 $ofStruct$lZ_fileSystem_native$0$domain$$type_library$  (Idle)
--- From 'Obj\time_api.06541A64.obj'
05:0003EF80 class$time_api 
05:0003F000 class$time_native 
05:0003F05C $systemTime$time_native$0$domain$ 
05:0003F074 $systemTime$time_native$0$domain$$type_library$ 
05:0003F0D0 $timeZoneAPI$time_native$0$domain$ 
05:0003F0E8 $timeZoneAPI$time_native$0$domain$$type_library$ 
05:0003F0FC $fileTime$time_native$0$domain$ 
05:0003F114 $fileTime$time_native$0$domain$$type_library$ 
05:0003F124 $$inline_32$time_native$1$domain$ 
--- From 'Obj\windowsAPI.91596BCC.obj'
05:0003F240 class$windowsAPI 
05:0003F270 $security_Attributes$windowsAPI$0$domain$ 
05:0003F288 $security_Attributes$windowsAPI$0$domain$$type_library$  (Idle)
--- From 'Obj\exceptionDump.9F4FF40B.obj'
05:0003F330 class$exceptionDump 
--- From 'Obj\fileSystem.03D2CA18.obj'
05:0003F3D0 class$directory 
05:0003F3EC $volumeType$directory$0$domain$ 
05:0003F418 $volumeType$directory$0$domain$$type_library$  (Idle)
05:0003F4D0 class$file 
05:0003F4EC $overwrite$file$0$domain$ 
05:0003F510 $overwrite$file$0$domain$$type_library$  (Idle)
05:0003F5E0 class$fileName 
05:0003F650 class$fileSystem_exception 
05:0003F6F0 class$fileVersion 
05:0003F724 $versionInformation$fileVersion$0$domain$ 
05:0003F73C $versionInformation$fileVersion$0$domain$$type_library$  (Idle)
05:0003F768 $fileVersionInformation$fileVersion$0$domain$ 
05:0003F780 $fileVersionInformation$fileVersion$0$domain$$type_library$  (Idle)
05:0003FAA0 class$inputStream_file 
05:0003FD84 class$inputStream_file$vtable$  (Idle)
05:00040030 class$messageFile 
05:000400AC class$messageFile$vtable$ 
05:000401D0 class$outputStream_file 
05:0004041C class$outputStream_file$vtable$  (Idle)
--- From 'Obj\math.D326B71E.obj'
05:00040680 class$math 
05:0004069C $inCircle$math$0$domain$ 
05:000406C0 $inCircle$math$0$domain$$type_library$  (Idle)
05:000406C4 $aPeriod$math$0$domain$ 
05:000406E8 $aPeriod$math$0$domain$$type_library$  (Idle)
05:000406EC $uReal$math$0$domain$ 
05:00040710 $uReal$math$0$domain$$type_library$  (Idle)
05:00040770 class$math_exception 
--- From 'Obj\memory.75BC8824.obj'
05:000407E0 class$bit 
05:000407FC $unsigned4$bit$0$domain$ 
05:00040814 $unsigned4$bit$0$domain$$type_library$  (Idle)
05:000408E0 class$memory 
05:00040914 $contextMap$memory$0$domain$ 
05:0004092C $contextMap$memory$0$domain$$type_library$  (Idle)
--- From 'Obj\string.F4C46458.obj'
05:0004093C $pChar$memory$0$domain$ 
--- From 'Obj\memory.75BC8824.obj'
05:00040954 $pChar$memory$0$domain$$type_library$  (Idle)
05:00040964 $pInteger8$memory$0$domain$ 
05:0004097C $pInteger8$memory$0$domain$$type_library$  (Idle)
05:0004098C $pInteger16$memory$0$domain$ 
05:000409A4 $pInteger16$memory$0$domain$$type_library$  (Idle)
05:000409B4 $pInteger$memory$0$domain$ 
05:000409CC $pInteger$memory$0$domain$$type_library$  (Idle)
05:000409E4 $pInteger64$memory$0$domain$ 
05:000409FC $pInteger64$memory$0$domain$$type_library$  (Idle)
05:00040A0C $pUnsigned8$memory$0$domain$ 
05:00040A24 $pUnsigned8$memory$0$domain$$type_library$  (Idle)
05:00040A34 $pUnsigned16$memory$0$domain$ 
05:00040A4C $pUnsigned16$memory$0$domain$$type_library$  (Idle)
05:00040A5C $pUnsigned$memory$0$domain$ 
05:00040A74 $pUnsigned$memory$0$domain$$type_library$  (Idle)
05:00040A8C $pUnsigned64$memory$0$domain$ 
05:00040AA4 $pUnsigned64$memory$0$domain$$type_library$  (Idle)
05:00040AB4 $pReal32$memory$0$domain$ 
05:00040ACC $pReal32$memory$0$domain$$type_library$  (Idle)
05:00040AE4 $pReal$memory$0$domain$ 
05:00040AFC $pReal$memory$0$domain$$type_library$  (Idle)
05:00040B0C $pPointer$memory$0$domain$ 
05:00040B24 $pPointer$memory$0$domain$$type_library$  (Idle)
05:00040B34 $pHandle$memory$0$domain$ 
05:00040B4C $pHandle$memory$0$domain$$type_library$  (Idle)
05:00040B5C $pByteCount$memory$0$domain$ 
05:00040B74 $pByteCount$memory$0$domain$$type_library$  (Idle)
05:00040B84 $pCharCount$memory$0$domain$ 
05:00040B9C $pCharCount$memory$0$domain$$type_library$  (Idle)
--- From 'Obj\string.F4C46458.obj'
05:00040BAC $pString$memory$0$domain$ 
--- From 'Obj\memory.75BC8824.obj'
05:00040BC4 $pString$memory$0$domain$$type_library$  (Idle)
05:00040BD4 $pString8$memory$0$domain$ 
05:00040BEC $pString8$memory$0$domain$$type_library$  (Idle)
05:00040BFC $pBinary$memory$0$domain$ 
05:00040C14 $pBinary$memory$0$domain$$type_library$  (Idle)
05:00040C24 $pBinaryNonAtomic$memory$0$domain$ 
05:00040C3C $pBinaryNonAtomic$memory$0$domain$$type_library$  (Idle)
05:00040C4C $pObject$memory$0$domain$ 
05:00040C64 $pObject$memory$0$domain$$type_library$  (Idle)
05:00040FD0 class$weakPointer 
05:000410B8 class$weakPointer$vtable$ 
--- From 'Obj\string.F4C46458.obj'
05:000411F0 class$inputStream_string 
05:000413E0 class$inputStream_string$vtable$  (Idle)
05:000415A0 class$outputStream_string 
05:00041800 class$outputStream_string$vtable$  (Idle)
05:00041A70 class$string 
05:00041A8C $caseSensitivity$string$0$domain$ 
05:00041AAC $caseSensitivity$string$0$domain$$type_library$  (Idle)
05:00041AB0 $adjustBehaviour$string$0$domain$ 
05:00041AD0 $adjustBehaviour$string$0$domain$$type_library$  (Idle)
05:00041AD4 $adjustSide$string$0$domain$ 
05:00041AF0 $adjustSide$string$0$domain$$type_library$  (Idle)
05:00041CA0 class$string_exception 
--- From 'Obj\binary.5C1BA76F.obj'
05:00041D20 class$inputSupport 
05:00041DB4 class$inputSupport$vtable$ 
05:00041EF0 class$outputSupport 
05:00041F9C class$outputSupport$vtable$ 
--- From 'Obj\multiThread_api.F2BE0D3B.obj'
05:00042150 class$multiThread_api 
05:000421F0 class$multiThread_native 
05:0004220C $timerAPCProc$multiThread_native$0$domain$ 
05:0004221C $timerAPCProc$multiThread_native$0$domain$$type_library$  (Idle)
05:0004229C $startupinfo_api$multiThread_native$0$domain$ 
05:000422B4 $startupinfo_api$multiThread_native$0$domain$$type_library$  (Idle)
05:000422D0 $processInformation_api$multiThread_native$0$domain$ 
05:000422E8 $processInformation_api$multiThread_native$0$domain$$type_library$  (Idle)
05:000422EC $threadRunnable$multiThread_native$0$domain$ 
05:000422FC $threadRunnable$multiThread_native$0$domain$$type_library$  (Idle)
05:00042320 $critical_section$multiThread_native$0$domain$ 
05:00042338 $critical_section$multiThread_native$0$domain$$type_library$  (Idle)
05:00042370 $selectorEntry$multiThread_native$0$domain$ 
05:00042388 $selectorEntry$multiThread_native$0$domain$$type_library$  (Idle)
--- From 'Obj\string8_api.7710D13D.obj'
05:00042530 class$string8_api 
05:000425C0 class$string8_native 
--- From 'Obj\binary.5C1BA76F.obj'
05:00042660 class$binary 
05:000426C0 class$binary_exception 
05:00042740 class$inputStream_binary 
05:00042924 class$inputStream_binary$vtable$  (Idle)
05:00042AE0 class$outputStream_binary 
05:00042D1C class$outputStream_binary$vtable$  (Idle)
--- From 'Obj\list.372A041A.obj'
05:00042F50 class$list 
05:00042F6C $filterPredicate$list$1$domain$ 
05:00042F7C $filterPredicate$list$1$domain$$type_library$  (Idle)
--- From 'Obj\namedValue.0E580094.obj'
05:000434A0 class$namedValue 
--- From 'Obj\std.9E23208D.obj'
05:00043510 class$std 
--- From 'Obj\memory_api.26CFD9D6.obj'
05:00043560 class$memory_native 
05:000435A0 $memory_basic_information$memory_native$0$domain$ 
05:000435B8 $memory_basic_information$memory_native$0$domain$$type_library$  (Idle)
05:00043600 $memoryStatusEx$memory_native$0$domain$ 
05:00043618 $memoryStatusEx$memory_native$0$domain$$type_library$  (Idle)
--- From 'Obj\runTime_api.6CC3F910.obj'
05:00043700 class$runtime_api 
--- From 'Obj\locale_api.81889F56.obj'
05:000438B0 class$locale_api 
05:00043940 class$locale_native 
--- From 'Obj\systemInformation_api.671D1739.obj'
05:000439D0 class$systemInformation_api 
05:00043AA0 class$systemInformation_native 
05:00043B0C $system_Info$systemInformation_native$0$domain$ 
05:00043B24 $system_Info$systemInformation_native$0$domain$$type_library$  (Idle)
05:00043B64 $osVersionInfo$systemInformation_native$0$domain$ 
05:00043B7C $osVersionInfo$systemInformation_native$0$domain$$type_library$  (Idle)
05:00043BD8 $osVersionInfoEX$systemInformation_native$0$domain$ 
05:00043BF0 $osVersionInfoEX$systemInformation_native$0$domain$$type_library$  (Idle)
05:00043C00 $$inline_128$systemInformation_native$1$domain$ 
--- From 'Obj\string_api.6EE9B13E.obj'
05:00043D90 class$string_native 
036000:00DE20 00AEBC   VIPStrs::VIPStrs::.rdata F=4
--- From 'Obj\main.A22FE9BF.obj'
05:00043E20 $$str$A22FE9BF$main.pack$$ 
05:00043E34 $$str$891571A4$Omsk$$ 
05:00043E40 $$str$742C04AD$Kiev$$ 
05:00043E4C $$str$959E972B$Minsk$$ 
05:00043E58 $$str$331E2823$Moscow$$ 
--- From 'Obj\string.F4C46458.obj'
05:00043E68 $$str$D218435A$end$$ 
--- From 'Obj\main.A22FE9BF.obj'
05:00043E70 $$str$773DB196$%
$$ 
--- From 'Obj\runTime_api.6CC3F910.obj'
05:00043E78 $$str$04EC889E$$$ 
--- From 'Obj\main.A22FE9BF.obj'
05:00043E7C $$str$40CE0547$main$$ 
--- From 'Obj\registry.70FB0061.obj'
05:00043E88 $$str$91723482$C:\Program Files (x86)\Visual Prolog 7.3 PE\pfc\registry\registry.pack$$ 
05:00043F18 $$str$92472E95$setValue$$ 
05:00043F2C $$str$03FCAFFC$RootKey: $$ 
--- From 'Obj\fileSystem.03D2CA18.obj'
05:00043F40 $$str$6F20589D$\$$ 
--- From 'Obj\registry.70FB0061.obj'
05:00043F44 $$str$8A52C9CF$$JustDate: 2009-02-27 $$Revision: 34 $$$ 
05:00043F94 $$str$38981863$com/visual-prolog/registry/registry$$ 
05:00043FDC $$str$0FBFF7AD$HKEY_DYN_DATA$$ 
05:00043FF8 $$str$25CDD4C1$HKEY_PERFORMANCE_DATA$$ 
05:00044024 $$str$D2DABF12$HKEY_USERS$$ 
05:0004403C $$str$2CB415AC$HKEY_LOCAL_MACHINE$$ 
05:00044064 $$str$CD2688F7$HKEY_CURRENT_USER$$ 
05:00044088 $$str$5D3776E9$HKEY_CURRENT_CONFIG$$ 
05:000440B0 $$str$8DE66BBB$HKEY_CLASSES_ROOT$$ 
05:000440D4 $$str$E3CA5CBD$System description$$ 
--- From 'Obj\registry_api.4F19C9C1.obj'
05:000440FC $$str$91A5E2AB$value$$ 
--- From 'Obj\registry.70FB0061.obj'
05:00044108 $$str$5DEF6428$Name of key$$ 
05:00044120 $$str$97803BD8$root key$$ 
05:00044134 $$str$CECBC883$The key cannot be created$$ 
05:00044168 $$str$F0D5BF23$cannotCreateKey$$ 
05:00044188 $$str$5D352135$The path is wrong$$ 
05:000441AC $$str$917580E9$noPath$$ 
05:000441BC $$str$4EEA4BF1$The operation under the value failed$$ 
05:00044208 $$str$A778965B$wrongValue$$ 
05:00044220 $$str$9CE51707$$JustDate: 2010-03-09 $$Revision: 10 $$$ 
05:00044270 $$str$7811E23F$com/visual-prolog/registry/registry_exception$$ 
--- From 'Obj\registry_api.4F19C9C1.obj'
05:000442CC $$str$F0198668$C:\Program Files (x86)\Visual Prolog 7.3 PE\pfc\windowsApi\registry_api\registry_api.pack$$ 
05:00044380 $$str$4E36E561$$JustDate: 2010-04-19 $$Revision: 45 $$$ 
05:000443D0 $$str$AD8522CD$com/visual-prolog/pfc/windowsapi/registry_api/registry_api$$ 
--- From 'Obj\namedValue.0E580094.obj'
05:00044448 $$str$F685E499$name$$ 
--- From 'Obj\registry_api.4F19C9C1.obj'
05:00044454 $$str$6C6D75F2$DataSize$$ 
05:00044468 $$str$96FAE669$NameBuffer$$ 
05:00044480 $$str$4AF04940$tryRegEnumValueOne$$ 
05:000444A8 $$str$C8B32EB1$regDeleteValue$$ 
05:000444C8 $$str$1C9EF269$regQueryValueEx1$$ 
05:000444EC $$str$201DB4B9$regQueryValueEx$$ 
05:0004450C $$str$AFA412C0$regSetValueEx$$ 
05:00044528 $$str$0E60918A$tryRegEnumKeyExOne$$ 
--- From 'Obj\binary.5C1BA76F.obj'
05:00044550 $$str$67FDF874$Index$$ 
--- From 'Obj\registry_api.4F19C9C1.obj'
05:0004455C $$str$353AA290$Key$$ 
05:00044564 $$str$12E3B6A0$regDeleteKey$$ 
05:00044580 $$str$251E952B$regCreateKeyEx$$ 
05:000445A0 $$str$EF055C88$regCloseKey$$ 
05:000445B8 $$str$84B22B9C$key$$ 
05:000445C0 $$str$E1502BEA$regOpenKeyEx$$ 
--- From 'Obj\boolean.5CA1A2E0.obj'
05:000445DC $$str$BF99E472$C:\Program Files (x86)\Visual Prolog 7.3 PE\pfc\boolean\boolean.pack$$ 
05:00044668 $$str$FB65368B$$JustDate: 2009-02-27 $$Revision: 6 $$$ 
05:000446B4 $$str$370001E9$pfc/boolean/boolean$$ 
--- From 'Obj\collection.09E93132.obj'
05:000446DC $$str$0FB87626$C:\Program Files (x86)\Visual Prolog 7.3 PE\pfc\collection\collection.pack$$ 
--- From 'Obj\mapM_redBlack.55C022F2.obj'
05:00044774 $$str$4270B23F$C:\Program Files (x86)\Visual Prolog 7.3 PE\pfc\collection\M\mapM_redBlack\mapM_redBlack.pack$$ 
05:00044830 $$str$B1A33E25$$JustDate: 2009-12-10 $$Revision: 4 $$$ 
05:0004487C $$str$58A59BF9$pfc/collection/mapM_redBlack/mapM_redBlack$$ 
--- From 'Obj\setM_redBlack.1C81612B.obj'
05:000448D4 $$str$A97F9EFC$C:\Program Files (x86)\Visual Prolog 7.3 PE\pfc\collection\M\setM_redBlack\setM_redBlack.pack$$ 
05:00044990 $$str$2667F777$$JustDate: 2009-12-10 $$Revision: 3 $$$ 
05:000449DC $$str$0EC6ECB7$pfc/collection/setM_redBlack/setM_redBlack$$ 
--- From 'Obj\string8.5F8F6B63.obj'
05:00044A34 $$str$1039A9D7$C:\Program Files (x86)\Visual Prolog 7.3 PE\pfc\string8\string8.pack$$ 
--- From 'Obj\systemInformation_api.671D1739.obj'
05:00044AC0 $$str$AF5EEACE$$JustDate: 2010-04-19 $$Revision: 18 $$$ 
--- From 'Obj\string8.5F8F6B63.obj'
05:00044B10 $$str$B3BF5CE3$com/visual-prolog/string8/string8$$ 
--- From 'Obj\Shell_api.8B3C7C0A.obj'
05:00044B54 $$str$DBB92D38$C:\Program Files (x86)\Visual Prolog 7.3 PE\pfc\windowsApi\Shell_api\Shell_api.pack$$ 
05:00044BFC $$str$867D4E9A$The specified DLL was not found.$$ 
05:00044C40 $$str$9DB1F486$There is no application associated with the given file name extension. This error will also be returned if you attempt to print a file that is not printable.$$ 
05:00044D7C $$str$29F0D87F$The Dynamic Data Exchange (DDE) transaction could not be completed because other DDE transactions were being processed.$$ 
05:00044E6C $$str$2773AB3C$The DDE transaction failed.$$ 
05:00044EA4 $$str$938F7E14$The DDE transaction could not be completed because the request timed out.$$ 
05:00044F38 $$str$076EC1A9$The file name association is incomplete or invalid.$$ 
05:00044FA0 $$str$EE0F57D1$A sharing violation occurred.$$ 
05:00044FDC $$str$E9541F49$There was not enough memory to complete the operation.$$ 
05:0004504C $$str$C74B0145$The operating system denied access to the specified file.$$ 
05:000450C0 $$str$A0DDEC39$The specified path was not found.$$ 
05:00045104 $$str$1004BE4C$The specified file was not found.$$ 
05:00045148 $$str$747C342B$The operating system is out of memory or resources.$$ 
05:000451B0 $$str$F3E4586C$An attempt was made to load a program with an incorrect format.$$ 
05:00045230 $$str$FB90F2A9$shellExecuteEx$$ 
05:00045250 $$str$DA66F50A$shellExecute$$ 
05:0004526C $$str$D404FEBD$$JustDate: 2009-05-06 $$Revision: 1 $$$ 
05:000452B8 $$str$27B8A2E6$pfc/windowsApi/Shell_api/shell_api$$ 
05:00045300 $$str$7FD0C98A$$JustDate: 2010-03-11 $$Revision: 2 $$$ 
05:0004534C $$str$93827C15$pfc/windowsApi/Shell_api/shell_native$$ 
--- From 'Obj\vpiDomains.B278478A.obj'
05:00045398 $$str$D02830EA$C:\Program Files (x86)\Visual Prolog 7.3 PE\pfc\vpi\vpiDomains\vpiDomains.pack$$ 
05:00045438 $$str$1314C022$$JustDate: 2010-03-09 $$Revision: 6 $$$ 
05:00045484 $$str$4CCD2C6D$com/visual-prolog/vpi/vpiOwnerDraw$$ 
--- From 'Obj\gui_api.C64EF22C.obj'
05:000454CC $$str$6A05E7C8$C:\Program Files (x86)\Visual Prolog 7.3 PE\pfc\windowsApi\gui_api\gui_api.pack$$ 
05:0004556C $$str$2D735DCE$invalidateRect$$ 
05:0004558C $$str$85CC2286$extTextOut$$ 
05:000455A4 $$str$173E87A7$setWindowLong$$ 
05:000455C0 $$str$368B3029$getWindowLong$$ 
05:000455DC $$str$EABAE94F$getClientRect$$ 
05:000455F8 $$str$FDF83EFE$beginPaint$$ 
05:00045610 $$str$3C1A4286$createWindowEx$$ 
05:00045630 $$str$27E4AB07$WindowName$$ 
05:00045648 $$str$2B0BE793$registerClassEx$$ 
05:00045668 $$str$1F45FF58$class name$$ 
05:00045680 $$str$4CE57CB7$getTextMetrics$$ 
05:000456A0 $$str$9BB9844B$setWindowPlacement$$ 
05:000456C8 $$str$8FC4D702$getWindowPlacement$$ 
05:000456F0 $$str$BFE2B28F$scrollWindowEx$$ 
05:00045710 $$str$FC9419A9$getScrollInfo$$ 
05:0004572C $$str$157B2CB2$getScrollRange$$ 
05:0004574C $$str$F05C7D98$$JustDate: 2010-03-02 $$Revision: 25 $$$ 
05:0004579C $$str$EB231569$com/visual-prolog/pfc/windowsapi/gui_api/gui_api$$ 
05:00045800 $$str$B8373136$$JustDate: 2010-05-20 $$Revision: 42 $$$ 
05:00045850 $$str$9D7DCAA0$pfc/windowsapi/gui_api/gui_native$$ 
--- From 'Obj\mapMSupport.F2ECDBAC.obj'
05:00045894 $$str$AB8B879E$C:\Program Files (x86)\Visual Prolog 7.3 PE\pfc\collection\M\support\mapMSupport\mapMSupport.pack$$ 
05:00045958 $$str$98CF2048$$JustDate: 2009-12-07 $$Revision: 2 $$$ 
05:000459A4 $$str$C497E8BE$pfc/collection/supportM/mapMSupport/mapMSupport$$ 
05:00045A04 $$str$63F5E665$get$$ 
05:00045A0C $$str$9FAE6D27$The map does not contain the key: $$ 
--- From 'Obj\redBlackTree.6E2D2CC8.obj'
05:00045A54 $$str$4468F80C$C:\Program Files (x86)\Visual Prolog 7.3 PE\pfc\redBlackTree\redBlackTree.pack$$ 
05:00045AF4 $$str$6B19761F$$JustDate: 2010-03-09 $$Revision: 17 $$$ 
05:00045B44 $$str$EDE28687$pfc/redBlackTree/redBlackTree$$ 
--- From 'Obj\redBlackSet.97D1E054.obj'
05:00045B80 $$str$C4D5D95F$sub1$$ 
05:00045B8C $$str$8D849919$balRight$$ 
05:00045BA0 $$str$4491C823$balLeft$$ 
05:00045BB0 $$str$82E18129$C:\Program Files (x86)\Visual Prolog 7.3 PE\pfc\collection\algebraic\redBlackSet\redBlackSet.pack$$ 
--- From 'Obj\locale_api.81889F56.obj'
05:00045C74 $$str$A447BEF3$$JustDate: 2010-03-09 $$Revision: 8 $$$ 
--- From 'Obj\redBlackSet.97D1E054.obj'
05:00045CC0 $$str$86FF06F6$pfc/collection/algebraic/redBlackSet/redBlackSet$$ 
--- From 'Obj\collectionMsupport.B3E5070C.obj'
05:00045D24 $$str$CBC4FB5F$C:\Program Files (x86)\Visual Prolog 7.3 PE\pfc\collection\M\support\collectionMsupport\collectionMsupport.pack$$ 
05:00045E04 $$str$CC69945A$$JustDate: 2010-02-09 $$Revision: 3 $$$ 
05:00045E50 $$str$7424620A$pfc/collection/supportM/collectionMsupport/collectionMsupport$$ 
--- From 'Obj\exe.064FFF24.obj'
05:00045ECC $$str$F0445466$C:\Program Files (x86)\Visual Prolog 7.3 PE\pfc\application\Exe\exe.pack$$ 
05:00045F60 $$str$E7CF0380$HResult$$ 
05:00045F70 $$str$C48D0C9E$OleInitialize$$ 
05:00045F8C $$str$2D6E31D5$$JustDate: 2009-08-05 $$Revision: 30 $$$ 
05:00045FDC $$str$D9AE0CDB$com/visual-prolog/Application/exe/mainExe$$ 
--- From 'Obj\console.FF8DBACA.obj'
05:00046030 $$str$80AC6443$C:\Program Files (x86)\Visual Prolog 7.3 PE\pfc\console\console.pack$$ 
05:000460BC $$str$BFF64B37$$JustDate: 2010-03-09 $$Revision: 28 $$$ 
05:0004610C $$str$C0677D66$com/visual-prolog/console/console$$ 
05:00046150 $$str$0A2370C2$makeEvent$$ 
05:00046164 $$str$D66C9828$ReadConsoleInput$$ 
05:00046188 $$str$D0EE2859$WaitForSingleObject$$ 
05:000461B0 $$str$359CB2C6$console handle$$ 
05:000461D0 $$str$BA8ED7AB$GetNumberOfConsoleInputEvents$$ 
05:0004620C $$str$F8F2252B$GetStdHandle$$ 
05:00046228 $$str$505728F9$Cannot initialize console$$ 
05:0004625C $$str$5E79F2DE$Error$$ 
05:00046268 $$str$A1A9ED4C$GetConsoleScreenBufferInfo$$ 
05:000462A0 $$str$CA7DC9A7$GetConsoleMode$$ 
05:000462C0 $$str$2F735704$SetConsoleTitle$$ 
05:000462E0 $$str$01D65014$GetConsoleTitle$$ 
05:00046300 $$str$07A4D64B$FreeConsole$$ 
05:00046318 $$str$513E15D8$SetConsoleCursorPosition$$ 
05:0004634C $$str$0AAEC8C7$FillConsoleOutputCharacter$$ 
05:00046384 $$str$F3ADF581$FlushConsoleInputBuffer$$ 
05:000463B4 $$str$29E4C569$SetConsoleMode$$ 
--- From 'Obj\fileSystem.03D2CA18.obj'
05:000463D4 $$str$B0EF1F24$ReadFile$$ 
--- From 'Obj\console.FF8DBACA.obj'
05:000463E8 $$str$CFA6B890$inputStream_console::setCRLFconversion$$ 
05:00046438 $$str$33EE2A63$$JustDate: 2010-04-19 $$Revision: 25 $$$ 
05:00046488 $$str$548DFA9E$com/visual-prolog/console/inputStream_console$$ 
--- From 'Obj\fileSystem.03D2CA18.obj'
05:000464E4 $$str$898B50C5$WriteFile$$ 
05:000464F8 $$str$DFDC4749$binary()$$ 
--- From 'Obj\console.FF8DBACA.obj'
05:0004650C $$str$42920E8F$outputStream_console::setCRLFconversion$$ 
05:0004655C $$str$2B637007$outputStream_console::errorHandler$$ 
--- From 'Obj\outputStreamSupport.F4FF31D0.obj'
05:000465A4 $$str$787139C0$
$$ 
--- From 'Obj\binary.5C1BA76F.obj'
05:000465A8 $$str$1C58EAAA$$JustDate: 2010-03-09 $$Revision: 21 $$$ 
--- From 'Obj\console.FF8DBACA.obj'
05:000465F8 $$str$A1BA5134$com/visual-prolog/console/outputStream_console$$ 
--- From 'Obj\core.6F82B3D2.obj'
05:00046658 $$str$CB1F31CA$C:\Program Files (x86)\Visual Prolog 7.3 PE\pfc\core.pack$$ 
05:000466CC $$str$073483C5$expectedKind$$ 
05:000466E8 $$str$5B658AEE$actualValue$$ 
05:00046700 $$str$CF072867$$JustDate: 2010-02-11 $$Revision: 13 $$$ 
05:00046750 $$str$27AB53AE$pfc/core$$ 
05:00046764 $$str$4BC52C7E$%x$$ 
05:0004676C $$str$5731F86C$'%c'$$ 
05:00046778 $$str$10559FAE$NONE$$ 
05:00046784 $$str$BFAA1351$Unexpected value kind$$ 
05:000467B0 $$str$9F74D45F$unexpectedValueKind$$ 
05:000467D8 $$str$568555C2$pointer$$ 
05:000467E8 $$str$154B160E$localTimeValue$$ 
05:00046808 $$str$7C0E03B0$gmtTimeValue$$ 
05:00046824 $$str$446964CE$object$$ 
--- From 'Obj\outputStreamSupport.F4FF31D0.obj'
05:00046834 $$str$71F3284E$binary$$ 
--- From 'Obj\core.6F82B3D2.obj'
05:00046844 $$str$335E7875$string$$ 
05:00046854 $$str$99BBA197$char$$ 
05:00046860 $$str$60EC62F7$real$$ 
05:0004686C $$str$171AF792$integer$$ 
05:0004687C $$str$5E147EA7$unsigned$$ 
05:00046890 $$str$CA547E24$integer64$$ 
05:000468A4 $$str$441708A6$unsigned64$$ 
05:000468BC $$str$EA6DAE6B$boolean$$ 
--- From 'Obj\exception.0D818F93.obj'
05:000468CC $$str$219816B6$C:\Program Files (x86)\Visual Prolog 7.3 PE\pfc\exception\exception.pack$$ 
05:00046960 $$str$DC46C253$$JustDate: 2010-03-11 $$Revision: 43 $$$ 
05:000469B0 $$str$5319A3A6$com/visual-prolog/exception/common_exception$$ 
05:00046A0C $$str$B5487C75$definiteUserError$$ 
--- From 'Obj\fileSystem.03D2CA18.obj'
05:00046A30 $$str$F8F2D97B$ErrorDescription$$ 
05:00046A54 $$str$B7169910$ErrorCode$$ 
05:00046A68 $$str$9CD58E6B$API function name$$ 
--- From 'Obj\exception.0D818F93.obj'
05:00046A8C $$str$CF6C5602$Listener name$$ 
--- From 'Obj\exceptionDump.9F4FF40B.obj'
05:00046AA8 $$str$7BB92632$userMessage$$ 
--- From 'Obj\exception.0D818F93.obj'
05:00046AC0 $$str$BB5B716C$Arguments$$ 
--- From 'Obj\stream.50EDC860.obj'
05:00046AD4 $$str$23BF28C8$Predicate name$$ 
--- From 'Obj\exception.0D818F93.obj'
05:00046AF4 $$str$E3B4893A$Overloading expected$$ 
05:00046B20 $$str$69943C14$overloadingExpected$$ 
05:00046B48 $$str$10067632$An unknown exception has been trapped and continued$$ 
05:00046BB0 $$str$18BEFA2F$Unsupported predicate$$ 
05:00046BDC $$str$8A8C2693$unsupportedPredicate$$ 
05:00046C08 $$str$60C2822C$Internal API function call failed$$ 
05:00046C4C $$str$D53C8DD0$nativeCallException$$ 
05:00046C74 $$str$1CDBD8F7$A listener raised an exception$$ 
05:00046CB4 $$str$D39A1BCF$exceptionInListener$$ 
05:00046CDC $$str$8CFEED00$Listener was not assigned$$ 
05:00046D10 $$str$5A96AE98$removeListener$$ 
05:00046D30 $$str$39CF60C7$The object could not be created$$ 
05:00046D70 $$str$8442437E$couldNotCreate$$ 
05:00046D90 $$str$88E65B30$Internal run-time exception occurred$$ 
05:00046DDC $$str$DEEA9F10$internal$$ 
05:00046DF0 $$str$29A8A80D$HH':'mm':'ss$$ 
05:00046E0C $$str$15AD54E8$yyyy'/'MM'/'dd $$ 
--- From 'Obj\exceptionDump.9F4FF40B.obj'
05:00046E2C $$str$488B5997$packedMessage$$ 
--- From 'Obj\exception.0D818F93.obj'
05:00046E48 $$str$272575B8$Version 1.0$$ 
05:00046E60 $$str$0BBC9B06$unknown$$ 
05:00046E70 $$str$F706CD40$$JustDate: 2010-03-15 $$Revision: 38 $$$ 
05:00046EC0 $$str$3D2CCB61$com/visual-prolog/exception/exception$$ 
05:00046F0C $$str$4333DD14$External error$$ 
05:00046F2C $$str$3801C263$An external run-time error occurred$$ 
05:00046F74 $$str$2957B451$externalError$$ 
05:00046F90 $$str$22A5A013$$JustDate: 2009-02-27 $$Revision: 11 $$$ 
05:00046FE0 $$str$9590E9CE$com/visual-prolog/exception/exception_exception$$ 
05:00047040 $$str$8ABCB2D5$A runtime exception occurred. The runtime_exception handler does not recognize this exception.$$ 
05:00047100 $$str$2DD8F74F$notYetHandledError$$ 
05:00047128 $$str$8BABCF0E$ExtraInfo$$ 
05:0004713C $$str$5FFCEED8$error code$$ 
05:00047154 $$str$5A88EB5F$ODBCBIND package function failed$$ 
05:00047198 $$str$19F801A4$odbc_error$$ 
05:000471B0 $$str$31FCD9EC$Illegal SQL request from ODBCBIND package predicate$$ 
05:00047218 $$str$7168D89D$sql_error$$ 
05:0004722C $$str$C3DFFBE9$No data found$$ 
05:00047248 $$str$884180FC$sql_noDataFound$$ 
05:00047268 $$str$22691B34$Application needs to send data$$ 
05:000472A8 $$str$8C31F114$sql_needData$$ 
05:000472C4 $$str$D38B1CA2$A function that was started asynchronously is still executing$$ 
05:00047340 $$str$7BEA5048$sql_stillExecuting$$ 
05:00047368 $$str$5354002D$Error due to an invalid environment handle, connection handle, or statement handle$$ 
05:00047410 $$str$A6BF3924$sql_invalidHandle$$ 
05:00047434 $$str$060BAA25$Unidentified error in ODBCBIND package$$ 
05:00047484 $$str$92884A31$odbc_unidentifiedError$$ 
05:000474B4 $$str$057F27FE$Cannot get the address of an exported function$$ 
05:00047514 $$str$AF6F9D27$cannotGetProcAddress$$ 
05:00047540 $$str$BAE0010B$Cannot load the module$$ 
05:00047570 $$str$A5F9BC3F$cannotLoadLibrary$$ 
05:00047594 $$str$BEEF646C$Internal error during expanding$$ 
05:000475D4 $$str$FE9DAECA$binary_DecodeInternalError$$ 
05:0004760C $$str$FFB464D6$Invalid binary format$$ 
05:00047638 $$str$AC65019D$binary_invalidFormat$$ 
05:00047664 $$str$6E3D541D$Invalid binary$$ 
05:00047684 $$str$70487CD4$binary_invalidBlock$$ 
05:000476AC $$str$B148087C$OS native error occurred$$ 
05:000476E0 $$str$15262384$chainDB_OSNativeError$$ 
05:0004770C $$str$C1882F1F$Not able to write correct number of bytes to file$$ 
05:00047770 $$str$BE54D9AB$chainDB_WriteWrongNumberBytes$$ 
05:000477AC $$str$653E0A5C$Not able to read correct number of bytes from file$$ 
05:00047814 $$str$C6720455$chainDB_ReadWrongNumberBytes$$ 
05:00047850 $$str$F897056B$Wrong chain's internal structure found in Term_delete$$ 
05:000478BC $$str$09A7B428$chainDB_WrongChainToDeleteTerm$$ 
05:000478FC $$str$F56C55DC$Duplicate key isn't allowed in B+tree$$ 
05:00047948 $$str$0A0418A7$chainDB_DuplicateKey$$ 
05:00047974 $$str$7C4DDC83$Timeout in begin transaction$$ 
05:000479B0 $$str$D201AC71$chainDB_TimeOutTransaction$$ 
05:000479E8 $$str$A0E18B28$Updating transaction isn't allowed in r/o mode$$ 
05:00047A48 $$str$0FA1E30D$chainDB_UpdatingROTransaction$$ 
05:00047A84 $$str$C6EDF780$Transaction alrady is opened$$ 
05:00047AC0 $$str$CA37C1D7$chainDB_AlreadyOpenTransaction$$ 
05:00047B00 $$str$E837678D$Write transaction is not allowed for file in r/o mode$$ 
05:00047B6C $$str$5FA82CB0$chainDB_WriteROTransaction$$ 
05:00047BA4 $$str$B274DD66$Not inside transaction$$ 
05:00047BD4 $$str$A0D619E3$chainDB_NotInTransaction$$ 
05:00047C08 $$str$A84A5A42$Incorrect DB version$$ 
05:00047C34 $$str$1C73E816$chainDB_IncorrectDBVersion$$ 
05:00047C6C $$str$647CEF5E$Key and Ref isn't found in b+tree$$ 
05:00047CB0 $$str$9BD68259$chainDB_NotFoundKeyAndRef$$ 
05:00047CE4 $$str$82CB0673$Cannot delete opened B+tree$$ 
05:00047D1C $$str$A3CE215F$chainDB_DeleteOpenBTree$$ 
05:00047D4C $$str$7FAE8184$Invalid B+tree selector$$ 
05:00047D7C $$str$4ABFB5C4$chainDB_InvalidBTreeSel$$ 
05:00047DAC $$str$6790F92D$B+tree is absent$$ 
05:00047DD0 $$str$77704384$chainDB_AbsentBTree$$ 
05:00047DF8 $$str$F772EBD3$Chain isn't exists$$ 
05:00047E20 $$str$7913AF98$chainDB_AbsentChain$$ 
05:00047E48 $$str$B570CBC4$Invalid Ref value$$ 
05:00047E6C $$str$6D0570B5$chainDB_InvalidRefVal$$ 
05:00047E98 $$str$5DE6C0CB$Unable delete DB$$ 
05:00047EBC $$str$38EA46EA$chainDB_UnableDeleteDB$$ 
05:00047EEC $$str$B5529138$DB is marked as invalid$$ 
05:00047F1C $$str$24073185$chainDB_InvalidDB$$ 
05:00047F40 $$str$BCA67B52$Unable to open DB in given place$$ 
05:00047F84 $$str$A4E1127E$chainDB_UnableOpenDB$$ 
05:00047FB0 $$str$BE181C07$Invalid key length value$$ 
05:00047FE4 $$str$9CD46B0C$chainDB_InvalidKeyValue$$ 
05:00048014 $$str$2B82E2A7$Invalid order value$$ 
05:0004803C $$str$C8FC7B78$chainDB_InvalidOrderValue$$ 
05:00048070 $$str$87044E1D$DB name already exists in specified location$$ 
05:000480CC $$str$A99EE6E6$chainDB_ExistsDBInPlace$$ 
05:000480FC $$str$7680E01B$B+tree already exists$$ 
05:00048128 $$str$F37D98F5$chainDB_ExistsBTree$$ 
05:00048150 $$str$DF38F4D4$Database isn't open$$ 
05:00048178 $$str$30C8074D$chainDB_NotOpenDB$$ 
05:0004819C $$str$F5F539F2$Invalid database filename$$ 
05:000481D0 $$str$447A90B3$chainDB_InvalidDBFileName$$ 
05:00048204 $$str$03F88A2B$DB already is open$$ 
05:0004822C $$str$844FE8BE$chainDB_DBAlreadyOpen$$ 
05:00048258 $$str$3F378122$Access to non initialized fact$$ 
05:00048298 $$str$2B17656B$accessToNotInitializedFact$$ 
05:000482D0 $$str$86FC48CD$Single fact has no value$$ 
05:00048304 $$str$865990ED$singleFactHasNoValue$$ 
05:00048330 $$str$78B99653$Unexpected free variable$$ 
05:00048364 $$str$4D8D524E$freeVariable$$ 
05:00048380 $$str$37ADCFDC$Heap overflow$$ 
05:0004839C $$str$6CB922DC$heapOverflow$$ 
05:000483B8 $$str$A5CA7832$Exception in Garbage collector$$ 
05:000483F8 $$str$FF59C7A8$gcError$$ 
05:00048408 $$str$1B62E3EE$Fatal error in garbage collector$$ 
05:0004844C $$str$2129714A$gcAbend$$ 
05:0004845C $$str$C743DD05$Internal API call failed$$ 
05:00048490 $$str$A18AE06C$osError$$ 
05:000484A0 $$str$C5049505$System exception$$ 
05:000484C4 $$str$BF0D2015$systemException$$ 
05:000484E4 $$str$19A115AF$Unable to create a thread because of the operating system error$$ 
05:00048564 $$str$3A399328$threadCreation$$ 
05:00048584 $$str$EBE838DB$Received character differs from expected one$$ 
05:000485E0 $$str$46217489$expectedChar$$ 
05:000485FC $$str$64EFAD01$Attempt to retract single fact from database$$ 
05:00048658 $$str$F1A25488$retractSingleFact$$ 
05:0004867C $$str$85D0B423$Wrong usage of keyword$$ 
05:000486AC $$str$4C552BCD$consult_WrongUsageOfKeyword$$ 
05:000486E4 $$str$99E11163$Wrong comment$$ 
05:00048700 $$str$5DC0C8F9$consult_WrongComment$$ 
05:0004872C $$str$88BDDD78$Invalid term's text representation for the domain$$ 
05:00048790 $$str$B5C95E25$invalidTermRepresentation$$ 
05:000487C4 $$str$7CC4C2CB$Non floating-point format data$$ 
05:00048804 $$str$B587D0FD$unsupportedFormat$$ 
05:00048828 $$str$6DDC9965$Not support function$$ 
05:00048854 $$str$4C6D804E$notSupportFunction$$ 
05:0004887C $$str$1F747FF8$vip6run internal error$$ 
05:000488AC $$str$AEBF3835$vip6runInternalError$$ 
05:000488D8 $$str$74EB9673$Wrong calling of ungetchar$$ 
05:00048910 $$str$1287EB1E$unGetChar$$ 
05:00048924 $$str$2052FA9D$Value less or equal to zero$$ 
05:0004895C $$str$3AFF60CD$negZero$$ 
05:0004896C $$str$DA5BF3C8$Float point overflow$$ 
05:00048998 $$str$BBDCC1E3$realOverflow$$ 
05:000489B4 $$str$AA311265$Attempt to assert a second instance of a determ fact$$ 
05:00048A20 $$str$97A9CF2A$determFact$$ 
05:00048A38 $$str$51A5806C$Unexpected end of stream$$ 
05:00048A6C $$str$D08C35A0$parserUnexpectedEOS$$ 
05:00048A94 $$str$1B11E7C6$The class inherits itself$$ 
05:00048AC8 $$str$133F678C$cyclicInheritance$$ 
05:00048AEC $$str$8D5F3621$A functor name of the domain is expected$$ 
05:00048B40 $$str$2CA4DC02$functorNameExpected$$ 
05:00048B68 $$str$59567236$Functor is not found in the domain$$ 
05:00048BB0 $$str$292A0E65$functorNotFound$$ 
05:00048BD0 $$str$4BB17A63$The value is not in the admissible range for the domain$$ 
05:00048C40 $$str$ADD978FE$noRangeNumber$$ 
05:00048C5C $$str$16EAAF53$Arithmetic overflow$$ 
05:00048C84 $$str$D521D61E$arithmeticOverflow$$ 
05:00048CAC $$str$CE367986$Integer expected during term reading or converting$$ 
05:00048D14 $$str$5E05675F$integerExpected$$ 
05:00048D34 $$str$D999941B$Invalid term (spoiled memory)$$ 
05:00048D70 $$str$EF864B72$invalidTerm$$ 
05:00048D88 $$str$4BB37203$Invalid format for specified domain$$ 
05:00048DD0 $$str$8ABF1F8C$invalidFormat$$ 
05:00048DEC $$str$84AB0851$Error conversion: non-supported type$$ 
05:00048E38 $$str$02D6AF12$objectConversion$$ 
05:00048E5C $$str$5F12B863$Wrong number of arguments in the format string$$ 
05:00048EBC $$str$60028343$wrongNumberArgumentForFormat$$ 
05:00048EF8 $$str$8279DA13$Invalid symbol for some domain is in toTerm predicate$$ 
05:00048F64 $$str$E9AD1F75$expectedSymbolFromToTerm$$ 
05:00048F98 $$str$1A1F0A58$The user has shut down$$ 
05:00048FC8 $$str$6A8B6A60$shutDown$$ 
05:00048FDC $$str$B9F5633E$The user has logged off$$ 
05:0004900C $$str$AA37464C$logOff$$ 
05:0004901C $$str$6D00D962$The user has closed application$$ 
05:0004905C $$str$8D8E0C0D$closeApplication$$ 
05:00049080 $$str$8CA65E30$The user has pressed Ctrl+Break$$ 
05:000490C0 $$str$575AE1A9$ctrlBreak$$ 
05:000490D4 $$str$B5BE3D2C$The user has pressed Ctrl+C$$ 
05:0004910C $$str$6C55C043$ctrlC$$ 
05:00049118 $$str$2A9AC11A$Mismatch version: a module has different version than VIPCore$$ 
05:00049194 $$str$3C81B469$mismatchVersion$$ 
05:000491B4 $$str$0F8EE4EB$Invalid binary for some domain is in toTerm predicate$$ 
05:00049220 $$str$27E88141$fromBinary$$ 
05:00049238 $$str$C4A0498C$Invalid string for some domain is in toTerm predicate$$ 
05:000492A4 $$str$B6825A13$fromString$$ 
05:000492BC $$str$F23481C0$New exception is raised while handling another exception$$ 
05:00049330 $$str$23716187$exceptionUnderException$$ 
05:00049360 $$str$DC988BED$Internal error occurred while performing the operation$$ 
05:000493D0 $$str$CBF43BCE$internalError$$ 
05:000493EC $$str$F7B1172F$$JustDate: 2010-01-05 $$Revision: 21 $$$ 
05:0004943C $$str$D1446A07$com/visual-prolog/exception/runtime_exception$$ 
--- From 'Obj\programControl.9EE7D4CB.obj'
05:00049498 $$str$6A5DC7E2$C:\Program Files (x86)\Visual Prolog 7.3 PE\pfc\programControl\programControl.pack$$ 
05:00049540 $$str$B7E045EF$$JustDate: 2010-03-11 $$Revision: 24 $$$ 
05:00049590 $$str$5E2E951F$com/visual-prolog/ProgramControl/programControl$$ 
--- From 'Obj\stream.50EDC860.obj'
05:000495F0 $$str$99971311$C:\Program Files (x86)\Visual Prolog 7.3 PE\pfc\stream\stream.pack$$ 
05:00049678 $$str$4A2260CC$pfc/stream/inputStream_null$$ 
05:000496B0 $$str$322012A0$exhausted$$ 
05:000496C4 $$str$E8F8EEA7$Cannot read from inputStream_null$$ 
05:00049708 $$str$6047B204$$JustDate: 2009-07-30 $$Revision: 3 $$$ 
05:00049754 $$str$B5D765F2$pfc/stream/outputStream_null$$ 
05:00049790 $$str$076F3A00$$JustDate: 2010-03-05 $$Revision: 11 $$$ 
05:000497E0 $$str$A5F90EEE$com/visual-prolog/stream/stdio$$ 
05:00049820 $$str$F6D0F73E$stdio::endOfStream$$ 
05:00049848 $$str$70928457$stdio::consult$$ 
05:00049868 $$str$2B05C1EC$stdio::readBytes$$ 
05:0004988C $$str$2D4EE13B$stdio::readString$$ 
05:000498B0 $$str$3D8BD5AD$stdio::readLine$$ 
05:000498D0 $$str$5F262FAF$stdio::ungetChar$$ 
05:000498F4 $$str$C6A856F8$stdio::readChar$$ 
05:00049914 $$str$51DE4C0A$stdio::read$$ 
05:0004992C $$str$9895230C$stdio::flush_error$$ 
05:00049954 $$str$96AE827A$stdio::save_error$$ 
05:00049978 $$str$AD5C403A$stdio::nl_error$$ 
05:00049998 $$str$9A13C71F$stdio::writeQuoted_error$$ 
05:000499CC $$str$52C0EFC1$stdio::writeBytes_error$$ 
05:000499FC $$str$288F49B6$stdio::writef_error$$ 
05:00049A24 $$str$13D09D9A$stdio::write_error$$ 
05:00049A4C $$str$51FA7F41$stdio::flush$$ 
05:00049A68 $$str$DDDF3F30$stdio::save$$ 
05:00049A80 $$str$8944B55C$stdio::nl$$ 
05:00049A94 $$str$A24F6904$stdio::writeQuoted$$ 
05:00049ABC $$str$45549C79$stdio::writeBytes$$ 
05:00049AE0 $$str$C771C33B$stdio::writef$$ 
05:00049AFC $$str$8AF9F48B$stdio::write$$ 
05:00049B18 $$str$A602E98C$stdioState::getErrorStream$$ 
05:00049B50 $$str$BE5A5BEE$stdioState::getOutputStream$$ 
05:00049B88 $$str$64440D39$stdioState::getInputStream$$ 
05:00049BC0 $$str$9AD4175B$$JustDate: 2010-04-05 $$Revision: 8 $$$ 
05:00049C0C $$str$972CE795$pfc/stream/stdioState$$ 
05:00049C38 $$str$ECBEAB64$The predicate has no stream assigned$$ 
05:00049C84 $$str$4DB24D57$noStream$$ 
05:00049C98 $$str$A97D4F35$The predicate cannot be used in current mode$$ 
05:00049CF4 $$str$A5EFE625$wrongMode$$ 
05:00049D08 $$str$65759A9B$CRLF<->LF conversion is not supported$$ 
05:00049D54 $$str$7F4E3D3F$noCRLFconversion$$ 
05:00049D78 $$str$46E9202E$The stream doesn't support the position property$$ 
05:00049DDC $$str$F57DBA7A$notSupportedProperty$$ 
05:00049E08 $$str$BC33EDBD$End of stream$$ 
05:00049E24 $$str$28AE4633$endOfStream$$ 
05:00049E3C $$str$E803A8AE$stream mode$$ 
--- From 'Obj\memory.75BC8824.obj'
05:00049E54 $$str$CA8BFED4$$JustDate: 2010-03-09 $$Revision: 9 $$$ 
--- From 'Obj\stream.50EDC860.obj'
05:00049EA0 $$str$2A75981E$com/visual-prolog/stream/stream_exception$$ 
--- From 'Obj\console_api.0DF09B51.obj'
05:00049EF4 $$str$AC2A431E$C:\Program Files (x86)\Visual Prolog 7.3 PE\pfc\windowsApi\console_api\console_api.pack$$ 
05:00049FA4 $$str$CBD455A3$$JustDate: 2009-02-27 $$Revision: 16 $$$ 
05:00049FF4 $$str$9CC16971$com/visual-prolog/console/console_api$$ 
05:0004A040 $$str$B450EF8F$removeConsoleCtrlHandler$$ 
05:0004A074 $$str$82F797D2$addConsoleCtrlHandler$$ 
05:0004A0A0 $$str$48B86A04$getStdHandle$$ 
--- From 'Obj\exe_api.92EB01D8.obj'
05:0004A0BC $$str$3EEAC7B4$C:\Program Files (x86)\Visual Prolog 7.3 PE\pfc\windowsApi\exe_api\exe_api.pack$$ 
05:0004A15C $$str$DE963AAE$$JustDate: 2009-04-13 $$Revision: 17 $$$ 
05:0004A1AC $$str$0C68804A$pfc/WindowsAPI/exe_api/exe_api$$ 
05:0004A1EC $$str$F204B58D$CoInitializeEx$$ 
05:0004A20C $$str$A6AB5F8A$CoInit$$ 
05:0004A21C $$str$E3638E01$GetModuleFileName$$ 
05:0004A240 $$str$2764681C$moduleHandle$$ 
--- From 'Obj\fileSystem_api.5262ADBC.obj'
05:0004A25C $$str$BAC76168$C:\Program Files (x86)\Visual Prolog 7.3 PE\pfc\windowsApi\fileSystem_api\fileSystem_api.pack$$ 
--- From 'Obj\fileSystem.03D2CA18.obj'
05:0004A318 $$str$2F8DE038$FindClose$$ 
--- From 'Obj\fileSystem_api.5262ADBC.obj'
05:0004A32C $$str$EEEF219A$GetTempPath$$ 
--- From 'Obj\fileSystem.03D2CA18.obj'
05:0004A344 $$str$3C4B8D03$GetLongPathName$$ 
--- From 'Obj\fileSystem_api.5262ADBC.obj'
05:0004A364 $$str$B09B9DAF$short$$ 
05:0004A370 $$str$0B2ACCB0$SetCurrentDirectory$$ 
05:0004A398 $$str$5051EB50$GetCurrentDirectory$$ 
05:0004A3C0 $$str$39D8DC8C$path$$ 
05:0004A3CC $$str$6CF60662$SetVolumeLabel$$ 
05:0004A3EC $$str$95AB99E7$Label$$ 
05:0004A3F8 $$str$98B5DD0A$Drive$$ 
--- From 'Obj\fileSystem.03D2CA18.obj'
05:0004A404 $$str$674D9537$MoveFile$$ 
--- From 'Obj\fileSystem_api.5262ADBC.obj'
05:0004A418 $$str$1F54834A$To$$ 
05:0004A420 $$str$F48CEB6B$From$$ 
05:0004A42C $$str$1C8A9577$CreateDirectory$$ 
05:0004A44C $$str$5C141A0E$RemoveDirectory$$ 
05:0004A46C $$str$900A7229$Directory$$ 
05:0004A480 $$str$24E75236$
$$ 
05:0004A488 $$str$6FD4998F$start position$$ 
05:0004A4A8 $$str$8E1A46E8$FilePointer$$ 
--- From 'Obj\fileSystem.03D2CA18.obj'
05:0004A4C0 $$str$A06E0F4B$FileHandle$$ 
--- From 'Obj\fileSystem_api.5262ADBC.obj'
05:0004A4D8 $$str$B6EF0BA6$Cannot create or open$$ 
05:0004A504 $$str$64468381$raise_cannotCreate$$ 
--- From 'Obj\fileSystem.03D2CA18.obj'
05:0004A52C $$str$8C9407CE$Path$$ 
05:0004A538 $$str$46503EBB$Filename$$ 
--- From 'Obj\fileSystem_api.5262ADBC.obj'
05:0004A54C $$str$8BC4BC09$Cannot set new file pointer$$ 
05:0004A584 $$str$E5C98E63$cannotSetFilePointer$$ 
05:0004A5B0 $$str$3D97F593$Cannot get file size$$ 
05:0004A5DC $$str$E4DB160E$cannotGetFileSize$$ 
05:0004A600 $$str$D8C8E256$Cannot create or open the specified file$$ 
05:0004A654 $$str$7D0D1D77$cannotCreate$$ 
05:0004A670 $$str$7F9A38DE$GetVolumeInformation$$ 
05:0004A69C $$str$45AF72E1$Volume$$ 
05:0004A6AC $$str$C7E4BADC$$JustDate: 2010-04-12 $$Revision: 55 $$$ 
05:0004A6FC $$str$91FDEDBA$com/visual-prolog/fileSystem/fileSystem_api$$ 
--- From 'Obj\time_api.06541A64.obj'
05:0004A754 $$str$1F162621$Kernel32.dll$$ 
--- From 'Obj\fileSystem_api.5262ADBC.obj'
05:0004A770 $$str$B29D0BF6$$JustDate: 2010-03-11 $$Revision: 5 $0000$$ 
05:0004A7C4 $$str$01645804$pfc/windowsApi/fileSystem_api/lZ_fileSystem_native$$ 
--- From 'Obj\time_api.06541A64.obj'
05:0004A82C $$str$1D65DAD5$C:\Program Files (x86)\Visual Prolog 7.3 PE\pfc\windowsApi\time_api\time_api.pack$$ 
05:0004A8D0 $$str$29BB3F24$Type of information$$ 
05:0004A8F8 $$str$CBACC53D$Code of last error$$ 
05:0004A920 $$str$04375FF2$Format picture$$ 
05:0004A940 $$str$DC019D4E$Flags$$ 
--- From 'Obj\string.F4C46458.obj'
05:0004A94C $$str$3F054857$Locale$$ 
--- From 'Obj\time_api.06541A64.obj'
05:0004A95C $$str$1D49A4F3$Cannot get locale information$$ 
05:0004A998 $$str$7CFBB79D$cannotGetLocaleInfo$$ 
05:0004A9C0 $$str$ECF23575$Cannot format date of time with the given format string$$ 
05:0004AA30 $$str$F4059CA2$cannotGetDateTimeFormat$$ 
05:0004AA60 $$str$36912491$tzSpecificLocalTimeToSystemTime2$$ 
05:0004AAA4 $$str$B06795A2$systemTimeToTzSpecificLocalTime$$ 
05:0004AAE4 $$str$EB798D2D$getTimeZoneInformation$$ 
05:0004AB14 $$str$E40363D2$LocalFileTimeToFileTime$$ 
05:0004AB44 $$str$38FF789E$systemTimeToGmtTime$$ 
05:0004AB6C $$str$40BDE843$Seconds fraction$$ 
--- From 'Obj\string.F4C46458.obj'
05:0004AB90 $$str$C83BC5B4$Second$$ 
--- From 'Obj\time_api.06541A64.obj'
05:0004ABA0 $$str$2D759528$Minute$$ 
05:0004ABB0 $$str$B0BEBE22$Hour$$ 
05:0004ABBC $$str$7BC21D48$Day$$ 
05:0004ABC4 $$str$5071D544$Day of week$$ 
05:0004ABDC $$str$C8C20903$Month$$ 
05:0004ABE8 $$str$192965DE$Year$$ 
05:0004ABF4 $$str$CBF722D7$gmtTimeToSystemTime$$ 
05:0004AC1C $$str$F605D572$file time$$ 
--- From 'Obj\math.D326B71E.obj'
05:0004AC30 $$str$5823F943$$JustDate: 2010-03-09 $$Revision: 32 $$$ 
--- From 'Obj\time_api.06541A64.obj'
05:0004AC80 $$str$BF3F90A1$com/visual-prolog/time/time_apiBind/time_api$$ 
--- From 'Obj\windowsAPI.91596BCC.obj'
05:0004ACDC $$str$0487CFA9$C:\Program Files (x86)\Visual Prolog 7.3 PE\pfc\windowsApi\windowsAPI.pack$$ 
--- From 'Obj\exceptionDump.9F4FF40B.obj'
05:0004AD74 $$str$9E9AABEA$C:\Program Files (x86)\Visual Prolog 7.3 PE\pfc\exception\exceptionDump\exceptionDump.pack$$ 
05:0004AE2C $$str$BD710977$none()$$ 
05:0004AE3C $$str$8CC45A48$<<NULL>>$$ 
05:0004AE50 $$str$C3B2B56F$<<Access Violation>>$$ 
05:0004AE7C $$str$52913FC7$ = $$ 
05:0004AE84 $$str$E0E454FD$%s(%d)$$ 
05:0004AE94 $$str$F1A5CAD4$ClassInfo: %s %s
$$ 
05:0004AEB8 $$str$2EBC1514$Exception: %s (%s)

%s%s

$$ 
--- From 'Obj\string.F4C46458.obj'
05:0004AEF0 $$str$9D0BD12E$ $$ 
--- From 'Obj\exceptionDump.9F4FF40B.obj'
05:0004AEF4 $$str$8247D1B2$%s (0x%08X)$$ 
05:0004AF0C $$str$2E0EB6EC$OS information$$ 
05:0004AF2C $$str$5D39BDD6$:

$$ 
05:0004AF34 $$str$BD9FE18B$

$$ 
05:0004AF3C $$str$5962FDB3$ThreadId=%d
$$ 
05:0004AF58 $$str$238BD0DF$
% %s
$$ 
05:0004AF68 $$str$78B5FC27$
----------------------------------------
$$ 
05:0004AFC0 $$str$C8DE1F68$End of Packed Exception Trace
$$ 
05:0004B000 $$str$1B8831B1$Packed Exception Stacktrace:
$$ 
05:0004B03C $$str$4F5457E9$%$$ 
05:0004B040 $$str$590A642B$Vip$$ 
05:0004B048 $$str$546FE7E3$

========================================
 Dump: $$ 
05:0004B0B0 $$str$E77F2719$$JustDate: 2010-03-11 $$Revision: 80 $$$ 
05:0004B100 $$str$65886818$com/visual-prolog/exception/exceptionDump$$ 
--- From 'Obj\fileSystem.03D2CA18.obj'
05:0004B154 $$str$A61A1868$C:\Program Files (x86)\Visual Prolog 7.3 PE\pfc\fileSystem\fileSystem.pack$$ 
05:0004B1EC $$str$7684005B$ShGetFolderPath$$ 
05:0004B20C $$str$FF4AB756$NeedCreate$$ 
05:0004B224 $$str$D970D4D1$Directory ID$$ 
05:0004B240 $$str$CEDA1D96$RC$$ 
05:0004B248 $$str$C529BAAB$GetWindowsDirectory$$ 
05:0004B270 $$str$7F406055$GetSystemDirectory$$ 
05:0004B298 $$str$CE748BCE$*$$ 
05:0004B29C $$str$C4F6067C$SHCreateDirectory$$ 
05:0004B2C0 $$str$40F0DBF3$Dir$$ 
05:0004B2C8 $$str$AFFBFAE6$$JustDate: 2010-05-20 $$Revision: 66 $$$ 
05:0004B318 $$str$0FEE10A4$com/visual-prolog/fileSystem/directory$$ 
05:0004B368 $$str$9EF81F40$To(filename)$$ 
05:0004B384 $$str$DA814E12$From(filename)$$ 
05:0004B3A4 $$str$E2CB9A75$handle:$$ 
05:0004B3B4 $$str$DC024CA6$SHFileOperation(fo_delete)$$ 
05:0004B3EC $$str$4A0A4D50$GetFullPathName$$ 
05:0004B40C $$str$DB9B45E5$SetFileTime$$ 
05:0004B424 $$str$81CF54D2$Creation time$$ 
05:0004B440 $$str$6B4F8634$GetFileAttributesEx$$ 
05:0004B468 $$str$CF3A9ED4$SetFileAttributes$$ 
05:0004B48C $$str$CBF960DB$GetFileAttributes$$ 
05:0004B4B0 $$str$9B64A2C0$GetShortPathName$$ 
05:0004B4D4 $$str$E111AB79$GetTempFileName$$ 
05:0004B4F4 $$str$C8986B85$Prefix$$ 
05:0004B504 $$str$D330909C$FindNextFile$$ 
05:0004B520 $$str$FADCFC11$DeleteFile$$ 
05:0004B538 $$str$6F263594$CopyFile$$ 
05:0004B54C $$str$F30C4A30$$JustDate: 2010-05-20 $$Revision: 94 $$$ 
05:0004B59C $$str$20D48772$com/visual-prolog/fileSystem/file$$ 
05:0004B5E0 $$str$9F6EAD9C$\\$$ 
05:0004B5E8 $$str$4B55F9C4$../$$ 
05:0004B5F0 $$str$DD26AA5D$./$$ 
05:0004B5F8 $$str$8AD20E0E$.\$$ 
05:0004B600 $$str$60EA06A0$..$$ 
05:0004B608 $$str$205DE371$.$$  (Idle)
05:0004B60C $$str$B18F82F2$/$$ 
05:0004B610 $$str$FC4CB9D2$%s%s$$ 
05:0004B61C $$str$8289B328$%s%s.%s$$ 
05:0004B62C $$str$1760BD4B$..\$$ 
05:0004B634 $$str$E4ECC7F4$%s.%s$$ 
05:0004B640 $$str$264F6CE9$File is too big to be converted into the binary or string$$ 
05:0004B6B4 $$str$171A7782$fileTooBig$$ 
05:0004B6CC $$str$AB0AC70E$Not supported attribute$$ 
05:0004B6FC $$str$504F25E3$wrongAttribute$$ 
05:0004B71C $$str$57D6BC23$File already exists$$ 
05:0004B744 $$str$0A6E5463$fileAlreadyExists$$ 
05:0004B768 $$str$E5D99AA4$FileAttribute$$ 
05:0004B784 $$str$07B95941$$JustDate: 2009-02-27 $$Revision: 13 $$$ 
05:0004B7D4 $$str$C9CD1889$com/visual-prolog/fileSystem/fileSystem_exception$$ 
05:0004B838 $$str$25271558$Time of the build$$ 
05:0004B85C $$str$A382340D$FileVersion$$ 
05:0004B874 $$str$640F7A2F$FileDescription$$ 
05:0004B894 $$str$542ABFCB$LegalCopyright$$ 
05:0004B8B4 $$str$A10D9322$CompanyName$$ 
05:0004B8CC $$str$259FAE87$%04x%04x$$ 
05:0004B8E0 $$str$0025C14D$\VarFileInfo\Translation$$ 
05:0004B914 $$str$9500DD88$GetFileVersionInfo$$ 
05:0004B93C $$str$8CDC9CA4$GetFileVersionInfoSize$$ 
05:0004B96C $$str$2B54D985$fileName$$ 
05:0004B980 $$str$3372177B$\StringFileInfo\%s\%s$$ 
05:0004B9AC $$str$9D02CBCA$$JustDate: 2010-03-15 $$Revision: 31 $$$ 
05:0004B9FC $$str$C7D03AAF$com/visual-prolog/fileSystem/fileVersion$$ 
05:0004BA50 $$str$FB17C286$FileRead$$ 
05:0004BA64 $$str$6FFB4D02$getAvailableCount$$ 
05:0004BA88 $$str$C41E9C4C$inputStream_file::setCRLFconversion$$ 
05:0004BAD0 $$str$1E121510$$JustDate: 2010-04-12 $$Revision: 48 $$$ 
05:0004BB20 $$str$A927019B$com/visual-prolog/fileSystem/inputStream_file$$ 
--- From 'Obj\std.9E23208D.obj'
05:0004BB7C $$str$C5E71C18$$JustDate: 2009-02-27 $$Revision: 7 $$$ 
--- From 'Obj\fileSystem.03D2CA18.obj'
05:0004BBC8 $$str$C68B9EF0$pfc/fileSystem/messageFile$$ 
05:0004BC00 $$str$3E2A0998$FlushFileBuffers$$ 
05:0004BC24 $$str$5DF41891$CloseHandle$$ 
05:0004BC3C $$str$E857F7A3$outputStream_file::setCRLFconversion$$ 
05:0004BC88 $$str$EA7D856B$$JustDate: 2010-05-25 $$Revision: 41 $$$ 
05:0004BCD8 $$str$DE6999C0$com/visual-prolog/string/outputStream_file$$ 
--- From 'Obj\math.D326B71E.obj'
05:0004BD30 $$str$D59D8692$C:\Program Files (x86)\Visual Prolog 7.3 PE\pfc\math\math.pack$$ 
05:0004BDB0 $$str$2D490D3C$com/visual-prolog/Math/math$$ 
05:0004BDE8 $$str$D56EE6BC$coTanh/1 : infinity result$$ 
05:0004BE20 $$str$C4416DC8$cotanhInfinityResult$$ 
05:0004BE4C $$str$4F48F016$arccoTanh/1 : argument is outside of (-1.0 ..1.0)$$ 
05:0004BEB0 $$str$5AAE7465$acotanhOutOfBounds$$ 
05:0004BED8 $$str$84916E35$arcTanh/1 : argument is outside of (-1.0 ..1.0)$$ 
05:0004BF38 $$str$1FC44E87$atanhOutOfBounds$$ 
05:0004BF5C $$str$09ACF471$arccosh/1 : argument is outside of [1.0 ..)$$ 
05:0004BFB4 $$str$532E4951$acoshOutOfBounds$$ 
05:0004BFD8 $$str$AB3CA998$arcsin/1 : argument is outside of [-1.0 ..1.0]$$ 
05:0004C038 $$str$095B8DEE$asinOutOfBounds$$ 
05:0004C058 $$str$F6DD64AB$argument$$ 
05:0004C06C $$str$EE7C4038$com/visual-prolog/Math/math_exception$$ 
--- From 'Obj\memory.75BC8824.obj'
05:0004C0B8 $$str$CBC41187$C:\Program Files (x86)\Visual Prolog 7.3 PE\pfc\memory\memory.pack$$ 
05:0004C140 $$str$2EC848CA$pfc/memory/weakPointer$$ 
--- From 'Obj\string.F4C46458.obj'
05:0004C170 $$str$BA3C361D$C:\Program Files (x86)\Visual Prolog 7.3 PE\pfc\string\string.pack$$ 
05:0004C1F8 $$str$29FBBEC5$inputStream_string::setMode$$ 
05:0004C230 $$str$9156FE49$$JustDate: 2009-07-16 $$Revision: 15 $$$ 
05:0004C280 $$str$93823D0F$com/visual-prolog/string/inputStream_string$$ 
05:0004C2D8 $$str$C0D11C1B$outputStream_string::bufferNotFound_exception$$ 
--- From 'Obj\binary.5C1BA76F.obj'
05:0004C334 $$str$3B8E7A73$Buffer is not found. Buffer number:$$ 
05:0004C37C $$str$752BBADB$ansi$$ 
--- From 'Obj\string.F4C46458.obj'
05:0004C388 $$str$EB3B157C$outputStream_string::setMode$$ 
05:0004C3C4 $$str$05163AB8$$JustDate: 2010-03-09 $$Revision: 25 $$$ 
05:0004C414 $$str$776C2AF0$com/visual-prolog/string/outputStream_string$$ 
05:0004C470 $$str$30807906$try$$ 
05:0004C478 $$str$6183CCA5$to$$ 
05:0004C480 $$str$4CD1EF54$then$$ 
05:0004C48C $$str$86B398C6$supports$$ 
05:0004C4A0 $$str$0A05E68C$single$$ 
05:0004C4B0 $$str$B7729592$resolve$$ 
05:0004C4C0 $$str$040B486E$rem$$ 
05:0004C4C8 $$str$A6793E90$quot$$ 
05:0004C4D4 $$str$1853D1F8$properties$$ 
05:0004C4EC $$str$DB458D3B$procedure$$ 
05:0004C500 $$str$959A839B$predicates$$ 
05:0004C518 $$str$5A5F918B$or$$ 
05:0004C520 $$str$63D119CF$open$$ 
05:0004C52C $$str$0A8A79FB$nondeterm$$ 
05:0004C540 $$str$54336A50$namespace$$ 
05:0004C554 $$str$319FA7FD$multi$$ 
05:0004C560 $$str$00F6D487$mod$$ 
05:0004C568 $$str$173EB305$language$$ 
05:0004C57C $$str$4C4E883B$inherits$$ 
05:0004C590 $$str$08896B12$interface$$ 
05:0004C5A4 $$str$118EF590$implement$$ 
05:0004C5B8 $$str$85E1AA7D$if$$ 
05:0004C5C0 $$str$29EA71C1$goal$$ 
05:0004C5CC $$str$E8F6369A$from$$ 
05:0004C5D8 $$str$490E9CAE$foreach$$ 
05:0004C5E8 $$str$EB5316BF$finally$$ 
05:0004C5F8 $$str$C4F3C203$failure$$ 
05:0004C608 $$str$AE273626$facts$$ 
05:0004C614 $$str$615172A9$externally$$ 
05:0004C62C $$str$E1FD4A99$erroneous$$ 
05:0004C640 $$str$098B3977$elseif$$ 
05:0004C650 $$str$A99487F2$else$$ 
05:0004C65C $$str$00C9156B$domains$$ 
05:0004C66C $$str$521DD9B9$do$$ 
05:0004C674 $$str$4194F71F$div$$ 
05:0004C67C $$str$3B1C629D$digits$$ 
05:0004C68C $$str$AE6B2C5E$determ$$ 
05:0004C69C $$str$76DAAFE9$delegate$$ 
05:0004C6B0 $$str$D23E5FA7$decoratedW$$ 
05:0004C6C8 $$str$E10FACE8$decoratedA$$ 
05:0004C6E0 $$str$0728258D$decorated$$ 
05:0004C6F4 $$str$63735523$constructors$$ 
05:0004C710 $$str$E88B4C44$constants$$ 
05:0004C724 $$str$B5F92FED$clauses$$ 
05:0004C734 $$str$FC0F9EFD$class$$ 
05:0004C740 $$str$B700CED3$catch$$ 
05:0004C74C $$str$517B946A$bitsize$$ 
05:0004C75C $$str$EB830DAF$as$$ 
05:0004C764 $$str$0B576EC6$anyflow$$ 
05:0004C774 $$str$4CA5AC37$and$$ 
05:0004C77C $$str$629A073D$align$$ 
05:0004C788 $$str$708259F1$compareIgnoreCase$$ 
05:0004C7AC $$str$9D84E813$First$$ 
05:0004C7B8 $$str$BDED293E$$JustDate: 2010-04-19 $$Revision: 106 $$$ 
05:0004C808 $$str$E1571A64$com/visual-prolog/string/string$$ 
05:0004C848 $$str$519AA91D$Offset$$ 
05:0004C858 $$str$48DA1D57$String length$$ 
05:0004C874 $$str$CB2BAF5A$String position$$ 
05:0004C894 $$str$CA905C3F$Unicode string cannot have odd byte offset$$ 
05:0004C8EC $$str$89574DD1$oddOffset$$ 
05:0004C900 $$str$CA0EAFEA$The parameter does not meet the boundary conditions$$ 
05:0004C968 $$str$D7932FED$outOfBoundaries$$ 
05:0004C988 $$str$2DD907EF$Format$$ 
05:0004C998 $$str$E1F46587$Empty string is an illegal parameter$$ 
05:0004C9E4 $$str$90AACCC9$emptyString$$ 
05:0004C9FC $$str$518951C2$$JustDate: 2009-02-27 $$Revision: 14 $$$ 
05:0004CA4C $$str$8A4BE6A2$com/visual-prolog/string/string_exception$$ 
--- From 'Obj\inputStreamSupport.7E046C1B.obj'
05:0004CAA0 $$str$D92DADF6$C:\Program Files (x86)\Visual Prolog 7.3 PE\pfc\stream\inputStreamSupport\inputStreamSupport.pack$$ 
05:0004CB64 $$str$00A4400D$readString$$ 
05:0004CB7C $$str$BE3F0BB2$readBytes$$ 
05:0004CB90 $$str$4A35E02A$consult$$ 
05:0004CBA0 $$str$BE67C399$readLine$$ 
05:0004CBB4 $$str$C1073186$ungetChar$$ 
05:0004CBC8 $$str$571AC266$readChar$$ 
05:0004CBDC $$str$77BFD37B$$JustDate: 2009-04-12 $$Revision: 13 $$$ 
05:0004CC2C $$str$74A53284$com/visual-prolog/stream/inputStreamSupport/inputSupport$$ 
--- From 'Obj\outputStreamSupport.F4FF31D0.obj'
05:0004CCA0 $$str$E219C62D$C:\Program Files (x86)\Visual Prolog 7.3 PE\pfc\stream\outputStreamSupport\outputStreamSupport.pack$$ 
05:0004CD68 $$str$0F56D23B$writeBytes$$ 
05:0004CD80 $$str$9AFD0C72$save$$ 
05:0004CD8C $$str$47FBDEFB$writef$$ 
05:0004CD9C $$str$57E2C8EB$writeQuoted$$ 
05:0004CDB4 $$str$AF8378EA$$JustDate: 2010-05-25 $$Revision: 20 $$$ 
05:0004CE04 $$str$ED1A3C89$com/visual-prolog/stream/outputStreamSupport/outputSupport$$ 
--- From 'Obj\multiThread_api.F2BE0D3B.obj'
05:0004CE7C $$str$D0A86AC9$C:\Program Files (x86)\Visual Prolog 7.3 PE\pfc\windowsApi\multiThread_api\multiThread_api.pack$$ 
05:0004CF3C $$str$0A487217$Create???$$ 
05:0004CF50 $$str$0F81E0B4$Name$$ 
05:0004CF5C $$str$9A5A8EBE$Unnamed$$ 
05:0004CF6C $$str$05EF00B5$CancelWaitableTimer$$ 
05:0004CF94 $$str$DA67902D$SetWaitableTimer$$ 
05:0004CFB8 $$str$668C6603$Resume$$ 
05:0004CFC8 $$str$B00871A9$Period$$ 
05:0004CFD8 $$str$692B1F8D$Time$$ 
05:0004CFE4 $$str$1C51894A$OpenWaitableTimer$$ 
05:0004D008 $$str$4E757A07$CreateWaitableTimer$$ 
05:0004D030 $$str$688D3C5D$ReleaseSemaphore$$ 
05:0004D054 $$str$A6CD8706$Count$$ 
05:0004D060 $$str$A06684B5$OpenSemaphore$$ 
05:0004D07C $$str$7C27E91E$CreateSemaphore$$ 
05:0004D09C $$str$20FFE8F8$Maximum count$$ 
05:0004D0B8 $$str$E94FBBD3$Initial count$$ 
05:0004D0D4 $$str$E6077615$ReleaseMutex$$ 
05:0004D0F0 $$str$A5B342D1$OpenMutex$$ 
05:0004D104 $$str$42B2172E$CreateMutex$$ 
05:0004D11C $$str$4CE82B87$Initial owner$$ 
05:0004D138 $$str$5A4BC3B1$PulseEvent$$ 
05:0004D150 $$str$2748D4F4$ResetEvent$$ 
05:0004D168 $$str$94D01D8A$SetEvent$$ 
05:0004D17C $$str$8FA6D0BF$Handle$$ 
05:0004D18C $$str$F491C86A$OpenEvent$$ 
05:0004D1A0 $$str$5BEE2A4C$CreateEvent$$ 
05:0004D1B8 $$str$B69862B0$InitState$$ 
05:0004D1CC $$str$9B371342$ManualReset$$ 
05:0004D1E4 $$str$4473096C$$JustDate: 2010-03-09 $$Revision: 26 $$$ 
05:0004D234 $$str$4C57D6A2$com/visual-prolog/multiThread/multiThread_apiBind/multiThread_api$$ 
--- From 'Obj\string8_api.7710D13D.obj'
05:0004D2B8 $$str$884F899B$C:\Program Files (x86)\Visual Prolog 7.3 PE\pfc\windowsApi\string8_api\string8_api.pack$$ 
05:0004D368 $$str$A3ACA4DA$WideCharToMultiByte$$ 
05:0004D390 $$str$49218D29$MultiByteToWideChar$$ 
05:0004D3B8 $$str$C2C15455$$JustDate: 2010-03-09 $$Revision: 15 $$$ 
05:0004D408 $$str$591FE05D$com/visual-prolog/string/string8_api/string8_api$$ 
--- From 'Obj\binary.5C1BA76F.obj'
05:0004D46C $$str$84A6F368$C:\Program Files (x86)\Visual Prolog 7.3 PE\pfc\binary\binary.pack$$ 
05:0004D4F4 $$str$B279149B$ensureNonAtomic$$ 
05:0004D514 $$str$302DC103$$JustDate: 2010-10-02 $$Revision: 58 $$$ 
05:0004D564 $$str$AD2100D6$com/visual-prolog/binary/binary$$ 
05:0004D5A4 $$str$693B025F$Wrong binary$$ 
05:0004D5C0 $$str$356F8D1B$Index out of binary limits$$ 
05:0004D5F8 $$str$3BCA6A4D$indexOutOfRange$$ 
05:0004D618 $$str$121ACE79$Wrong format of the binary$$ 
05:0004D650 $$str$3DAD0A0A$wrongBinaryFormat$$ 
05:0004D674 $$str$F09F9FE4$Internal decode error$$ 
05:0004D6A0 $$str$BD8DCB36$internalDecodeError$$ 
05:0004D6C8 $$str$D3370571$Invalid compression format$$ 
05:0004D700 $$str$A1FEA9C4$invalidCompressionFormat$$ 
05:0004D734 $$str$99295D0E$$JustDate: 2010-03-09 $$Revision: 11 $$$ 
05:0004D784 $$str$67F1BD3D$com/visual-prolog/binary/binary_exception$$ 
05:0004D7D8 $$str$03C36A00$inputStream_binary::setMode$$ 
05:0004D810 $$str$E84BDC54$$JustDate: 2009-07-16 $$Revision: 13 $$$ 
05:0004D860 $$str$51C0CA7B$com/visual-prolog/binary/inputStream_binary$$ 
05:0004D8B8 $$str$ED7AAD83$outputStream_binary::bufferNotFound_exception$$ 
05:0004D914 $$str$58E02960$outputStream_binary::setMode$$ 
05:0004D950 $$str$0E72E84C$com/visual-prolog/binary/outputStream_binary$$ 
--- From 'Obj\list.372A041A.obj'
05:0004D9AC $$str$E1284CA7$C:\Program Files (x86)\Visual Prolog 7.3 PE\pfc\list\list.pack$$ 
05:0004DA2C $$str$50251535$$JustDate: 2010-03-30 $$Revision: 60 $$$ 
05:0004DA7C $$str$6D2A8361$com/visual-prolog/pfc/list/list$$ 
05:0004DABC $$str$3D827188$Input list is empty.$$ 
05:0004DAE8 $$str$583F306B$Lists of different length$$ 
05:0004DB1C $$str$601EE63B$minimumBy$$ 
05:0004DB30 $$str$FD141DA9$maximumBy$$ 
05:0004DB44 $$str$382E1136$setNth$$ 
05:0004DB54 $$str$C526FC62$nth$$ 
05:0004DB5C $$str$980EF1C5$N = $$ 
05:0004DB68 $$str$38B03313$zip_nd$$ 
--- From 'Obj\namedValue.0E580094.obj'
05:0004DB78 $$str$FB8A03A9$C:\Program Files (x86)\Visual Prolog 7.3 PE\pfc\namedValue\namedValue.pack$$ 
05:0004DC10 $$str$0E46BF6A$getNamed_unsigned64$$ 
05:0004DC38 $$str$E5400923$getNamed_integer64$$ 
05:0004DC60 $$str$3EBAEFF7$getNamed_handle$$ 
05:0004DC80 $$str$F01F2951$getNamed_pointer$$ 
05:0004DCA4 $$str$536F223F$getNamed_object$$ 
05:0004DCC4 $$str$2FCBB958$getNamed_binary$$ 
05:0004DCE4 $$str$12C217ED$The name was not found in the map$$ 
05:0004DD28 $$str$88881253$nameNotInMap$$ 
05:0004DD44 $$str$FE82345E$namedValueList$$ 
05:0004DD64 $$str$DE7B191D$$JustDate: 2009-02-27 $$Revision: 9 $$$ 
05:0004DDB0 $$str$46E162E8$com/visual-prolog/namedValue/namedValue$$ 
--- From 'Obj\std.9E23208D.obj'
05:0004DE00 $$str$59B458C3$C:\Program Files (x86)\Visual Prolog 7.3 PE\pfc\std\std.pack$$ 
05:0004DE7C $$str$2B26C666$std/std$$ 
--- From 'Obj\memory_api.26CFD9D6.obj'
05:0004DE8C $$str$D37B6967$C:\Program Files (x86)\Visual Prolog 7.3 PE\pfc\windowsApi\memory_api\memory_api.pack$$ 
--- From 'Obj\runTime_api.6CC3F910.obj'
05:0004DF38 $$str$9FC34A50$C:\Program Files (x86)\Visual Prolog 7.3 PE\pfc\windowsApi\runTime_api\runTime_api.pack$$ 
05:0004DFE8 $$str$2B5564D3$HARDWARE\DESCRIPTION\System\CentralProcessor\0$$ 
05:0004E048 $$str$7EA073C9$ProcessorNameString: %s
VendorIdentifier: %s
Identifier: %s
~MHz: %s$$ 
05:0004E0D4 $$str$F50159CB$Identifier$$ 
05:0004E0EC $$str$5290FF52$VendorIdentifier$$ 
05:0004E110 $$str$0E529D71$ProcessorNameString$$ 
05:0004E138 $$str$FDA88874$~MHz$$ 
05:0004E144 $$str$5B0BCCEB$GetNativeSystemInfo$$ 
05:0004E16C $$str$003F54FF$Number Of Processors: %d PageSize: %d Processor: %d level: %d revision: %d
$$ 
05:0004E204 $$str$30CD4BB7$%s %s%s (Build %)
%s%s$$ 
05:0004E234 $$str$83EE23BE$ 64-bit$$ 
05:0004E244 $$str$B2F431C8$IsWow64Process$$ 
05:0004E264 $$str$1483A6C1$kernel32.dll$$ 
05:0004E280 $$str$BC1573D9$Advanced Server$$ 
05:0004E2A0 $$str$AEB563A4$SERVERNT$$ 
05:0004E2B4 $$str$7258C981$LANMANNT$$ 
05:0004E2C8 $$str$484C1379$Workstation$$ 
05:0004E2E0 $$str$8DB66652$WINNT$$ 
05:0004E2EC $$str$ED5CC2A6$ProductType$$ 
05:0004E304 $$str$85839886$SYSTEM\CurrentControlSet\Control\ProductOptions$$ 
05:0004E364 $$str$BF6AD54B$Windows 95, 98 or ME$$ 
05:0004E390 $$str$51B22CD3$Version %.%$$ 
05:0004E3A8 $$str$32F467F2$Windows Server "Longhorn" $$ 
05:0004E3E0 $$str$A6FBF163$Microsoft Windows Vista $$ 
05:0004E414 $$str$D4D66BDD$ProductName$$ 
05:0004E42C $$str$998846CB$SOFTWARE\Microsoft\Windows NT\CurrentVersion$$ 
05:0004E488 $$str$9776E481$Microsoft Windows NT$$ 
05:0004E4B4 $$str$DEFB0978$Server 4.0$$ 
05:0004E4CC $$str$E0E58F4D$Server 4.0, Enterprise Edition$$ 
05:0004E50C $$str$8D112874$Workstation 4.0$$ 
05:0004E52C $$str$B398B756$Microsoft Windows 2000$$ 
05:0004E55C $$str$F069B73D$Server$$ 
05:0004E56C $$str$558620F0$Microsoft Windows XP$$ 
05:0004E598 $$str$0B974085$product 0x%08X.$$ 
05:0004E5B8 $$str$4F67329F$Professional$$ 
05:0004E5D4 $$str$0BCE7E52$Home Edition$$ 
05:0004E5F0 $$str$5307EBD6$% %$$ 
05:0004E5F8 $$str$319A4FD5$Standard Edition$$ 
05:0004E61C $$str$81321D0F$Web Edition$$ 
05:0004E634 $$str$2EE4F86F$Enterprise Edition$$ 
05:0004E65C $$str$9F9A30D4$DataCenter Edition$$ 
05:0004E684 $$str$169F757B$Microsoft Windows Server 2003$$ 
05:0004E6C0 $$str$24A4A0A0$Microsoft Windows XP Professional x64 Edition$$ 
05:0004E71C $$str$C6C68EA2$Microsoft Windows Server 2003 "R2" $$ 
05:0004E764 $$str$F5D0BE67$Minor: %d, product 0x%08X.$$ 
05:0004E79C $$str$08B5A44E$$JustDate: 2010-03-09 $$Revision: 19 $$$ 
05:0004E7EC $$str$1A1B2E0A$pfc/windowsapi/systemInformation_api/runtime_api$$ 
--- From 'Obj\locale_api.81889F56.obj'
05:0004E850 $$str$18AEBCE0$C:\Program Files (x86)\Visual Prolog 7.3 PE\pfc\windowsApi\locale_api\locale_api.pack$$ 
05:0004E8FC $$str$6C94CB7A$pfc/WindowsAPI/locale_api/locale_api$$ 
05:0004E948 $$str$95FD9189$$JustDate: 2010-03-11 $$Revision: 12 $$$ 
05:0004E998 $$str$0540A818$pfc/WindowsAPI/locale_api/locale_native$$ 
--- From 'Obj\systemInformation_api.671D1739.obj'
05:0004E9E8 $$str$8E36FC06$C:\Program Files (x86)\Visual Prolog 7.3 PE\pfc\windowsApi\systemInformation_api\systemInformation_api.pack$$ 
05:0004EAC0 $$str$62C82361$systemParametersInfo_outInt$$ 
05:0004EAF8 $$str$137CA7D5$systemParametersInfo$$ 
05:0004EB24 $$str$ED527B1A$getComputerNameEx$$ 
05:0004EB48 $$str$D12E0BF0$getComputerName$$ 
05:0004EB68 $$str$0F5A98D4$getUserNameEx$$ 
05:0004EB84 $$str$55AE17AB$getUserName$$ 
05:0004EB9C $$str$F403D2B1$getVersionEx$$ 
05:0004EBB8 $$str$B53E1151$pfc/windowsapi/systemInformation_api/systemInformation_api$$ 
--- From 'Obj\string_api.6EE9B13E.obj'
05:0004EC30 $$str$43879E65$C:\Program Files (x86)\Visual Prolog 7.3 PE\pfc\windowsApi\string_api\string_api.pack$$ 
036000:018CE0 001AA0   VIPInter::VIPInter::.rdata F=4
--- From 'Obj\string_api.6EE9B13E.obj'
05:0004ECE0 $mode$stream$0$domain$$type_library$ 
05:0004ED0C $mode$stream$0$domain$ 
05:0004ED60 $stream$_global$0$domain$$type_library$  (Idle)
05:0004ED70 $stream$_global$0$domain$ 
05:0004EDA0 interface$stream 
05:0004EE00 $stdioState$_global$0$domain$$type_library$ 
05:0004EE10 $stdioState$_global$0$domain$ 
05:0004EE40 interface$stdioState 
05:0004EEB0 $outputSerializer$outputStream$0$domain$$type_library$  (Idle)
05:0004EEC0 $outputSerializer$outputStream$0$domain$ 
05:0004EF00 $outputStream$_global$0$domain$$type_library$ 
05:0004EF10 $outputStream$_global$0$domain$ 
05:0004EF40 interface$outputStream 
05:0004EFB0 $inputStream$_global$0$domain$$type_library$ 
05:0004EFC0 $inputStream$_global$0$domain$ 
05:0004EFF0 interface$inputStream 
05:0004F060 $offsetPtr$bufferSupport$0$domain$$type_library$  (Idle)
05:0004F07C $offsetPtr$bufferSupport$0$domain$ 
05:0004F0C0 $bufferSupport$_global$0$domain$$type_library$  (Idle)
05:0004F0D0 $bufferSupport$_global$0$domain$ 
05:0004F100 interface$bufferSupport 
05:0004F180 $runtimeLinkNamesRun$_global$0$domain$$type_library$  (Idle)
05:0004F190 $runtimeLinkNamesRun$_global$0$domain$ 
05:0004F1D0 interface$runtimeLinkNamesRun 
--- From 'Obj\systemInformation_api.671D1739.obj'
05:0004F250 $trapInformationObject$_global$0$domain$$type_library$  (Idle)
05:0004F260 $trapInformationObject$_global$0$domain$ 
05:0004F2A0 interface$trapInformationObject 
05:0004F340 $errorDescriptorInformation$_global$0$domain$$type_library$ 
05:0004F350 $errorDescriptorInformation$_global$0$domain$ 
05:0004F3A0 interface$errorDescriptorInformation 
--- From 'Obj\string_api.6EE9B13E.obj'
05:0004F450 $disposable$_global$0$domain$$type_library$  (Idle)
05:0004F460 $disposable$_global$0$domain$ 
05:0004F490 interface$disposable 
05:0004F4F0 $object$_global$0$domain$$type_library$ 
05:0004F500 $object$_global$0$domain$ 
05:0004F530 interface$object 
--- From 'Obj\systemInformation_api.671D1739.obj'
05:0004F560 $weakPointer$_global$0$domain$$type_library$  (Idle)
05:0004F570 $weakPointer$_global$0$domain$ 
05:0004F5A0 interface$weakPointer 
05:0004F610 $contentsChangedListener$outputStream_string$0$domain$$type_library$ 
05:0004F620 $contentsChangedListener$outputStream_string$0$domain$ 
05:0004F660 $outputStream_string$_global$0$domain$$type_library$  (Idle)
05:0004F670 $outputStream_string$_global$0$domain$ 
05:0004F6B0 interface$outputStream_string 
05:0004F740 $outputStream_binary$_global$0$domain$$type_library$  (Idle)
05:0004F750 $outputStream_binary$_global$0$domain$ 
05:0004F790 interface$outputStream_binary 
--- From 'Obj\list.372A041A.obj'
05:0004F820 $setP{@Self,@Type}$_global$2$domain$$type_library$  (Idle)
05:0004F830 $setP{@Self,@Type}$_global$2$domain$ 
05:0004F850 interface$setP{@Self,@Type} 
05:0004F8C0 $setM{@Type}$_global$1$domain$$type_library$  (Idle)
05:0004F8D0 $setM{@Type}$_global$1$domain$ 
05:0004F8F0 interface$setM{@Type} 
05:0004F960 $queueP{@Self,@Type}$_global$2$domain$$type_library$  (Idle)
05:0004F970 $queueP{@Self,@Type}$_global$2$domain$ 
05:0004F9A0 interface$queueP{@Self,@Type} 
05:0004FA20 $queueM{@Type}$_global$1$domain$$type_library$  (Idle)
05:0004FA30 $queueM{@Type}$_global$1$domain$ 
05:0004FA60 interface$queueM{@Type} 
05:0004FAD0 $persistent{@Self,@Type}$_global$2$domain$$type_library$  (Idle)
05:0004FAE0 $persistent{@Self,@Type}$_global$2$domain$ 
05:0004FB10 interface$persistent{@Self,@Type} 
05:0004FBA0 $modifiable{@Type}$_global$1$domain$$type_library$  (Idle)
05:0004FBB0 $modifiable{@Type}$_global$1$domain$ 
05:0004FBE0 interface$modifiable{@Type} 
05:0004FC60 $mapP{@Self,@Key,@Data}$_global$3$domain$$type_library$  (Idle)
05:0004FC70 $mapP{@Self,@Key,@Data}$_global$3$domain$ 
05:0004FC90 interface$mapP{@Self,@Key,@Data} 
05:0004FD10 $mapM{@Key,@Data}$_global$2$domain$$type_library$  (Idle)
05:0004FD20 $mapM{@Key,@Data}$_global$2$domain$ 
05:0004FD40 interface$mapM{@Key,@Data} 
05:0004FDB0 $map{@Key,@Data}$_global$2$domain$$type_library$  (Idle)
05:0004FDC0 $map{@Key,@Data}$_global$2$domain$ 
05:0004FDE0 interface$map{@Key,@Data} 
--- From 'Obj\mapMSupport.F2ECDBAC.obj'
05:0004FE50 $mapMSupport{@Key,@Data}$_global$2$domain$$type_library$  (Idle)
05:0004FE60 $mapMSupport{@Key,@Data}$_global$2$domain$ 
05:0004FE90 interface$mapMSupport{@Key,@Data} 
05:0004FF50 $collectionSupportM\mapMSite{@Key,@Data}$_global$2$domain$$type_library$  (Idle)
05:0004FF60 $collectionSupportM\mapMSite{@Key,@Data}$_global$2$domain$ 
05:0004FFB0 interface$collectionSupportM\mapMSite{@Key,@Data} 
--- From 'Obj\collectionMsupport.B3E5070C.obj'
05:00050080 $collectionSupportM\collectionMsupport{@Type}$_global$1$domain$$type_library$  (Idle)
05:00050090 $collectionSupportM\collectionMsupport{@Type}$_global$1$domain$ 
05:000500F0 interface$collectionSupportM\collectionMsupport{@Type} 
05:000501F0 $collectionSupportM\collectionMsite{@Type}$_global$1$domain$$type_library$  (Idle)
05:00050200 $collectionSupportM\collectionMsite{@Type}$_global$1$domain$ 
05:00050260 interface$collectionSupportM\collectionMsite{@Type} 
--- From 'Obj\list.372A041A.obj'
05:00050350 $collection{@Type}$_global$1$domain$$type_library$  (Idle)
05:00050360 $collection{@Type}$_global$1$domain$ 
05:00050390 interface$collection{@Type} 
--- From 'Obj\string_api.6EE9B13E.obj'
05:00050410 $outputSupport$_global$0$domain$$type_library$  (Idle)
05:00050420 $outputSupport$_global$0$domain$ 
05:00050450 interface$outputSupport 
05:000504F0 $outputBuffer$_global$0$domain$$type_library$ 
05:00050500 $outputBuffer$_global$0$domain$ 
05:00050530 interface$outputBuffer 
05:000505D0 $inputSupport$_global$0$domain$$type_library$  (Idle)
05:000505E0 $inputSupport$_global$0$domain$ 
05:00050610 interface$inputSupport 
05:000506B0 $inputBuffer$_global$0$domain$$type_library$ 
05:000506C0 $inputBuffer$_global$0$domain$ 
05:000506F0 interface$inputBuffer 
036000:01A780 001A7C   .rdata::.rdata::.rdata F=4
--- From '.\releasepe\VIPDll.obj'
05:00050788 _VIPStartOfDictionary 
--- From '.\releasepe\VIPPE.obj'
05:00052150 ??_C@_0JO@IKLJBBEK@This?5application?5is?5created?5with@ 
05:000521F0 ??_C@_0L@DLNDOIBH@Attention?$CB?$AA@ 
Frame 053000   Size 0002C0.  Name=<  PRODBG>, 	Chars=40000040h. [IR]
053000:000000 0002C0   PRODBG::PRODBG::PRODBG F=4
Frame 054000   Size 0000C0.  Name=<   .data>, 	Chars=C0000040h. [IRW]
054000:000000 0000AC   .data::DATA::DGROUP F=4
054000:0000AC 00000C   .bss::BSS::DGROUP F=4
Frame 055000   Size 000030.  Name=< .gcroot>, 	Chars=C0000040h. [IRW]
055000:000000 000024   .gcroot::.gcroot::.gcroot F=4
--- Total Cnt   =  3527 --------
[import] 'Obj\fileSystem_api.5262ADBC.obj' KERNEL32.dll. _GetFileSizeEx@8 
[import] 'Obj\registry_api.4F19C9C1.obj' ADVAPI32.dll. _RegEnumValueW@32 
[import] 'Obj\exceptionDump.9F4FF40B.obj' USER32.dll. _MessageBoxW@16 
[import] 'Obj\fileSystem.03D2CA18.obj' KERNEL32.dll. _GetSystemDirectoryW@8 
[import] 'Obj\console.FF8DBACA.obj' KERNEL32.dll. _GetNumberOfConsoleInputEvents@8 
[import] 'Obj\fileSystem.03D2CA18.obj' SHELL32.dll. [by ordinal] _SHGetFolderPathW@20 
[import] 'Obj\console.FF8DBACA.obj' KERNEL32.dll. _WaitForSingleObject@8 
[import] 'Obj\registry_api.4F19C9C1.obj' ADVAPI32.dll. _RegOpenKeyExW@20 
[import] 'Obj\console.FF8DBACA.obj' KERNEL32.dll. _ReadConsoleInputW@16 
[import] 'Obj\list.372A041A.obj' VIP7Run.dll. ?Unify@RunTime@VIP@@YGXQBVrTypeLibrary@12@PAX1@Z 
[import] 'Obj\math.D326B71E.obj' VIP7Run.dll. ?ln@RunTime@VIP@@YANN@Z 
[import] 'Obj\binary.5C1BA76F.obj' VIP7Run.dll. ?AllocateObject@RunTime@VIP@@YGPAEQBVRObjectClassDescriptorInfo@12@PAP6GXPAX@Z@Z 
[import] 'Obj\namedValue.0E580094.obj' VIP7Kernel.dll. ?Cut_Prolog@Kernel@VIP@@YAXXZ 
[import] 'Obj\inputStreamSupport.7E046C1B.obj' VIP7Run.dll. ?RetractFactDataBaseWCTS@RunTime@VIP@@YGXQBVfactDbValue@12@@Z 
[import] 'Obj\registry_api.4F19C9C1.obj' ADVAPI32.dll. _RegEnumKeyExW@32 
[import] 'Obj\binary.5C1BA76F.obj' VIP7Kernel.dll. ?MEM_alloc_nullfunctor@Kernel@VIP@@YGPBEI@Z 
[import] 'Obj\fileSystem.03D2CA18.obj' SHELL32.dll. [by ordinal] _SHBrowseForFolderW@4 
[import] 'Obj\binary.5C1BA76F.obj' VIP7Run.dll. ?setMemory16@RunTime@VIP@@YGXPAGG@Z 
[import] 'Obj\fileSystem.03D2CA18.obj' SHELL32.dll. [by ordinal] _SHGetPathFromIDListW@8 
[import] 'Obj\registry_api.4F19C9C1.obj' ADVAPI32.dll. _RegCreateKeyExW@36 
[import] 'Obj\math.D326B71E.obj' VIP7Run.dll. ?exp@RunTime@VIP@@YANN@Z 
[import] 'Obj\fileSystem.03D2CA18.obj' ADVAPI32.dll. _IsTextUnicode@12 
[import] 'Obj\string8_api.7710D13D.obj' VIP7Run.dll. ?ErrorRangeSigned@RunTime@VIP@@YGXQBV?$rNumericTypeDescriptor@H@12@H@Z 
[import] 'Obj\time_api.06541A64.obj' KERNEL32.dll. _FileTimeToSystemTime@8 
[import] 'Obj\math.D326B71E.obj' VIP7Run.dll. ?arctan@RunTime@VIP@@YANN@Z 
[import] 'Obj\exception.0D818F93.obj' KERNEL32.dll. _FormatMessageW@28 
[import] 'Obj\math.D326B71E.obj' VIP7Run.dll. ?sqrt@RunTime@VIP@@YANN@Z 
[import] 'Obj\fileSystem.03D2CA18.obj' SHELL32.dll. [by ordinal] _SHFileOperationW@4 
[import] 'Obj\math.D326B71E.obj' VIP7Run.dll. ?ConvertRR@RunTime@VIP@@YGNPBV?$rNumericTypeDescriptor@N@12@0N@Z 
[import] 'Obj\fileSystem.03D2CA18.obj' KERNEL32.dll. _GetFullPathNameW@16 
[import] 'Obj\math.D326B71E.obj' VIP7Run.dll. ?abs_rr@RunTime@VIP@@YANN@Z 
[import] 'Obj\fileSystem.03D2CA18.obj' KERNEL32.dll. _GetFileAttributesExW@12 
[import] 'Obj\binary.5C1BA76F.obj' KERNEL32.dll. _lstrlenA@4 
[import] 'Obj\fileSystem.03D2CA18.obj' KERNEL32.dll. _SetFileAttributesW@8 
[import] 'Obj\binary.5C1BA76F.obj' KERNEL32.dll. _lstrlenW@4 
[import] 'Obj\string8.5F8F6B63.obj' KERNEL32.dll. _IsValidCodePage@4 
[import] 'Obj\registry_api.4F19C9C1.obj' ADVAPI32.dll. _RegSetValueExW@24 
[import] 'Obj\runTime_api.6CC3F910.obj' VIP7Kernel.dll. ?LocalCut2@Kernel@VIP@@YAXPAE@Z 
[import] 'Obj\fileSystem.03D2CA18.obj' ole32.dll. _CoTaskMemFree@4 
[import] 'Obj\fileSystem.03D2CA18.obj' KERNEL32.dll. _GetTempFileNameW@16 
[import] 'Obj\outputStreamSupport.F4FF31D0.obj' VIP7Run.dll. ?write2Stream@RunTime@VIP@@YGXQAVROutputStreamImpl@12@IIQBVrEllipsisArguments@12@@Z 
[import] 'Obj\fileSystem.03D2CA18.obj' VIP7Kernel.dll. ?VIP_ErrorExit7@Kernel@VIP@@YGXPBVtrapInfo_interface@12@@Z 
[import] 'Obj\registry_api.4F19C9C1.obj' ADVAPI32.dll. _RegQueryValueExW@24 
[import] 'Obj\binary.5C1BA76F.obj' VIP7Run.dll. ?setMemory8@RunTime@VIP@@YGXPAEE@Z 
[import] 'Obj\binary.5C1BA76F.obj' VIP7Run.dll. ?searchForChar@RunTime@VIP@@YGIPBGGI@Z 
[import] 'Obj\fileSystem.03D2CA18.obj' KERNEL32.dll. _FindFirstFileW@8 
[import] 'Obj\string.F4C46458.obj' VIP7Kernel.dll. ?MEM_alloc_listElementWCA@Kernel@VIP@@YGPBU?$__list_struct@E@@XZ 
[import] 'Obj\fileSystem.03D2CA18.obj' KERNEL32.dll. _DeleteFileW@4 
[import] 'Obj\math.D326B71E.obj' VIP7Run.dll. ?string2Term@RunTime@VIP@@YGPBXQBVrTypeLibrary@12@PBG@Z 
[import] 'Obj\fileSystem.03D2CA18.obj' KERNEL32.dll. _CopyFileW@12 
[import] 'Obj\outputStreamSupport.F4FF31D0.obj' VIP7Run.dll. ?format2Stream@RunTime@VIP@@YGXQAVROutputStreamImpl@12@QBGQBVrEllipsisArguments@12@@Z 
[import] 'Obj\math.D326B71E.obj' VIP7Run.dll. ?tryString2Term@RunTime@VIP@@YGPBXQBVrTypeLibrary@12@PBG@Z 
[import] 'Obj\runTime_api.6CC3F910.obj' KERNEL32.dll. _GetCurrentProcess@0 
[import] 'Obj\time_api.06541A64.obj' KERNEL32.dll. _GetTimeZoneInformation@4 
[import] 'Obj\runTime_api.6CC3F910.obj' KERNEL32.dll. _GetProcAddress@8 
[import] 'Obj\exception.0D818F93.obj' KERNEL32.dll. _VirtualQuery@12 
[import] 'Obj\fileSystem.03D2CA18.obj' USER32.dll. _SendMessageW@16 
[import] 'Obj\exe_api.92EB01D8.obj' KERNEL32.dll. _GetModuleFileNameW@12 
[import] 'Obj\outputStreamSupport.F4FF31D0.obj' VIP7Run.dll. ?saveDatabase@RunTime@VIP@@YGXQBVfactDbValue@12@QAVROutputStreamImpl@12@@Z 
[import] 'Obj\runTime_api.6CC3F910.obj' VIP7Kernel.dll. ?Stkb2@Kernel@VIP@@YAXXZ 
[import] 'Obj\string.F4C46458.obj' VIP7Run.dll. ?search@RunTime@VIP@@YG_NPBG0QAI@Z 
[import] 'Obj\programControl.9EE7D4CB.obj' VIP7Kernel.dll. ?SetPrologExceptionPredicate@Kernel@VIP@@YGXQBVRPrologExceptionPredicateStruct@12@PAPAV312@@Z 
[import] 'Obj\outputStreamSupport.F4FF31D0.obj' VIP7Run.dll. ?writeBytes2Stream@RunTime@VIP@@YGXQAVROutputStreamImpl@12@QBEI@Z 
[import] 'Obj\time_api.06541A64.obj' KERNEL32.dll. _GetDateFormatW@24 
[import] 'Obj\memory.75BC8824.obj' VIP7Kernel.dll. ?SetTrapTop@Kernel@VIP@@YGXPAVTBackTrackBlock@12@@Z 
[import] 'Obj\time_api.06541A64.obj' KERNEL32.dll. _GetLocaleInfoW@16 
[import] 'Obj\memory.75BC8824.obj' VIP7Kernel.dll. ?GetTrapTop@Kernel@VIP@@YGQAVTBackTrackBlock@12@XZ 
[import] 'Obj\exception.0D818F93.obj' VIP7Kernel.dll. ?VIP_ErrorExitCreate@Kernel@VIP@@YGPAVtrapInfo_interface@12@I@Z 
[import] 'Obj\inputStreamSupport.7E046C1B.obj' VIP7Run.dll. ?ParseChar@RunTime@VIP@@YGGQAVRInputStreamImpl@12@@Z 
[import] 'Obj\fileSystem.03D2CA18.obj' VIP7Run.dll. ?searchBackCh@RunTime@VIP@@YGIPBGG@Z 
[import] 'Obj\inputStreamSupport.7E046C1B.obj' VIP7Run.dll. ?ungetChar@RunTime@VIP@@YGXQAVRInputStreamImpl@12@@Z 
[import] 'Obj\systemInformation_api.671D1739.obj' KERNEL32.dll. _GetLastError@0 
[import] 'Obj\fileSystem_api.5262ADBC.obj' KERNEL32.dll. _RemoveDirectoryW@4 
[import] 'Obj\registry_api.4F19C9C1.obj' ADVAPI32.dll. _RegDeleteKeyW@8 
[import] 'Obj\exe.064FFF24.obj' VIP7Kernel.dll. ?GarbageCollector@Kernel@VIP@@YAXXZ 
[import] 'Obj\Shell_api.8B3C7C0A.obj' SHELL32.dll. [by ordinal] _ShellExecuteW@24 
[import] 'Obj\inputStreamSupport.7E046C1B.obj' VIP7Run.dll. ?ParseLine@RunTime@VIP@@YGPBGQAVRInputStreamImpl@12@@Z 
[import] 'Obj\fileSystem.03D2CA18.obj' VERSION.dll. _GetFileVersionInfoSizeW@8 
[import] 'Obj\exe.064FFF24.obj' ole32.dll. _OleInitialize@4 
[import] 'Obj\fileSystem.03D2CA18.obj' KERNEL32.dll. _PeekNamedPipe@24 
[import] 'Obj\inputStreamSupport.7E046C1B.obj' VIP7Run.dll. ?ParseFromStream@RunTime@VIP@@YGPBXQBVrTypeLibrary@12@QAVRInputStreamImpl@12@I@Z 
[import] 'Obj\fileSystem.03D2CA18.obj' VIP7Run.dll. ?ConvertIR@RunTime@VIP@@YGNPBV?$rNumericTypeDescriptor@H@12@PBV?$rNumericTypeDescriptor@N@12@H@Z 
[import] 'Obj\exe.064FFF24.obj' ole32.dll. _OleUninitialize@0 
[import] 'Obj\fileSystem.03D2CA18.obj' KERNEL32.dll. _GetFileType@4 
[import] 'Obj\inputStreamSupport.7E046C1B.obj' VIP7Run.dll. ?consultDatabase@RunTime@VIP@@YGXQBVfactDbValue@12@QAVRInputStreamImpl@12@@Z 
[import] 'Obj\multiThread_api.F2BE0D3B.obj' KERNEL32.dll. _CloseHandle@4 
[import] 'Obj\memory.75BC8824.obj' VIP7Run.dll. ?bitXor@RunTime@VIP@@YAIII@Z 
[import] 'Obj\fileSystem.03D2CA18.obj' VIP7Run.dll. ?subInteger64_prolog@RunTime@VIP@@YG_J_J0@Z 
[import] 'Obj\exe.064FFF24.obj' KERNEL32.dll. _GetCommandLineW@0 
[import] 'Obj\binary.5C1BA76F.obj' VIP7Run.dll. ?UniversalNumericConvert4_prolog@RunTime@VIP@@YGXPBVrNumericTypeDescriptor_common@12@0HPAX@Z 
[import] 'Obj\inputStreamSupport.7E046C1B.obj' VIP7Run.dll. ?ParseBytes@RunTime@VIP@@YGPBVTBinary@@QAVRInputStreamImpl@12@I@Z 
[import] 'Obj\console.FF8DBACA.obj' VIP7Run.dll. ?Error_SingleFactHasNoValue@RunTime@VIP@@YAXQBVrTypeLibrary@12@I@Z 
[import] 'Obj\string.F4C46458.obj' VIP7Run.dll. ?trimFront@RunTime@VIP@@YAPBGPBG@Z 
[import] 'Obj\fileSystem.03D2CA18.obj' KERNEL32.dll. _WriteFile@20 
[import] 'Obj\fileSystem_api.5262ADBC.obj' KERNEL32.dll. _CreateDirectoryW@8 
[import] 'Obj\string8_api.7710D13D.obj' KERNEL32.dll. _WideCharToMultiByte@32 
[import] 'Obj\inputStreamSupport.7E046C1B.obj' VIP7Run.dll. ?ParseString@RunTime@VIP@@YGPBGQAVRInputStreamImpl@12@I@Z 
[import] 'Obj\math.D326B71E.obj' VIP7Run.dll. ?mulUnsigned64_prolog@RunTime@VIP@@YG_K_K0@Z 
[import] 'Obj\runTime_api.6CC3F910.obj' KERNEL32.dll. _GetModuleHandleW@4 
[import] 'Obj\fileSystem.03D2CA18.obj' VIP7Run.dll. ?InitInputParser@RunTime@VIP@@YGPAVRInputStreamImpl@12@QAVRROBufferProvider@12@@Z 
[import] 'Obj\memory.75BC8824.obj' VIP7Run.dll. ?bitLeft@RunTime@VIP@@YAIII@Z 
[import] 'Obj\console.FF8DBACA.obj' KERNEL32.dll. _ReadConsoleW@20 
[import] 'Obj\memory.75BC8824.obj' VIP7Run.dll. ?bitRight@RunTime@VIP@@YAIII@Z 
[import] 'Obj\fileSystem.03D2CA18.obj' KERNEL32.dll. _ReadFile@20 
[import] 'Obj\memory.75BC8824.obj' VIP7Run.dll. ?ConvertUU@RunTime@VIP@@YGIPBV?$rNumericTypeDescriptor@I@12@0I@Z 
[import] 'Obj\memory.75BC8824.obj' VIP7Run.dll. ?bitOr@RunTime@VIP@@YAIII@Z 
[import] 'Obj\list.372A041A.obj' VIP7Run.dll. ?CompareTerms_Prolog@RunTime@VIP@@YA?AW4compareResult@_builtIn_class@@XZ 
[import] 'Obj\multiThread_api.F2BE0D3B.obj' KERNEL32.dll. _ResetEvent@4 
[import] 'Obj\list.372A041A.obj' VIP7Kernel.dll. ?MEM_alloc_nil@Kernel@VIP@@YGPBEXZ 
[import] 'Obj\multiThread_api.F2BE0D3B.obj' KERNEL32.dll. _PulseEvent@4 
[import] 'Obj\mapMSupport.F2ECDBAC.obj' VIP7Run.dll. ?ConvertObject@RunTime@VIP@@YGQBVRObject@12@QBVRInterfaceDescriptor@12@QBV312@@Z 
[import] 'Obj\multiThread_api.F2BE0D3B.obj' KERNEL32.dll. _CreateMutexW@12 
[import] 'Obj\gui_api.C64EF22C.obj' USER32.dll. _GetScrollRange@16 
[import] 'Obj\multiThread_api.F2BE0D3B.obj' KERNEL32.dll. _OpenMutexW@12 
[import] 'Obj\gui_api.C64EF22C.obj' USER32.dll. _GetScrollInfo@12 
[import] 'Obj\multiThread_api.F2BE0D3B.obj' KERNEL32.dll. _ReleaseMutex@4 
[import] 'Obj\binary.5C1BA76F.obj' VIP7Run.dll. ?ConvertUI@RunTime@VIP@@YGHPBV?$rNumericTypeDescriptor@I@12@PBV?$rNumericTypeDescriptor@H@12@I@Z 
[import] 'Obj\multiThread_api.F2BE0D3B.obj' KERNEL32.dll. _CreateSemaphoreW@16 
[import] 'Obj\string.F4C46458.obj' VIP7Run.dll. ?create@RunTime@VIP@@YGPBGIPBG@Z 
[import] 'Obj\multiThread_api.F2BE0D3B.obj' KERNEL32.dll. _OpenSemaphoreW@12 
[import] 'Obj\gui_api.C64EF22C.obj' USER32.dll. _SetScrollInfo@16 
[import] 'Obj\multiThread_api.F2BE0D3B.obj' KERNEL32.dll. _ReleaseSemaphore@12 
[import] 'Obj\gui_api.C64EF22C.obj' USER32.dll. _ScrollWindowEx@32 
[import] 'Obj\multiThread_api.F2BE0D3B.obj' KERNEL32.dll. _CreateWaitableTimerW@12 
[import] 'Obj\gui_api.C64EF22C.obj' VIP7Run.dll. ?ConvertII@RunTime@VIP@@YGHPBV?$rNumericTypeDescriptor@H@12@0H@Z 
[import] 'Obj\multiThread_api.F2BE0D3B.obj' KERNEL32.dll. _OpenWaitableTimerW@12 
[import] 'Obj\systemInformation_api.671D1739.obj' VIP7Run.dll. ?setMemory32@RunTime@VIP@@YGXPAKK@Z 
[import] 'Obj\console.FF8DBACA.obj' KERNEL32.dll. _GetConsoleScreenBufferInfo@8 
[import] 'Obj\gui_api.C64EF22C.obj' USER32.dll. _GetWindowPlacement@8 
[import] 'Obj\multiThread_api.F2BE0D3B.obj' KERNEL32.dll. _SetWaitableTimer@24 
[import] 'Obj\memory.75BC8824.obj' VIP7Kernel.dll. ?AllocUncollectableHeap@Kernel@VIP@@YGPAEI@Z 
[import] 'Obj\multiThread_api.F2BE0D3B.obj' KERNEL32.dll. _CancelWaitableTimer@4 
[import] 'Obj\memory.75BC8824.obj' VIP7Kernel.dll. ?memProf_ContextClose@Kernel@VIP@@YGXI@Z 
[import] 'Obj\fileSystem.03D2CA18.obj' KERNEL32.dll. _CreateFileW@28 
[import] 'Obj\runTime_api.6CC3F910.obj' USER32.dll. _GetSystemMetrics@4 
[import] 'Obj\fileSystem_api.5262ADBC.obj' KERNEL32.dll. _SetFilePointerEx@20 
[import] 'Obj\memory.75BC8824.obj' VIP7Kernel.dll. ?AllocHeap@Kernel@VIP@@YGPAEI@Z 
[import] 'Obj\math.D326B71E.obj' VIP7Run.dll. ?roundToUnsigned64@RunTime@VIP@@YG_KN@Z 
[import] 'Obj\fileSystem_api.5262ADBC.obj' KERNEL32.dll. _MoveFileW@8 
[import] 'Obj\math.D326B71E.obj' VIP7Run.dll. ?roundToInteger64@RunTime@VIP@@YG_JN@Z 
[import] 'Obj\memory.75BC8824.obj' VIP7Kernel.dll. ?memProf_ContextOpen@Kernel@VIP@@YGIII@Z 
[import] 'Obj\math.D326B71E.obj' VIP7Run.dll. ?roundToInteger@RunTime@VIP@@YGHN@Z 
[import] 'Obj\fileSystem_api.5262ADBC.obj' VIP7Kernel.dll. ?OSMoveMemory@Kernel@VIP@@YAXPAXPBXI@Z 
[import] 'Obj\binary.5C1BA76F.obj' VIP7Kernel.dll. ?AllocAtomicHeapWithContext@Kernel@VIP@@YGQAEIII@Z 
[import] 'Obj\memory.75BC8824.obj' KERNEL32.dll. _IsBadWritePtr@8 
[import] 'Obj\fileSystem.03D2CA18.obj' KERNEL32.dll. _GetDriveTypeW@4 
[import] 'Obj\gui_api.C64EF22C.obj' USER32.dll. _SetWindowPlacement@8 
[import] 'Obj\fileSystem.03D2CA18.obj' KERNEL32.dll. _SearchPathW@24 
[import] 'Obj\string.F4C46458.obj' KERNEL32.dll. _GetUserDefaultLCID@0 
[import] 'Obj\namedValue.0E580094.obj' VIP7Kernel.dll. ?MEM_alloc_listElementWithContext@Kernel@VIP@@YGPBU?$__list_struct@E@@XZ 
[import] 'Obj\string.F4C46458.obj' KERNEL32.dll. _CompareStringW@24 
[import] 'Obj\fileSystem.03D2CA18.obj' KERNEL32.dll. _GetWindowsDirectoryW@8 
[import] 'Obj\fileSystem_api.5262ADBC.obj' KERNEL32.dll. _SetVolumeLabelW@8 
[import] 'Obj\systemInformation_api.671D1739.obj' VIP7Run.dll. ?create@RunTime@VIP@@YAPBGI@Z 
[import] 'Obj\memory.75BC8824.obj' KERNEL32.dll. _IsBadReadPtr@8 
[import] 'Obj\time_api.06541A64.obj' KERNEL32.dll. _SystemTimeToFileTime@8 
[import] 'Obj\gui_api.C64EF22C.obj' GDI32.dll. _GetTextMetricsW@8 
[import] 'Obj\binary.5C1BA76F.obj' VIP7Kernel.dll. ?OSCopyMemory@Kernel@VIP@@YAXPAXPBXI@Z 
[import] 'Obj\gui_api.C64EF22C.obj' USER32.dll. _GetDC@4 
[import] 'Obj\runTime_api.6CC3F910.obj' VIP7Kernel.dll. ?StkTrap@Kernel@VIP@@YAXXZ 
[import] 'Obj\fileSystem_api.5262ADBC.obj' KERNEL32.dll. _GetDiskFreeSpaceExW@16 
[import] 'Obj\binary.5C1BA76F.obj' VIP7Run.dll. ?UniversalNumericConvert8_prolog@RunTime@VIP@@YGXPBVrNumericTypeDescriptor_common@12@0_JPAX@Z 
[import] 'Obj\gui_api.C64EF22C.obj' USER32.dll. _ReleaseDC@8 
[import] 'Obj\fileSystem.03D2CA18.obj' KERNEL32.dll. _FindNextFileW@8 
[import] 'Obj\fileSystem_api.5262ADBC.obj' KERNEL32.dll. _GetCurrentDirectoryW@8 
[import] 'Obj\fileSystem.03D2CA18.obj' KERNEL32.dll. _MoveFileExW@12 
[import] 'Obj\memory.75BC8824.obj' VIP7Kernel.dll. ?UnRegisterWeakPointer@Kernel@VIP@@YGXPAPAX@Z 
[import] 'Obj\binary.5C1BA76F.obj' VIP7Run.dll. ?binarySearch@RunTime@VIP@@YAIPBEI0I@Z 
[import] 'Obj\list.372A041A.obj' VIP7Kernel.dll. ?AllocHeapWithContext@Kernel@VIP@@YGQAEIII@Z 
[import] 'Obj\time_api.06541A64.obj' KERNEL32.dll. _SystemTimeToTzSpecificLocalTime@12 
[import] 'Obj\fileSystem_api.5262ADBC.obj' KERNEL32.dll. _SetCurrentDirectoryW@4 
[import] 'Obj\programControl.9EE7D4CB.obj' VIP7Kernel.dll. ?Run_Succeed@Kernel@VIP@@YGXXZ 
[import] 'Obj\gui_api.C64EF22C.obj' USER32.dll. _RegisterClassExW@4 
[import] 'Obj\time_api.06541A64.obj' KERNEL32.dll. _GetTimeFormatW@24 
[import] 'Obj\memory.75BC8824.obj' VIP7Kernel.dll. ?RegisterWeakPointer@Kernel@VIP@@YGXPAPAXPAX@Z 
[import] 'Obj\exception.0D818F93.obj' KERNEL32.dll. _GetCurrentThreadId@0 
[import] 'Obj\memory.75BC8824.obj' VIP7Run.dll. ?Comparison_U64@RunTime@VIP@@YG?AW4compareResult@_builtIn_class@@_K0@Z 
[import] 'Obj\Shell_api.8B3C7C0A.obj' SHELL32.dll. [by ordinal] _ShellExecuteExW@4 
[import] 'Obj\fileSystem.03D2CA18.obj' KERNEL32.dll. _GetLongPathNameW@12 
[import] 'Obj\fileSystem.03D2CA18.obj' VERSION.dll. _GetFileVersionInfoW@16 
[import] 'Obj\gui_api.C64EF22C.obj' USER32.dll. _BeginPaint@8 
[import] 'Obj\runTime_api.6CC3F910.obj' VIP7Run.dll. ?toString@RunTime@VIP@@YGPBGQBVrTypeLibrary@12@PBX@Z 
[import] 'Obj\gui_api.C64EF22C.obj' USER32.dll. _EndPaint@8 
[import] 'Obj\fileSystem.03D2CA18.obj' KERNEL32.dll. _FlushFileBuffers@4 
[import] 'Obj\exceptionDump.9F4FF40B.obj' KERNEL32.dll. _GetTempPathW@8 
[import] 'Obj\binary.5C1BA76F.obj' VIP7Run.dll. ?addInteger64_prolog@RunTime@VIP@@YG_J_J0@Z 
[import] 'Obj\gui_api.C64EF22C.obj' USER32.dll. _GetClientRect@8 
[import] 'Obj\console.FF8DBACA.obj' KERNEL32.dll. _WriteConsoleW@20 
[import] 'Obj\fileSystem.03D2CA18.obj' KERNEL32.dll. _FindClose@4 
[import] 'Obj\binary.5C1BA76F.obj' VIP7Run.dll. ?Comparison_I64@RunTime@VIP@@YG?AW4compareResult@_builtIn_class@@_J0@Z 
[import] 'Obj\gui_api.C64EF22C.obj' USER32.dll. _SetLastErrorEx@8 
[import] 'Obj\console.FF8DBACA.obj' VIP7Run.dll. ?Error_DetermFactIsAlreadyAsserted@RunTime@VIP@@YAXQBVrTypeLibrary@12@I@Z 
[import] 'Obj\gui_api.C64EF22C.obj' USER32.dll. _SetWindowLongW@12 
[import] 'Obj\multiThread_api.F2BE0D3B.obj' KERNEL32.dll. _SetEvent@4 
[import] 'Obj\gui_api.C64EF22C.obj' GDI32.dll. _ExtTextOutW@32 
[import] 'Obj\console.FF8DBACA.obj' KERNEL32.dll. _SetConsoleMode@8 
[import] 'Obj\gui_api.C64EF22C.obj' USER32.dll. _InvalidateRect@12 
[import] 'Obj\console.FF8DBACA.obj' KERNEL32.dll. _FlushConsoleInputBuffer@4 
[import] 'Obj\gui_api.C64EF22C.obj' USER32.dll. _CreateWindowExW@48 
[import] 'Obj\console.FF8DBACA.obj' KERNEL32.dll. _FillConsoleOutputCharacterW@20 
[import] 'Obj\string.F4C46458.obj' VIP7Run.dll. ?tryCheckPosition@RunTime@VIP@@YGXIPBG@Z 
[import] 'Obj\console.FF8DBACA.obj' KERNEL32.dll. _FreeConsole@0 
[import] 'Obj\systemInformation_api.671D1739.obj' USER32.dll. _SystemParametersInfoW@16 
[import] 'Obj\console.FF8DBACA.obj' KERNEL32.dll. _SetConsoleTitleW@4 
[import] 'Obj\exe_api.92EB01D8.obj' ole32.dll. _CoInitializeEx@8 
[import] 'Obj\math.D326B71E.obj' VIP7Run.dll. ?trunc@RunTime@VIP@@YANN@Z 
[import] 'Obj\binary.5C1BA76F.obj' VIP7Run.dll. ?InitInputParser@RunTime@VIP@@YGPAVRInputStreamImpl@12@QAVRROBufferProvider@12@QAEI@Z 
[import] 'Obj\console.FF8DBACA.obj' KERNEL32.dll. _SetConsoleTextAttribute@8 
[import] 'Obj\string.F4C46458.obj' VIP7Run.dll. ?frontToken@RunTime@VIP@@YG_NPBGAAPAG1@Z 
[import] 'Obj\fileSystem_api.5262ADBC.obj' KERNEL32.dll. _GetVolumeInformationW@32 
[import] 'Obj\string.F4C46458.obj' KERNEL32.dll. _IsBadStringPtrW@8 
[import] 'Obj\math.D326B71E.obj' VIP7Run.dll. ?roundToUnsigned@RunTime@VIP@@YGIN@Z 
[import] 'Obj\systemInformation_api.671D1739.obj' KERNEL32.dll. _GetComputerNameExW@12 
[import] 'Obj\registry_api.4F19C9C1.obj' ADVAPI32.dll. _RegCloseKey@4 
[import] 'Obj\string.F4C46458.obj' VIP7Run.dll. ?replace@RunTime@VIP@@YGPBGPBG00H_N@Z 
[import] 'Obj\fileSystem.03D2CA18.obj' VIP7Kernel.dll. ?ReleaseHeap@Kernel@VIP@@YGXPAE@Z 
[import] 'Obj\string.F4C46458.obj' VIP7Run.dll. ?replace@RunTime@VIP@@YGPBGPBG00H_NAAI@Z 
[import] 'Obj\time_api.06541A64.obj' KERNEL32.dll. _GetSystemTimeAsFileTime@4 
[import] 'Obj\systemInformation_api.671D1739.obj' KERNEL32.dll. _GetComputerNameW@8 
[import] 'Obj\fileSystem.03D2CA18.obj' KERNEL32.dll. _SetFileTime@16 
[import] 'Obj\exe_api.92EB01D8.obj' ole32.dll. _CoUninitialize@0 
[import] 'Obj\fileSystem.03D2CA18.obj' KERNEL32.dll. _GetShortPathNameW@12 
[import] 'Obj\binary.5C1BA76F.obj' VIP7Kernel.dll. ?Stkb3@Kernel@VIP@@YAXXZ 
[import] 'Obj\fileSystem.03D2CA18.obj' KERNEL32.dll. _GetFileAttributesW@4 
[import] 'Obj\systemInformation_api.671D1739.obj' Secur32.dll. _GetUserNameExW@12 
[import] 'Obj\exceptionDump.9F4FF40B.obj' VIP7Run.dll. ?FirstBranchConvertObject@RunTime@VIP@@YGQBVRObject@12@QBVRInterfaceDescriptor@12@QBV312@@Z 
[import] 'Obj\binary.5C1BA76F.obj' VIP7Run.dll. ?FinishRetractWCTS@RunTime@VIP@@YGXPAVrFactItem@12@PAPAV312@@Z 
[import] 'Obj\systemInformation_api.671D1739.obj' VIP7Kernel.dll. ?Run_Fail@Kernel@VIP@@YAXXZ 
[import] 'Obj\binary.5C1BA76F.obj' VIP7Run.dll. ?AssertZNonDetermFactWCTS@RunTime@VIP@@YGXITRTerm@12@PAVrFactList@12@II@Z 
[import] 'Obj\string.F4C46458.obj' VIP7Run.dll. ?write2String@RunTime@VIP@@YGQBGIIQBVrEllipsisArguments@12@@Z 
[import] 'Obj\systemInformation_api.671D1739.obj' ADVAPI32.dll. _GetUserNameW@8 
[import] 'Obj\fileSystem.03D2CA18.obj' VERSION.dll. _VerQueryValueW@16 
[import] 'Obj\systemInformation_api.671D1739.obj' KERNEL32.dll. _GetSystemInfo@4 
[import] 'Obj\fileSystem.03D2CA18.obj' VIP7Run.dll. ?int64rem_prolog@RunTime@VIP@@YG_J_J0@Z 
[import] 'Obj\string.F4C46458.obj' VIP7Run.dll. ?searchBack@RunTime@VIP@@YG_NPBG0QAI@Z 
[import] 'Obj\string8_api.7710D13D.obj' KERNEL32.dll. _MultiByteToWideChar@24 
[import] 'Obj\systemInformation_api.671D1739.obj' KERNEL32.dll. _GetVersionExW@4 
[import] 'Obj\multiThread_api.F2BE0D3B.obj' KERNEL32.dll. _OpenEventW@12 
[import] 'Obj\string.F4C46458.obj' USER32.dll. _IsCharLowerW@4 
[import] 'Obj\fileSystem.03D2CA18.obj' VIP7Run.dll. ?bitNot@RunTime@VIP@@YAII@Z 
[import] 'Obj\string.F4C46458.obj' VIP7Run.dll. ?isAlpha@RunTime@VIP@@YG_NPBG@Z 
[import] 'Obj\console.FF8DBACA.obj' KERNEL32.dll. _SetConsoleCursorPosition@8 
[import] 'Obj\string.F4C46458.obj' VIP7Run.dll. ?trimLast@RunTime@VIP@@YAPBGPBG@Z 
[import] 'Obj\console.FF8DBACA.obj' KERNEL32.dll. _GetConsoleMode@8 
[import] 'Obj\string.F4C46458.obj' USER32.dll. _CharUpperW@4 
[import] 'Obj\list.372A041A.obj' VIP7Kernel.dll. ?Succeed_Prolog@Kernel@VIP@@YAXXZ 
[import] 'Obj\string.F4C46458.obj' USER32.dll. _CharLowerW@4 
[import] 'Obj\math.D326B71E.obj' VIP7Run.dll. ?round@RunTime@VIP@@YANN@Z 
[import] '.\releasepe\VIPMain.obj' KERNEL32.dll. __imp__ExitProcess@4 
[import] 'Obj\namedValue.0E580094.obj' VIP7Kernel.dll. ?AllocHeapWCTS@Kernel@VIP@@YGQAEIIII@Z 
[import] '.\releasepe\VIPMain.obj' VIP7Kernel.dll. __imp_?ExeTermination@Kernel@VIP@@YAXH@Z 
[import] 'Obj\string8.5F8F6B63.obj' KERNEL32.dll. _IsBadStringPtrA@8 
[import] '.\releasepe\VIPDll.obj' VIP7Kernel.dll. __imp_?KernelUnitTermination@Kernel@VIP@@YAXPAX@Z 
[import] 'Obj\list.372A041A.obj' VIP7Run.dll. ?AllocListElementByType@RunTime@VIP@@YGPBU?$__list_struct@E@@QBVrTypeLibrary@12@@Z 
[import] '.\releasepe\VIPDll.obj' VIP7Run.dll. __imp_?RunUnitTermination@RunTime@VIP@@YGXPAX@Z 
[import] 'Obj\string.F4C46458.obj' VIP7Run.dll. ?ConvertIU@RunTime@VIP@@YGIPBV?$rNumericTypeDescriptor@H@12@PBV?$rNumericTypeDescriptor@I@12@H@Z 
[import] '.\releasepe\VIPDll.obj' VIP7Kernel.dll. __imp_?RunGoal@Kernel@VIP@@YGIQ6AIXZ@Z 
[import] 'Obj\fileSystem.03D2CA18.obj' VIP7Run.dll. ?ConvertUR@RunTime@VIP@@YGNPBV?$rNumericTypeDescriptor@I@12@PBV?$rNumericTypeDescriptor@N@12@I@Z 
[import] '.\releasepe\VIPMain.obj' VIP7Kernel.dll. __imp_?ExeInitialization@Kernel@VIP@@YAHXZ 
[import] 'Obj\multiThread_api.F2BE0D3B.obj' KERNEL32.dll. _CreateEventW@16 
[import] '.\releasepe\VIPDll.obj' VIP7Run.dll. __imp_?InitializationDictionaries@RunTime@VIP@@YGHPBVdicofdic@12@@Z 
[import] 'Obj\math.D326B71E.obj' VIP7Run.dll. ?mulInteger64_prolog@RunTime@VIP@@YG_J_J0@Z 
[import] '.\releasepe\VIPDll.obj' VIP7Run.dll. __imp_?RunUnitInitialization@RunTime@VIP@@YGHPAX@Z 
[import] 'Obj\time_api.06541A64.obj' VIP7Run.dll. ?LoadProcAddress@RunTime@VIP@@YGP6GHXZQBGQBDPAP6GHXZ@Z 
[import] '.\releasepe\VIPMain.obj' VIP7Kernel.dll. __imp_?KernelUnitInitialization@Kernel@VIP@@YGHPAX@Z 
[import] 'Obj\fileSystem.03D2CA18.obj' SHELL32.dll. [by ordinal] _SHCreateDirectory@8 
[import] 'Obj\console_api.0DF09B51.obj' KERNEL32.dll. _SetConsoleCtrlHandler@8 
[import] 'Obj\time_api.06541A64.obj' KERNEL32.dll. _LocalFileTimeToFileTime@8 
[import] 'Obj\string.F4C46458.obj' VIP7Run.dll. ?searchch@RunTime@VIP@@YG_NPBGGQAI@Z 
[import] 'Obj\string.F4C46458.obj' VIP7Run.dll. ?format2String@RunTime@VIP@@YGQBGQBGQBVrEllipsisArguments@12@@Z 
[import] 'Obj\string.F4C46458.obj' USER32.dll. _IsCharAlphaW@4 
[import] 'Obj\runTime_api.6CC3F910.obj' VIP7Run.dll. ?bitAnd@RunTime@VIP@@YAIII@Z 
[import] 'Obj\string.F4C46458.obj' USER32.dll. _IsCharUpperW@4 
[import] 'Obj\exception.0D818F93.obj' VIP7Kernel.dll. ?GetLineFromAddrProlog@Kernel@VIP@@YGXPBXPAIPAPBG@Z 
[import] 'Obj\binary.5C1BA76F.obj' VIP7Run.dll. ?InitWrite@RunTime@VIP@@YGPAVROutputStreamImpl@12@QAVRBufferProvider@12@@Z 
[import] 'Obj\console.FF8DBACA.obj' KERNEL32.dll. _GetConsoleTitleW@8 
[import] 'Obj\binary.5C1BA76F.obj' VIP7Kernel.dll. ?OSZeroMemory@Kernel@VIP@@YAXPAXI@Z 
[import] '.\releasepe\VIPDll.obj' VIP7Kernel.dll. __imp_?KernelUnitInitialization2@Kernel@VIP@@YGHPAX_N@Z 
[import] '.\releasepe\VIPPE.obj' USER32.dll. __imp__MessageBoxA@16 
[import] 'Obj\registry_api.4F19C9C1.obj' ADVAPI32.dll. _RegDeleteValueW@8 
[import] 'Obj\console_api.0DF09B51.obj' KERNEL32.dll. _GetStdHandle@4 
--- Total Names =  3808 --------
--- Total Cnt   =  3808 --------
--------------------------------

