 VIP Linker 7.5.
  Module 'C:\Users\THANHNAM\Documents\Visual Prolog Projects\Lab4Projects\z1\Exe\z1.exe' Map. Sat Nov 19 12:23:38 2016

Frame 001000   Size 0421F0.  Name=<   .text>, 	Chars=60000020h. [CER]
Frame 044000   Size 000320.  Name=<  PRODBG>, 	Chars=40000040h. [IR]
Frame 045000   Size 02F2D0.  Name=<  .rdata>, 	Chars=40000040h. [IR]
Frame 075000   Size 0004B0.  Name=<  VIPini>, 	Chars=40000040h. [IR]
Frame 076000   Size 000010.  Name=<  VIPsym>, 	Chars=40000040h. [IR]
Frame 077000   Size 000C00.  Name=<  VIPtpd>, 	Chars=40000040h. [IR]
Frame 078000   Size 000BF0.  Name=<  VIPtpl>, 	Chars=40000040h. [IR]
Frame 079000   Size 000170.  Name=<   .data>, 	Chars=C0000040h. [IRW]
Frame 07A000   Size 000030.  Name=< .gcroot>, 	Chars=C0000040h. [IRW]

	--- S e g m e n t s : ---

Frame 001000   Size 0421F0.  Name=<   .text>, 	Chars=60000020h. [CER]
001000:000000 042010   .text::CODE::<no group> F=4
   001000   Module 'Obj\main.A22FE9BF.obj'
   001550   Module 'Obj\inputstreamsupport.7C36EDAA.obj'
   001920   Module 'Obj\outputstreamsupport.024B29AC.obj'
   001E30   Module 'Obj\stream.99784C5B.obj'
   002CF0   Module 'Obj\string.B0A67F43.obj'
   008970   Module 'Obj\string8.302F7782.obj'
   0092A0   Module 'Obj\vpidomains.CE78C30C.obj'
   009360   Module 'Obj\console_api.885E7959.obj'
   0094E0   Module 'Obj\exe_api.A0303A40.obj'
   009A70   Module 'Obj\filesystem_api.1C9354BA.obj'
   00C180   Module 'Obj\gui_api.5B4BA4CC.obj'
   00FD30   Module 'Obj\locale_api.25A9E29D.obj'
   00FFC0   Module 'Obj\memory_api.072B3D5C.obj'
   010730   Module 'Obj\multithread_api.6DC4E6F9.obj'
   011740   Module 'Obj\registry_api.0E78C5E3.obj'
   012A60   Module 'Obj\runtime_api.0E79B0CD.obj'
   013650   Module 'Obj\shell_api.D9156D40.obj'
   013A20   Module 'Obj\string8_api.41F368A6.obj'
   013BD0   Module 'Obj\systeminformation_api.2DB6162F.obj'
   014180   Module 'Obj\time_api.21FCC41B.obj'
   015580   Module 'Obj\windowsapi.901E9509.obj'
   015830   Module 'Obj\exe.3A8A8F5C.obj'
   015B40   Module 'Obj\binary.9C7C16C6.obj'
   01AAC0   Module 'Obj\boolean.CB308F06.obj'
   01ABF0   Module 'Obj\redblackset.314226AB.obj'
   01CDB0   Module 'Obj\mapm_redblack.D48B3F53.obj'
   01D4E0   Module 'Obj\setm_redblack.F3ED8D4F.obj'
   01DA40   Module 'Obj\collectionmsupport.662A7565.obj'
   01DD40   Module 'Obj\mapmsupport.59EA0039.obj'
   01E450   Module 'Obj\console.043C10C8.obj'
   020A10   Module 'Obj\core.4BC2D97D.obj'
   020DF0   Module 'Obj\exception.544F7452.obj'
   023070   Module 'Obj\exceptiondump.174B23B9.obj'
   024680   Module 'Obj\filesystem.57D9C483.obj'
   02CAA0   Module 'Obj\list.1520BD2B.obj'
   033660   Module 'Obj\math.724D21D5.obj'
   034CF0   Module 'Obj\memory.9BD3BF38.obj'
   036E40   Module 'Obj\namedvalue.187E0B91.obj'
   038290   Module 'Obj\programcontrol.5D08C78A.obj'
   0382D0   Module 'Obj\registry.88C8A89A.obj'
   039180   Module 'Obj\std.1C7A9F9B.obj'
   039B70   Module 'Obj\redblacktree.C0378524.obj'
   03C690   Module 'Obj\collectionsupport.6DAD372D.obj'
   03C830   Module 'Obj\arraym_inline.5CB777DB.obj'
   03DB70   Module 'Obj\event.35BDD536.obj'
   041440   Module 'Obj\reflection.0F000252.obj'
   0418E0   Module 'Obj\varm.17B5C45B.obj'
001000:042010 0001E0   .text$mn::CODE::<no group> F=4
   043010   Module '..\..\..\_intermediate\sourceVS\vipInit\Win32\ReleasePE\VIPMain.obj'
   043080   Module '..\..\..\_intermediate\sourceVS\vipInit\Win32\ReleasePE\VIPDll.obj'
   0431D0   Module '..\..\..\_intermediate\sourceVS\vipInit\Win32\ReleasePE\VIPPE.obj'

Frame 044000   Size 000320.  Name=<  PRODBG>, 	Chars=40000040h. [IR]
044000:000000 000320   PRODBG::PRODBG::PRODBG F=4
   044000   Module 'Obj\main.A22FE9BF.obj'
   044010   Module 'Obj\inputstreamsupport.7C36EDAA.obj'
   044020   Module 'Obj\outputstreamsupport.024B29AC.obj'
   044030   Module 'Obj\stream.99784C5B.obj'
   044040   Module 'Obj\string.B0A67F43.obj'
   044050   Module 'Obj\string8.302F7782.obj'
   044060   Module 'Obj\vpidomains.CE78C30C.obj'
   044070   Module 'Obj\console_api.885E7959.obj'
   044080   Module 'Obj\exe_api.A0303A40.obj'
   044090   Module 'Obj\filesystem_api.1C9354BA.obj'
   0440A0   Module 'Obj\gui_api.5B4BA4CC.obj'
   0440B0   Module 'Obj\locale_api.25A9E29D.obj'
   0440C0   Module 'Obj\memory_api.072B3D5C.obj'
   0440D0   Module 'Obj\multithread_api.6DC4E6F9.obj'
   0440E0   Module 'Obj\registry_api.0E78C5E3.obj'
   0440F0   Module 'Obj\runtime_api.0E79B0CD.obj'
   044100   Module 'Obj\shell_api.D9156D40.obj'
   044110   Module 'Obj\string_api.5221196E.obj'
   044120   Module 'Obj\string8_api.41F368A6.obj'
   044130   Module 'Obj\systeminformation_api.2DB6162F.obj'
   044140   Module 'Obj\time_api.21FCC41B.obj'
   044150   Module 'Obj\windowsapi.901E9509.obj'
   044160   Module 'Obj\exe.3A8A8F5C.obj'
   044170   Module 'Obj\binary.9C7C16C6.obj'
   044180   Module 'Obj\boolean.CB308F06.obj'
   044190   Module 'Obj\redblackset.314226AB.obj'
   0441A0   Module 'Obj\collection.EC6BE869.obj'
   0441B0   Module 'Obj\mapm_redblack.D48B3F53.obj'
   0441C0   Module 'Obj\setm_redblack.F3ED8D4F.obj'
   0441D0   Module 'Obj\collectionmsupport.662A7565.obj'
   0441E0   Module 'Obj\mapmsupport.59EA0039.obj'
   0441F0   Module 'Obj\console.043C10C8.obj'
   044200   Module 'Obj\core.4BC2D97D.obj'
   044210   Module 'Obj\exception.544F7452.obj'
   044220   Module 'Obj\exceptiondump.174B23B9.obj'
   044230   Module 'Obj\filesystem.57D9C483.obj'
   044240   Module 'Obj\list.1520BD2B.obj'
   044250   Module 'Obj\math.724D21D5.obj'
   044260   Module 'Obj\memory.9BD3BF38.obj'
   044270   Module 'Obj\namedvalue.187E0B91.obj'
   044280   Module 'Obj\programcontrol.5D08C78A.obj'
   044290   Module 'Obj\registry.88C8A89A.obj'
   0442A0   Module 'Obj\std.1C7A9F9B.obj'
   0442B0   Module 'Obj\redblacktree.C0378524.obj'
   0442C0   Module 'Obj\collectionsupport.6DAD372D.obj'
   0442D0   Module 'Obj\arraym_inline.5CB777DB.obj'
   0442E0   Module 'Obj\event.35BDD536.obj'
   0442F0   Module 'Obj\reflection.0F000252.obj'
   044300   Module 'Obj\typelibrary.C0325122.obj'
   044310   Module 'Obj\varm.17B5C45B.obj'

Frame 045000   Size 02F2D0.  Name=<  .rdata>, 	Chars=40000040h. [IR]
045000:000000 00AF00   .rdata::.rdata::.rdata F=4
   045000   Module 'Obj\main.A22FE9BF.obj'
   045120   Module 'Obj\inputstreamsupport.7C36EDAA.obj'
   045370   Module 'Obj\outputstreamsupport.024B29AC.obj'
   0455F0   Module 'Obj\stream.99784C5B.obj'
   045B50   Module 'Obj\string.B0A67F43.obj'
   0464C0   Module 'Obj\string8.302F7782.obj'
   046550   Module 'Obj\vpidomains.CE78C30C.obj'
   0465F0   Module 'Obj\console_api.885E7959.obj'
   046870   Module 'Obj\exe_api.A0303A40.obj'
   046AA0   Module 'Obj\filesystem_api.1C9354BA.obj'
   0476D0   Module 'Obj\gui_api.5B4BA4CC.obj'
   048BA0   Module 'Obj\locale_api.25A9E29D.obj'
   048C50   Module 'Obj\memory_api.072B3D5C.obj'
   048F60   Module 'Obj\multithread_api.6DC4E6F9.obj'
   049720   Module 'Obj\registry_api.0E78C5E3.obj'
   049B50   Module 'Obj\runtime_api.0E79B0CD.obj'
   04A420   Module 'Obj\shell_api.D9156D40.obj'
   04AC30   Module 'Obj\string_api.5221196E.obj'
   04ACE0   Module 'Obj\string8_api.41F368A6.obj'
   04AF00   Module 'Obj\systeminformation_api.2DB6162F.obj'
   04B200   Module 'Obj\time_api.21FCC41B.obj'
   04B730   Module 'Obj\windowsapi.901E9509.obj'
   04B7D0   Module 'Obj\exe.3A8A8F5C.obj'
   04B870   Module 'Obj\binary.9C7C16C6.obj'
   04BEF0   Module 'Obj\boolean.CB308F06.obj'
   04BF80   Module 'Obj\redblackset.314226AB.obj'
   04C170   Module 'Obj\collection.EC6BE869.obj'
   04C210   Module 'Obj\mapm_redblack.D48B3F53.obj'
   04C2D0   Module 'Obj\setm_redblack.F3ED8D4F.obj'
   04C390   Module 'Obj\collectionmsupport.662A7565.obj'
   04C470   Module 'Obj\mapmsupport.59EA0039.obj'
   04C610   Module 'Obj\console.043C10C8.obj'
   04CDC0   Module 'Obj\core.4BC2D97D.obj'
   04CEA0   Module 'Obj\exception.544F7452.obj'
   04D3A0   Module 'Obj\exceptiondump.174B23B9.obj'
   04D810   Module 'Obj\filesystem.57D9C483.obj'
   04E600   Module 'Obj\list.1520BD2B.obj'
   04EA10   Module 'Obj\math.724D21D5.obj'
   04EC50   Module 'Obj\memory.9BD3BF38.obj'
   04ECE0   Module 'Obj\namedvalue.187E0B91.obj'
   04F0C0   Module 'Obj\programcontrol.5D08C78A.obj'
   04F170   Module 'Obj\registry.88C8A89A.obj'
   04F400   Module 'Obj\std.1C7A9F9B.obj'
   04F480   Module 'Obj\redblacktree.C0378524.obj'
   04F630   Module 'Obj\collectionsupport.6DAD372D.obj'
   04F700   Module 'Obj\arraym_inline.5CB777DB.obj'
   04F950   Module 'Obj\event.35BDD536.obj'
   04F9E0   Module 'Obj\reflection.0F000252.obj'
   04FC90   Module 'Obj\typelibrary.C0325122.obj'
   04FD40   Module 'Obj\varm.17B5C45B.obj'
   04FE50   Module '..\..\..\_intermediate\sourceVS\vipInit\Win32\ReleasePE\VIPPE.obj'
045000:00AF00 01A970   VIPClass::VIPClass::.rdata F=4
   04FF00   Module 'Obj\main.A22FE9BF.obj'
   050530   Module 'Obj\inputstreamsupport.7C36EDAA.obj'
   050770   Module 'Obj\outputstreamsupport.024B29AC.obj'
   050A30   Module 'Obj\stream.99784C5B.obj'
   0510B0   Module 'Obj\string.B0A67F43.obj'
   052290   Module 'Obj\string8.302F7782.obj'
   052300   Module 'Obj\vpidomains.CE78C30C.obj'
   0538F0   Module 'Obj\console_api.885E7959.obj'
   053D10   Module 'Obj\exe_api.A0303A40.obj'
   053F70   Module 'Obj\filesystem_api.1C9354BA.obj'
   055200   Module 'Obj\gui_api.5B4BA4CC.obj'
   057100   Module 'Obj\locale_api.25A9E29D.obj'
   057300   Module 'Obj\memory_api.072B3D5C.obj'
   057530   Module 'Obj\multithread_api.6DC4E6F9.obj'
   057B00   Module 'Obj\registry_api.0E78C5E3.obj'
   057CA0   Module 'Obj\runtime_api.0E79B0CD.obj'
   057DF0   Module 'Obj\shell_api.D9156D40.obj'
   058610   Module 'Obj\string_api.5221196E.obj'
   0586B0   Module 'Obj\string8_api.41F368A6.obj'
   0587E0   Module 'Obj\systeminformation_api.2DB6162F.obj'
   058DC0   Module 'Obj\time_api.21FCC41B.obj'
   0590F0   Module 'Obj\windowsapi.901E9509.obj'
   0592A0   Module 'Obj\exe.3A8A8F5C.obj'
   059390   Module 'Obj\binary.9C7C16C6.obj'
   059EB0   Module 'Obj\boolean.CB308F06.obj'
   059F20   Module 'Obj\redblackset.314226AB.obj'
   05A180   Module 'Obj\mapm_redblack.D48B3F53.obj'
   05A980   Module 'Obj\setm_redblack.F3ED8D4F.obj'
   05AE80   Module 'Obj\collectionmsupport.662A7565.obj'
   05B190   Module 'Obj\mapmsupport.59EA0039.obj'
   05B5F0   Module 'Obj\console.043C10C8.obj'
   05C3F0   Module 'Obj\core.4BC2D97D.obj'
   05D8E0   Module 'Obj\exception.544F7452.obj'
   05DFB0   Module 'Obj\exceptiondump.174B23B9.obj'
   05E050   Module 'Obj\filesystem.57D9C483.obj'
   05F940   Module 'Obj\list.1520BD2B.obj'
   060260   Module 'Obj\math.724D21D5.obj'
   0603F0   Module 'Obj\memory.9BD3BF38.obj'
   0610F0   Module 'Obj\namedvalue.187E0B91.obj'
   061170   Module 'Obj\programcontrol.5D08C78A.obj'
   061280   Module 'Obj\registry.88C8A89A.obj'
   061570   Module 'Obj\std.1C7A9F9B.obj'
   0615C0   Module 'Obj\redblacktree.C0378524.obj'
   0619E0   Module 'Obj\collectionsupport.6DAD372D.obj'
   061C30   Module 'Obj\arraym_inline.5CB777DB.obj'
   062D00   Module 'Obj\event.35BDD536.obj'
   068FE0   Module 'Obj\reflection.0F000252.obj'
   069900   Module 'Obj\varm.17B5C45B.obj'
045000:025870 0020E0   VIPTypeL::VIPTypeL::.rdata F=4
   06A870   Module 'Obj\main.A22FE9BF.obj'
   06AB50   Module 'Obj\inputstreamsupport.7C36EDAA.obj'
   06ABA0   Module 'Obj\outputstreamsupport.024B29AC.obj'
   06ABE0   Module 'Obj\stream.99784C5B.obj'
   06AC20   Module 'Obj\string.B0A67F43.obj'
   06ACE0   Module 'Obj\vpidomains.CE78C30C.obj'
   06AE60   Module 'Obj\console_api.885E7959.obj'
   06AED0   Module 'Obj\exe_api.A0303A40.obj'
   06AEF0   Module 'Obj\filesystem_api.1C9354BA.obj'
   06B010   Module 'Obj\gui_api.5B4BA4CC.obj'
   06B4A0   Module 'Obj\locale_api.25A9E29D.obj'
   06B4F0   Module 'Obj\memory_api.072B3D5C.obj'
   06B510   Module 'Obj\multithread_api.6DC4E6F9.obj'
   06B5C0   Module 'Obj\registry_api.0E78C5E3.obj'
   06B5D0   Module 'Obj\runtime_api.0E79B0CD.obj'
   06B5E0   Module 'Obj\shell_api.D9156D40.obj'
   06B6A0   Module 'Obj\systeminformation_api.2DB6162F.obj'
   06B700   Module 'Obj\time_api.21FCC41B.obj'
   06B740   Module 'Obj\windowsapi.901E9509.obj'
   06B770   Module 'Obj\exe.3A8A8F5C.obj'
   06B780   Module 'Obj\binary.9C7C16C6.obj'
   06B7A0   Module 'Obj\redblackset.314226AB.obj'
   06B7B0   Module 'Obj\mapm_redblack.D48B3F53.obj'
   06B7D0   Module 'Obj\setm_redblack.F3ED8D4F.obj'
   06B7F0   Module 'Obj\collectionmsupport.662A7565.obj'
   06B810   Module 'Obj\mapmsupport.59EA0039.obj'
   06B830   Module 'Obj\console.043C10C8.obj'
   06B880   Module 'Obj\core.4BC2D97D.obj'
   06BDF0   Module 'Obj\exception.544F7452.obj'
   06BEC0   Module 'Obj\exceptiondump.174B23B9.obj'
   06BEE0   Module 'Obj\filesystem.57D9C483.obj'
   06C000   Module 'Obj\list.1520BD2B.obj'
   06C0C0   Module 'Obj\math.724D21D5.obj'
   06C0F0   Module 'Obj\memory.9BD3BF38.obj'
   06C300   Module 'Obj\programcontrol.5D08C78A.obj'
   06C320   Module 'Obj\registry.88C8A89A.obj'
   06C340   Module 'Obj\redblacktree.C0378524.obj'
   06C370   Module 'Obj\collectionsupport.6DAD372D.obj'
   06C390   Module 'Obj\arraym_inline.5CB777DB.obj'
   06C410   Module 'Obj\event.35BDD536.obj'
   06C840   Module 'Obj\reflection.0F000252.obj'
   06C8B0   Module 'Obj\varm.17B5C45B.obj'
045000:027950 003410   VIPInter::VIPInter::.rdata F=4
   06C950   Module 'Obj\main.A22FE9BF.obj'
   06DBF0   Module 'Obj\inputstreamsupport.7C36EDAA.obj'
   06DF60   Module 'Obj\outputstreamsupport.024B29AC.obj'
   06E080   Module 'Obj\vpidomains.CE78C30C.obj'
   06E150   Module 'Obj\shell_api.D9156D40.obj'
   06EC20   Module 'Obj\core.4BC2D97D.obj'
   06ECE0   Module 'Obj\exception.544F7452.obj'
   06F260   Module 'Obj\collectionsupport.6DAD372D.obj'
   06F4F0   Module 'Obj\arraym_inline.5CB777DB.obj'
045000:02AD60 004570   VIPConst::VIPConst::.rdata F=4
   06FD60   Module 'Obj\stream.99784C5B.obj'
   070060   Module 'Obj\string.B0A67F43.obj'
   070260   Module 'Obj\filesystem_api.1C9354BA.obj'
   070410   Module 'Obj\time_api.21FCC41B.obj'
   070560   Module 'Obj\binary.9C7C16C6.obj'
   0707B0   Module 'Obj\exception.544F7452.obj'
   073B50   Module 'Obj\filesystem.57D9C483.obj'
   073D40   Module 'Obj\math.724D21D5.obj'
   0740A0   Module 'Obj\namedvalue.187E0B91.obj'
   074130   Module 'Obj\registry.88C8A89A.obj'

Frame 075000   Size 0004B0.  Name=<  VIPini>, 	Chars=40000040h. [IR]
075000:000000 000004   VIPini$A::VIPini$A::VIPini F=4
   075000   Module 'Obj\main.A22FE9BF.obj'
075000:000004 00028C   VIPini$C::VIPini$C::VIPini F=4
   075004   Module 'Obj\main.A22FE9BF.obj'
   075064   Module 'Obj\inputstreamsupport.7C36EDAA.obj'
   075078   Module 'Obj\outputstreamsupport.024B29AC.obj'
   075080   Module 'Obj\stream.99784C5B.obj'
   075094   Module 'Obj\string.B0A67F43.obj'
   0750A4   Module 'Obj\string8.302F7782.obj'
   0750A8   Module 'Obj\vpidomains.CE78C30C.obj'
   0750B4   Module 'Obj\console_api.885E7959.obj'
   0750BC   Module 'Obj\exe_api.A0303A40.obj'
   0750C4   Module 'Obj\filesystem_api.1C9354BA.obj'
   0750D0   Module 'Obj\gui_api.5B4BA4CC.obj'
   0750D8   Module 'Obj\locale_api.25A9E29D.obj'
   0750E0   Module 'Obj\memory_api.072B3D5C.obj'
   0750E8   Module 'Obj\multithread_api.6DC4E6F9.obj'
   0750F0   Module 'Obj\registry_api.0E78C5E3.obj'
   0750F8   Module 'Obj\runtime_api.0E79B0CD.obj'
   0750FC   Module 'Obj\shell_api.D9156D40.obj'
   075140   Module 'Obj\string_api.5221196E.obj'
   075144   Module 'Obj\string8_api.41F368A6.obj'
   07514C   Module 'Obj\systeminformation_api.2DB6162F.obj'
   075154   Module 'Obj\time_api.21FCC41B.obj'
   07515C   Module 'Obj\windowsapi.901E9509.obj'
   075160   Module 'Obj\exe.3A8A8F5C.obj'
   075164   Module 'Obj\binary.9C7C16C6.obj'
   075174   Module 'Obj\boolean.CB308F06.obj'
   075178   Module 'Obj\redblackset.314226AB.obj'
   07517C   Module 'Obj\collection.EC6BE869.obj'
   07517C   Module 'Obj\mapm_redblack.D48B3F53.obj'
   075180   Module 'Obj\setm_redblack.F3ED8D4F.obj'
   075184   Module 'Obj\collectionmsupport.662A7565.obj'
   075188   Module 'Obj\mapmsupport.59EA0039.obj'
   07518C   Module 'Obj\console.043C10C8.obj'
   075198   Module 'Obj\core.4BC2D97D.obj'
   0751A0   Module 'Obj\exception.544F7452.obj'
   0751C0   Module 'Obj\exceptiondump.174B23B9.obj'
   0751C4   Module 'Obj\filesystem.57D9C483.obj'
   0751E4   Module 'Obj\list.1520BD2B.obj'
   0751E8   Module 'Obj\math.724D21D5.obj'
   0751F0   Module 'Obj\memory.9BD3BF38.obj'
   075200   Module 'Obj\namedvalue.187E0B91.obj'
   075204   Module 'Obj\programcontrol.5D08C78A.obj'
   075208   Module 'Obj\registry.88C8A89A.obj'
   075210   Module 'Obj\std.1C7A9F9B.obj'
   075214   Module 'Obj\redblacktree.C0378524.obj'
   075218   Module 'Obj\collectionsupport.6DAD372D.obj'
   075224   Module 'Obj\arraym_inline.5CB777DB.obj'
   075250   Module 'Obj\event.35BDD536.obj'
   075270   Module 'Obj\reflection.0F000252.obj'
   075278   Module 'Obj\typelibrary.C0325122.obj'
   075278   Module 'Obj\varm.17B5C45B.obj'
075000:000290 000008   VIPini$E::VIPini$E::VIPini F=4
   075290   Module 'Obj\main.A22FE9BF.obj'

Frame 076000   Size 000010.  Name=<  VIPsym>, 	Chars=40000040h. [IR]
076000:000000 000004   VIPsym$A::VIPsym$A::VIPsym F=4
   076000   Module 'Obj\main.A22FE9BF.obj'
076000:000004 000000   VIPsym$C::VIPsym$C::VIPsym F=4
   076004   Module 'Obj\main.A22FE9BF.obj'
   076004   Module 'Obj\inputstreamsupport.7C36EDAA.obj'
   076004   Module 'Obj\outputstreamsupport.024B29AC.obj'
   076004   Module 'Obj\stream.99784C5B.obj'
   076004   Module 'Obj\string.B0A67F43.obj'
   076004   Module 'Obj\string8.302F7782.obj'
   076004   Module 'Obj\vpidomains.CE78C30C.obj'
   076004   Module 'Obj\console_api.885E7959.obj'
   076004   Module 'Obj\exe_api.A0303A40.obj'
   076004   Module 'Obj\filesystem_api.1C9354BA.obj'
   076004   Module 'Obj\gui_api.5B4BA4CC.obj'
   076004   Module 'Obj\locale_api.25A9E29D.obj'
   076004   Module 'Obj\memory_api.072B3D5C.obj'
   076004   Module 'Obj\multithread_api.6DC4E6F9.obj'
   076004   Module 'Obj\registry_api.0E78C5E3.obj'
   076004   Module 'Obj\runtime_api.0E79B0CD.obj'
   076004   Module 'Obj\shell_api.D9156D40.obj'
   076004   Module 'Obj\string_api.5221196E.obj'
   076004   Module 'Obj\string8_api.41F368A6.obj'
   076004   Module 'Obj\systeminformation_api.2DB6162F.obj'
   076004   Module 'Obj\time_api.21FCC41B.obj'
   076004   Module 'Obj\windowsapi.901E9509.obj'
   076004   Module 'Obj\exe.3A8A8F5C.obj'
   076004   Module 'Obj\binary.9C7C16C6.obj'
   076004   Module 'Obj\boolean.CB308F06.obj'
   076004   Module 'Obj\redblackset.314226AB.obj'
   076004   Module 'Obj\collection.EC6BE869.obj'
   076004   Module 'Obj\mapm_redblack.D48B3F53.obj'
   076004   Module 'Obj\setm_redblack.F3ED8D4F.obj'
   076004   Module 'Obj\collectionmsupport.662A7565.obj'
   076004   Module 'Obj\mapmsupport.59EA0039.obj'
   076004   Module 'Obj\console.043C10C8.obj'
   076004   Module 'Obj\core.4BC2D97D.obj'
   076004   Module 'Obj\exception.544F7452.obj'
   076004   Module 'Obj\exceptiondump.174B23B9.obj'
   076004   Module 'Obj\filesystem.57D9C483.obj'
   076004   Module 'Obj\list.1520BD2B.obj'
   076004   Module 'Obj\math.724D21D5.obj'
   076004   Module 'Obj\memory.9BD3BF38.obj'
   076004   Module 'Obj\namedvalue.187E0B91.obj'
   076004   Module 'Obj\programcontrol.5D08C78A.obj'
   076004   Module 'Obj\registry.88C8A89A.obj'
   076004   Module 'Obj\std.1C7A9F9B.obj'
   076004   Module 'Obj\redblacktree.C0378524.obj'
   076004   Module 'Obj\collectionsupport.6DAD372D.obj'
   076004   Module 'Obj\arraym_inline.5CB777DB.obj'
   076004   Module 'Obj\event.35BDD536.obj'
   076004   Module 'Obj\reflection.0F000252.obj'
   076004   Module 'Obj\typelibrary.C0325122.obj'
   076004   Module 'Obj\varm.17B5C45B.obj'
076000:000004 000008   VIPsym$E::VIPsym$E::VIPsym F=4
   076004   Module 'Obj\main.A22FE9BF.obj'

Frame 077000   Size 000C00.  Name=<  VIPtpd>, 	Chars=40000040h. [IR]
077000:000000 000004   VIPtpd$A::VIPtpd$A::VIPtpd F=4
   077000   Module 'Obj\main.A22FE9BF.obj'
077000:000004 000BF4   VIPtpd$C::VIPtpd$C::VIPtpd F=4
   077004   Module 'Obj\main.A22FE9BF.obj'
   0770E8   Module 'Obj\inputstreamsupport.7C36EDAA.obj'
   07716C   Module 'Obj\outputstreamsupport.024B29AC.obj'
   077178   Module 'Obj\stream.99784C5B.obj'
   077188   Module 'Obj\string.B0A67F43.obj'
   0771B0   Module 'Obj\string8.302F7782.obj'
   0771B0   Module 'Obj\vpidomains.CE78C30C.obj'
   07720C   Module 'Obj\console_api.885E7959.obj'
   077228   Module 'Obj\exe_api.A0303A40.obj'
   077230   Module 'Obj\filesystem_api.1C9354BA.obj'
   077280   Module 'Obj\gui_api.5B4BA4CC.obj'
   077434   Module 'Obj\locale_api.25A9E29D.obj'
   077448   Module 'Obj\memory_api.072B3D5C.obj'
   077450   Module 'Obj\multithread_api.6DC4E6F9.obj'
   07747C   Module 'Obj\registry_api.0E78C5E3.obj'
   077480   Module 'Obj\runtime_api.0E79B0CD.obj'
   077484   Module 'Obj\shell_api.D9156D40.obj'
   0774FC   Module 'Obj\string_api.5221196E.obj'
   07750C   Module 'Obj\string8_api.41F368A6.obj'
   07750C   Module 'Obj\systeminformation_api.2DB6162F.obj'
   077528   Module 'Obj\time_api.21FCC41B.obj'
   07753C   Module 'Obj\windowsapi.901E9509.obj'
   077548   Module 'Obj\exe.3A8A8F5C.obj'
   0775D4   Module 'Obj\binary.9C7C16C6.obj'
   0775F0   Module 'Obj\boolean.CB308F06.obj'
   0775F0   Module 'Obj\redblackset.314226AB.obj'
   0775FC   Module 'Obj\collection.EC6BE869.obj'
   07762C   Module 'Obj\mapm_redblack.D48B3F53.obj'
   077634   Module 'Obj\setm_redblack.F3ED8D4F.obj'
   07763C   Module 'Obj\collectionmsupport.662A7565.obj'
   077644   Module 'Obj\mapmsupport.59EA0039.obj'
   07764C   Module 'Obj\console.043C10C8.obj'
   077660   Module 'Obj\core.4BC2D97D.obj'
   07788C   Module 'Obj\exception.544F7452.obj'
   0778C0   Module 'Obj\exceptiondump.174B23B9.obj'
   0778C0   Module 'Obj\filesystem.57D9C483.obj'
   077920   Module 'Obj\list.1520BD2B.obj'
   077980   Module 'Obj\math.724D21D5.obj'
   07798C   Module 'Obj\memory.9BD3BF38.obj'
   077A10   Module 'Obj\namedvalue.187E0B91.obj'
   077A10   Module 'Obj\programcontrol.5D08C78A.obj'
   077A18   Module 'Obj\registry.88C8A89A.obj'
   077A20   Module 'Obj\std.1C7A9F9B.obj'
   077A30   Module 'Obj\redblacktree.C0378524.obj'
   077A48   Module 'Obj\collectionsupport.6DAD372D.obj'
   077A58   Module 'Obj\arraym_inline.5CB777DB.obj'
   077A94   Module 'Obj\event.35BDD536.obj'
   077BA0   Module 'Obj\reflection.0F000252.obj'
   077BBC   Module 'Obj\typelibrary.C0325122.obj'
   077BBC   Module 'Obj\varm.17B5C45B.obj'
077000:000BF8 000008   VIPtpd$E::VIPtpd$E::VIPtpd F=4
   077BF8   Module 'Obj\main.A22FE9BF.obj'

Frame 078000   Size 000BF0.  Name=<  VIPtpl>, 	Chars=40000040h. [IR]
078000:000000 000004   VIPtpl$A::VIPtpl$A::VIPtpl F=4
   078000   Module 'Obj\main.A22FE9BF.obj'
078000:000004 000BE4   VIPtpl$C::VIPtpl$C::VIPtpl F=4
   078004   Module 'Obj\main.A22FE9BF.obj'
   0780BC   Module 'Obj\inputstreamsupport.7C36EDAA.obj'
   07811C   Module 'Obj\outputstreamsupport.024B29AC.obj'
   078130   Module 'Obj\stream.99784C5B.obj'
   078144   Module 'Obj\string.B0A67F43.obj'
   07818C   Module 'Obj\string8.302F7782.obj'
   078194   Module 'Obj\vpidomains.CE78C30C.obj'
   0781F4   Module 'Obj\console_api.885E7959.obj'
   078210   Module 'Obj\exe_api.A0303A40.obj'
   078218   Module 'Obj\filesystem_api.1C9354BA.obj'
   078270   Module 'Obj\gui_api.5B4BA4CC.obj'
   078418   Module 'Obj\locale_api.25A9E29D.obj'
   07842C   Module 'Obj\memory_api.072B3D5C.obj'
   078440   Module 'Obj\multithread_api.6DC4E6F9.obj'
   078470   Module 'Obj\registry_api.0E78C5E3.obj'
   078478   Module 'Obj\runtime_api.0E79B0CD.obj'
   078488   Module 'Obj\shell_api.D9156D40.obj'
   0784C4   Module 'Obj\string_api.5221196E.obj'
   0784D4   Module 'Obj\string8_api.41F368A6.obj'
   0784D4   Module 'Obj\systeminformation_api.2DB6162F.obj'
   0784EC   Module 'Obj\time_api.21FCC41B.obj'
   0784FC   Module 'Obj\windowsapi.901E9509.obj'
   07850C   Module 'Obj\exe.3A8A8F5C.obj'
   078574   Module 'Obj\binary.9C7C16C6.obj'
   0785A8   Module 'Obj\boolean.CB308F06.obj'
   0785A8   Module 'Obj\redblackset.314226AB.obj'
   0785B0   Module 'Obj\collection.EC6BE869.obj'
   0785B0   Module 'Obj\mapm_redblack.D48B3F53.obj'
   0785B8   Module 'Obj\setm_redblack.F3ED8D4F.obj'
   0785C0   Module 'Obj\collectionmsupport.662A7565.obj'
   0785C8   Module 'Obj\mapmsupport.59EA0039.obj'
   0785D4   Module 'Obj\console.043C10C8.obj'
   0785F0   Module 'Obj\core.4BC2D97D.obj'
   0787F4   Module 'Obj\exception.544F7452.obj'
   07883C   Module 'Obj\exceptiondump.174B23B9.obj'
   07889C   Module 'Obj\filesystem.57D9C483.obj'
   078910   Module 'Obj\list.1520BD2B.obj'
   078948   Module 'Obj\math.724D21D5.obj'
   078954   Module 'Obj\memory.9BD3BF38.obj'
   0789E0   Module 'Obj\namedvalue.187E0B91.obj'
   0789F0   Module 'Obj\programcontrol.5D08C78A.obj'
   0789F8   Module 'Obj\registry.88C8A89A.obj'
   078A04   Module 'Obj\std.1C7A9F9B.obj'
   078A14   Module 'Obj\redblacktree.C0378524.obj'
   078A20   Module 'Obj\collectionsupport.6DAD372D.obj'
   078A28   Module 'Obj\arraym_inline.5CB777DB.obj'
   078A50   Module 'Obj\event.35BDD536.obj'
   078B7C   Module 'Obj\reflection.0F000252.obj'
   078BA4   Module 'Obj\typelibrary.C0325122.obj'
   078BA4   Module 'Obj\varm.17B5C45B.obj'
078000:000BE8 000008   VIPtpl$E::VIPtpl$E::VIPtpl F=4
   078BE8   Module 'Obj\main.A22FE9BF.obj'

Frame 079000   Size 000170.  Name=<   .data>, 	Chars=C0000040h. [IRW]
079000:000000 00015C   .data::DATA::DGROUP F=4
   079000   Module 'Obj\inputstreamsupport.7C36EDAA.obj'
   079008   Module 'Obj\outputstreamsupport.024B29AC.obj'
   079010   Module 'Obj\stream.99784C5B.obj'
   079028   Module 'Obj\string.B0A67F43.obj'
   079038   Module 'Obj\filesystem_api.1C9354BA.obj'
   079040   Module 'Obj\gui_api.5B4BA4CC.obj'
   079048   Module 'Obj\multithread_api.6DC4E6F9.obj'
   079050   Module 'Obj\registry_api.0E78C5E3.obj'
   079054   Module 'Obj\runtime_api.0E79B0CD.obj'
   079058   Module 'Obj\systeminformation_api.2DB6162F.obj'
   07905C   Module 'Obj\time_api.21FCC41B.obj'
   079064   Module 'Obj\binary.9C7C16C6.obj'
   079074   Module 'Obj\mapm_redblack.D48B3F53.obj'
   07907C   Module 'Obj\setm_redblack.F3ED8D4F.obj'
   079084   Module 'Obj\collectionmsupport.662A7565.obj'
   07908C   Module 'Obj\mapmsupport.59EA0039.obj'
   079094   Module 'Obj\console.043C10C8.obj'
   0790A4   Module 'Obj\exception.544F7452.obj'
   0790AC   Module 'Obj\filesystem.57D9C483.obj'
   0790C4   Module 'Obj\memory.9BD3BF38.obj'
   0790D4   Module 'Obj\collectionsupport.6DAD372D.obj'
   0790DC   Module 'Obj\arraym_inline.5CB777DB.obj'
   0790EC   Module 'Obj\event.35BDD536.obj'
   07912C   Module 'Obj\varm.17B5C45B.obj'
079000:00015C 00000C   .bss::BSS::DGROUP F=4
   07915C   Module '..\..\..\_intermediate\sourceVS\vipInit\Win32\ReleasePE\VIPDll.obj'

Frame 07A000   Size 000030.  Name=< .gcroot>, 	Chars=C0000040h. [IRW]
07A000:000000 000024   .gcroot::.gcroot::.gcroot F=4
   07A000   Module 'Obj\stream.99784C5B.obj'
   07A00C   Module 'Obj\multithread_api.6DC4E6F9.obj'
   07A010   Module 'Obj\runtime_api.0E79B0CD.obj'
   07A014   Module 'Obj\exe.3A8A8F5C.obj'
   07A018   Module 'Obj\console.043C10C8.obj'

	     ------- Names by value Map ---------
Frame 001000   Size 0421F0.  Name=<   .text>, 	Chars=60000020h. [CER]
001000:000000 042010   .text::CODE::<no group> F=4
--- From '..\..\..\_intermediate\sourceVS\vipInit\Win32\ReleasePE\VIPDll.obj'
01:00001000 _PROLOG_Goal 
--- From 'Obj\main.A22FE9BF.obj'
01:0000101C ?boxer@main@@SAXPBUs@@AAU2@@Z  (Idle)
01:00001134 ?member@main@@SAXPBUs@@PAU?$__packedList_struct@U2@@@@Z  (Idle)
01:0000118C ?stronger@main@@SAXPBUs@@0PAU?$__packedList_struct@U2@@@@Z  (Idle)
01:00001204 ?insertEveryPosition@main@@SAXPBUs@@PAPAU?$__packedList_struct@U2@@@PAU?$__packedList_struct@U2@@@@Z  (Idle)
01:0000128C ?permutation@main@@SAXPAU?$__packedList_struct@Us@@@@PAPAU?$__packedList_struct@U2@@@@Z  (Idle)
01:0000130C ?print_list@main@@SAXPAU?$__packedList_struct@Us@@@@@Z  (Idle)
01:00001368 ?solve@main@@SAXPAPAU?$__packedList_struct@Us@@@@@Z  (Idle)
01:00001518 ?run@main@@SAXXZ 
--- From 'Obj\filesystem.57D9C483.obj'
01:00001550 ?new@inputSupport@@SAXQAV1@@QAVinputBuffer@@@PAUmode_struct@stream@@@Z 
--- From 'Obj\inputstreamsupport.7C36EDAA.obj'
01:00001584 ?setMode@inputSupport@@SGXQAV1@@PAUmode_struct@stream@@@Z 
01:000015B8 ?getMode@inputSupport@@SGPAUmode_struct@stream@@QAV1@@@Z 
01:000015D0 ?_readChar@inputSupport@@SAXQAV1@@PA_W@Z 
01:00001600 ?ungetChar@inputSupport@@SAXQAV1@@@Z 
01:00001628 ?_readLine@inputSupport@@SAXQAV1@@PAPB_W@Z 
01:00001658 ?_readLineCRLF@inputSupport@@SAXQAV1@@PAPB_W@Z 
01:00001688 ?_read@inputSupport@@SAXQAV1@@QAVrTypeLibrary@TypeLibraries@RunTime@VIP@@PAPAX@Z 
01:000016B0 ?consult@inputSupport@@SAXQAV1@@PBUfactDB@@@Z 
01:000016DC ?reconsult@inputSupport@@SAXQAV1@@PBUfactDB@@@Z 
01:000016F0 ?_readBytes@inputSupport@@SAXQAV1@@PBUbyteCount@@QAPAE@Z 
01:00001710 ?_readString@inputSupport@@SAXQAV1@@PBUcharCount@@PAPB_W@Z 
01:00001744 ?checkMode_text_explicit@inputSupport@@SAXQAV1@@PAUprogramPoint_struct@core@@@Z 
01:0000176C ?_convertMode@inputSupport@@SAXPAUmode_struct@stream@@AAUbooleanInt@core@@@Z 
01:00001794 ?endOfStream@inputSupport@@SAXQAV1@@@Z 
01:000017D8 ?repeatToEndOfStream@inputSupport@@SAXQAV1@@@Z 
01:00001834 ?allowNullPointersBufferSupport@inputSupport@@SGPAUboolean_struct@_builtIn@@QAV1@@@Z 
01:0000184C ?_new@inputSupport@@SAXQAVinputBuffer@@@PAUmode_struct@stream@@PAPAV1@@@Z  (Idle)
01:00001878 ?_object_facts_initializer@inputSupport@@SGXQAV1@@@Z 
01:00001890 ?inputBuffer@inputSupport@@SGXQAV1@@QAV0@@@Z 
01:000018A0 ?inputBuffer@inputSupport@@SGQAV0@@QAV1@@@Z 
01:000018AC ?allowNullPointers@inputSupport@@SGXQAV1@@PAUboolean_struct@_builtIn@@@Z 
01:000018BC ?allowNullPointers@inputSupport@@SGPAUboolean_struct@_builtIn@@QAV1@@@Z 
--- From 'Obj\filesystem.57D9C483.obj'
01:000018D0 inputSupport?_initObject@@@QAGXQAV1@H@Z 
--- From 'Obj\inputstreamsupport.7C36EDAA.obj'
01:000018F0 ?@create_object@inputSupport@@SGQAV1@@XZ 
--- From 'Obj\filesystem.57D9C483.obj'
01:0000190C inputSupport?_InternalFinalizer@@@QAGXQAV1@@Z 
--- From 'Obj\outputstreamsupport.024B29AC.obj'
01:00001920 ?_getFlushProcedure@outputSupport@@SAXQAV1@@PAUboolean_struct@_builtIn@@PAX@Z  (Idle)
01:00001964 ?doFlush@outputSupport@@SAXQAV1@@0@Z 
01:00001970 ?doNotFlush@outputSupport@@SAXQAV1@@@Z 
--- From 'Obj\filesystem.57D9C483.obj'
01:00001978 ?new@outputSupport@@SAXQAV1@@QAVoutputBuffer@@@PAUmode_struct@stream@@PAUboolean_struct@_builtIn@@@Z 
--- From 'Obj\string.B0A67F43.obj'
01:000019B4 ?newEx@outputSupport@@SAXQAV1@@QAVoutputBuffer@@@PAUmode_struct@stream@@PAUoptional_struct@core@@X@Z 
--- From 'Obj\outputstreamsupport.024B29AC.obj'
01:000019F4 ?setMode@outputSupport@@SGXQAVstream@@@PAUmode_struct@2@@Z 
01:00001A28 ?getMode@outputSupport@@SGPAUmode_struct@stream@@QAV3@@@Z 
01:00001A40 ?flush@outputSupport@@SAXQAVoutputStream@@@@Z 
01:00001A58 ?getPosition@outputSupport@@SGPBUfileSize@fileSystem_api@@QAVstream@@@@Z 
01:00001A70 ?setPosition@outputSupport@@SGXQAVstream@@@PBUfileSize@fileSystem_api@@@Z 
01:00001A88 ?getCRLFconversion@outputSupport@@SGPAUboolean_struct@_builtIn@@QAVstream@@@@Z 
01:00001AA0 ?setCRLFconversion@outputSupport@@SGXQAVstream@@@PAUboolean_struct@_builtIn@@@Z 
01:00001AC8 ?close@outputSupport@@SGXQAVstream@@@@Z 
01:00001AD8 ?write@outputSupport@@SAXQAVoutputStream@@@@Z 
01:00001B28 ?writeQuoted@outputSupport@@SAXQAVoutputStream@@@@Z 
01:00001B88 ?writef@outputSupport@@SAXQAVoutputStream@@@PB_W@Z 
01:00001C2C ?nl@outputSupport@@SAXQAVoutputStream@@@@Z 
01:00001C60 ?save@outputSupport@@SAXQAVoutputStream@@@PBUfactDB@@@Z 
01:00001CBC ?writeBytes@outputSupport@@SAXQAVoutputStream@@@PAXPBUbyteCount@@@Z 
01:00001D08 ?checkMode_text_explicit@outputSupport@@SAXQAV1@@PAUprogramPoint_struct@core@@@Z 
01:00001D30 ?allowNullPointersBufferSupport@outputSupport@@SGPAUboolean_struct@_builtIn@@QAV1@@@Z 
01:00001D48 ?_new@outputSupport@@SAXQAVoutputBuffer@@@PAUmode_struct@stream@@PAUboolean_struct@_builtIn@@PAPAV1@@@Z  (Idle)
01:00001D78 ?_newEx@outputSupport@@SAXQAVoutputBuffer@@@PAUmode_struct@stream@@PAUoptional_struct@core@@XPAPAV1@@@Z  (Idle)
01:00001DA8 ?_object_facts_initializer@outputSupport@@SGXQAV1@@@Z 
01:00001DC0 ?allowNullPointers@outputSupport@@SGXQAVstream@@@PAUboolean_struct@_builtIn@@@Z 
01:00001DD0 ?allowNullPointers@outputSupport@@SGPAUboolean_struct@_builtIn@@QAVstream@@@@Z 
--- From 'Obj\filesystem.57D9C483.obj'
01:00001DE4 outputSupport?_initObject@@@QAGXQAV1@H@Z 
--- From 'Obj\outputstreamsupport.024B29AC.obj'
01:00001E08 ?@create_object@outputSupport@@SGQAV1@@XZ 
--- From 'Obj\filesystem.57D9C483.obj'
01:00001E24 outputSupport?_InternalFinalizer@@@QAGXQAV1@@Z 
01:00001E30 ?raise_endOfStream_explicit@stream_exception@@SAXPAUprogramPoint_struct@core@@@Z 
01:00001E48 ?raise_notSupportedProperty_explicit@stream_exception@@SAXPAUprogramPoint_struct@core@@@Z 
01:00001E60 ?raise_noCRLFconversion_explicit@stream_exception@@SAXPAUprogramPoint_struct@core@@@Z 
01:00001E78 ?raise_wrongMode_explicit@stream_exception@@SAXPAUprogramPoint_struct@core@@PB_W@Z 
--- From 'Obj\stream.99784C5B.obj'
01:00001EEC ?raise_noStream_explicit@stream_exception@@SAXPAUprogramPoint_struct@core@@@Z  (Idle)
01:00001F04 ?_tryGetInputStream@stdioState@@SAXQAV1@@PAPAVinputStream@@@@Z 
01:00001F3C ?_tryGetOutputStream@stdioState@@SAXQAV1@@PAPAVoutputStream@@@@Z 
01:00001F74 ?_tryGetErrorStream@stdioState@@SAXQAV1@@PAPAVoutputStream@@@@Z 
01:00001FAC ?setInputStream@stdioState@@SAXQAV1@@QAVinputStream@@@@Z 
01:00001FC0 ?_getInputStream@stdioState@@SAXQAV1@@PAPAVinputStream@@@@Z 
01:00001FE8 ?setOutputStream@stdioState@@SAXQAV1@@QAVoutputStream@@@@Z 
01:00001FFC ?_getOutputStream@stdioState@@SAXQAV1@@PAPAVoutputStream@@@@Z 
01:00002024 ?setErrorStream@stdioState@@SAXQAV1@@QAVoutputStream@@@@Z 
01:00002038 ?_getErrorStream@stdioState@@SAXQAV1@@PAPAVoutputStream@@@@Z 
01:00002060 ?new@stdioState@@SAXQAV1@@@Z  (Idle)
01:00002068 ?_new@stdioState@@SAXPAPAV1@@@Z  (Idle)
01:0000208C ?_object_facts_initializer@stdioState@@SGXQAV1@@@Z 
01:000020AC ?inputStream@stdioState@@SGXQAV1@@QAV0@@@Z 
01:000020BC ?inputStream@stdioState@@SGQAV0@@QAV1@@@Z 
01:000020DC ?outputStream@stdioState@@SGXQAV1@@QAV0@@@Z 
01:000020EC ?outputStream@stdioState@@SGQAV0@@QAV1@@@Z 
01:0000210C ?errorStream@stdioState@@SGXQAV1@@QAVoutputStream@@@@Z 
01:0000211C ?errorStream@stdioState@@SGQAVoutputStream@@@QAV1@@@Z 
01:0000213C ?inputStream@stdio@@SGQAV0@@XZ 
--- From 'Obj\console.043C10C8.obj'
01:0000215C ?inputStream@stdio@@SGXQAV0@@@Z 
--- From 'Obj\stream.99784C5B.obj'
01:0000217C ?_tryGetInputStream@stdio@@SAXPAPAVinputStream@@@@Z  (Idle)
01:000021A4 ?outputStream@stdio@@SGQAV0@@XZ 
--- From 'Obj\console.043C10C8.obj'
01:000021C4 ?outputStream@stdio@@SGXQAV0@@@Z 
--- From 'Obj\exceptiondump.174B23B9.obj'
01:000021E8 ?_tryGetOutputStream@stdio@@SAXPAPAVoutputStream@@@@Z 
--- From 'Obj\stream.99784C5B.obj'
01:00002210 ?errorStream@stdio@@SGQAVoutputStream@@@XZ 
--- From 'Obj\console.043C10C8.obj'
01:00002230 ?errorStream@stdio@@SGXQAVoutputStream@@@@Z 
--- From 'Obj\exceptiondump.174B23B9.obj'
01:00002254 ?_tryGetErrorStream@stdio@@SAXPAPAVoutputStream@@@@Z 
--- From 'Obj\stream.99784C5B.obj'
01:0000227C ?write@stdio@@SAXXZ 
01:000022B8 ?writef@stdio@@SAXPB_W@Z  (Idle)
01:000022FC ?writeBytes@stdio@@SAXPAXPBUbyteCount@@@Z  (Idle)
01:00002340 ?writeQuoted@stdio@@SAXXZ  (Idle)
01:0000237C ?nl@stdio@@SAXXZ 
01:000023A8 ?save@stdio@@SAXPBUfactDB@@@Z  (Idle)
01:000023E4 ?flush@stdio@@SAXXZ  (Idle)
01:00002410 ?write_error@stdio@@SAXXZ  (Idle)
01:0000244C ?writef_error@stdio@@SAXPB_W@Z  (Idle)
01:00002490 ?writeBytes_error@stdio@@SAXPAXPBUbyteCount@@@Z  (Idle)
01:000024D4 ?writeQuoted_error@stdio@@SAXXZ  (Idle)
01:00002510 ?nl_error@stdio@@SAXXZ  (Idle)
01:0000253C ?save_error@stdio@@SAXPBUfactDB@@@Z  (Idle)
01:00002578 ?flush_error@stdio@@SAXXZ  (Idle)
01:000025A4 ?_read@stdio@@SAXQAVrTypeLibrary@TypeLibraries@RunTime@VIP@@PAPAX@Z  (Idle)
01:000025E8 ?_readChar@stdio@@SAXPA_W@Z  (Idle)
01:00002624 ?ungetChar@stdio@@SAXXZ  (Idle)
01:00002650 ?_readLine@stdio@@SAXPAPB_W@Z  (Idle)
01:0000268C ?_readString@stdio@@SAXPBUcharCount@@PAPB_W@Z  (Idle)
01:000026D0 ?_readBytes@stdio@@SAXPBUbyteCount@@QAPAE@Z  (Idle)
01:00002714 ?consult@stdio@@SAXPBUfactDB@@@Z  (Idle)
01:00002750 ?endOfStream@stdio@@SAXXZ  (Idle)
01:0000277C ?_getOutputStreamPP_explicit@stdio@@SAXPAUprogramPoint_struct@core@@PAPAVoutputStream@@@@Z 
01:000027C0 ?_getErrorStreamPP_explicit@stdio@@SAXPAUprogramPoint_struct@core@@PAPAVoutputStream@@@@Z 
01:00002804 ?_getInputStreamPP_explicit@stdio@@SAXPAUprogramPoint_struct@core@@PAPAVinputStream@@@@Z 
01:00002848 ?setInputStream@stdio@@SAXQAVinputStream@@@@Z  (Idle)
01:00002858 ?_getInputStream@stdio@@SAXPAPAVinputStream@@@@Z  (Idle)
01:0000286C ?setOutputStream@stdio@@SAXQAVoutputStream@@@@Z  (Idle)
01:0000287C ?_getOutputStream@stdio@@SAXPAPAVoutputStream@@@@Z  (Idle)
01:00002890 ?setErrorStream@stdio@@SAXQAVoutputStream@@@@Z  (Idle)
01:000028A0 ?_getErrorStream@stdio@@SAXPAPAVoutputStream@@@@Z  (Idle)
01:000028B4 ?_class_facts_initializer@stdio@@SGXXZ 
01:000028DC ?stdioState@stdio@@SGXQAV0@@@Z  (Idle)
01:000028E8 ?stdioState@stdio@@SGQAV0@@XZ  (Idle)
01:000028F0 ?new@outputStream_null@@SAXQAV1@@@Z  (Idle)
01:000028F8 ?getPosition@outputStream_null@@SGPBUfileSize@fileSystem_api@@QAVstream@@@@Z 
01:00002910 ?setPosition@outputStream_null@@SGXQAVstream@@@PBUfileSize@fileSystem_api@@@Z 
01:00002920 ?getCRLFconversion@outputStream_null@@SGPAUboolean_struct@_builtIn@@QAVstream@@@@Z 
01:00002938 ?setCRLFconversion@outputStream_null@@SGXQAVstream@@@PAUboolean_struct@_builtIn@@@Z 
01:00002948 ?close@outputStream_null@@SGXQAVstream@@@@Z 
01:00002958 ?setMode@outputStream_null@@SGXQAVstream@@@PAUmode_struct@2@@Z 
01:00002968 ?getMode@outputStream_null@@SGPAUmode_struct@stream@@QAV3@@@Z 
01:00002980 ?write@outputStream_null@@SAXQAVoutputStream@@@@Z 
01:00002988 ?writeQuoted@outputStream_null@@SAXQAVoutputStream@@@@Z 
01:00002990 ?writeBytes@outputStream_null@@SAXQAVoutputStream@@@PAXPBUbyteCount@@@Z 
01:00002998 ?writef@outputStream_null@@SAXQAVoutputStream@@@PB_W@Z 
01:000029A0 ?nl@outputStream_null@@SAXQAVoutputStream@@@@Z 
01:000029A8 ?save@outputStream_null@@SAXQAVoutputStream@@@PBUfactDB@@@Z 
01:000029B0 ?flush@outputStream_null@@SAXQAVoutputStream@@@@Z 
01:000029B8 ?allowNullPointers@outputStream_null@@SGPAUboolean_struct@_builtIn@@QAVstream@@@@Z 
01:000029D0 ?allowNullPointers@outputStream_null@@SGXQAVstream@@@PAUboolean_struct@_builtIn@@@Z 
01:000029E0 ?_new@outputStream_null@@SAXPAPAVoutputStream@@@@Z  (Idle)
01:00002A08 ?_class_facts_initializer@outputStream_null@@SGXXZ 
01:00002A2C ?null@outputStream_0@SGQAVoutputStream@@@XZ  (Idle)
01:00002A34 ?new@inputStream_null@@SAXQAV1@@@Z  (Idle)
01:00002A3C ?getPosition@inputStream_null@@SGPBUfileSize@fileSystem_api@@QAVstream@@@@Z 
01:00002A54 ?setPosition@inputStream_null@@SGXQAVstream@@@PBUfileSize@fileSystem_api@@@Z 
01:00002A64 ?getCRLFconversion@inputStream_null@@SGPAUboolean_struct@_builtIn@@QAVstream@@@@Z 
01:00002A7C ?setCRLFconversion@inputStream_null@@SGXQAVstream@@@PAUboolean_struct@_builtIn@@@Z 
01:00002A8C ?close@inputStream_null@@SGXQAVstream@@@@Z 
01:00002A9C ?setMode@inputStream_null@@SGXQAVstream@@@PAUmode_struct@2@@Z 
01:00002AAC ?getMode@inputStream_null@@SGPAUmode_struct@stream@@QAV3@@@Z 
01:00002AC4 ?_read@inputStream_null@@SAXQAVinputStream@@@QAVrTypeLibrary@TypeLibraries@RunTime@VIP@@PAPAX@Z 
01:00002AD4 ?_readBytes@inputStream_null@@SAXQAVinputStream@@@PBUbyteCount@@QAPAE@Z 
01:00002AE4 ?_readString@inputStream_null@@SAXQAVinputStream@@@PBUcharCount@@PAPB_W@Z 
01:00002AF4 ?_readChar@inputStream_null@@SAXQAVinputStream@@@PA_W@Z 
01:00002B04 ?ungetChar@inputStream_null@@SAXQAVinputStream@@@@Z 
01:00002B14 ?_readLine@inputStream_null@@SAXQAVinputStream@@@PAPB_W@Z 
01:00002B24 ?_readLineCRLF@inputStream_null@@SAXQAVinputStream@@@PAPB_W@Z 
01:00002B34 ?consult@inputStream_null@@SAXQAVinputStream@@@PBUfactDB@@@Z 
01:00002B44 ?reconsult@inputStream_null@@SAXQAVinputStream@@@PBUfactDB@@@Z 
01:00002B54 ?endOfStream@inputStream_null@@SAXQAVinputStream@@@@Z 
01:00002B5C ?repeatToEndOfStream@inputStream_null@@SAXQAVinputStream@@@@Z 
01:00002B68 ?exhausted@inputStream_null@@SAXXZ 
01:00002B9C ?allowNullPointers@inputStream_null@@SGPAUboolean_struct@_builtIn@@QAVstream@@@@Z 
01:00002BB4 ?allowNullPointers@inputStream_null@@SGXQAVstream@@@PAUboolean_struct@_builtIn@@@Z 
01:00002BC4 ?_new@inputStream_null@@SAXPAPAVinputStream@@@@Z  (Idle)
01:00002BEC ?_class_facts_initializer@inputStream_null@@SGXXZ 
01:00002C10 ?null@inputStream_0@SGQAVinputStream@@@XZ  (Idle)
01:00002C20 stdioState?_initObject@@@QAGXQAV1@H@Z 
01:00002C40 ?@create_object@stdioState@@SGQAV1@@XZ 
01:00002C5C stdioState?_InternalFinalizer@@@QAGXQAV1@@Z 
01:00002C70 outputStream_null?_initObject@@@QAGXQAV1@H@Z 
01:00002C80 ?@create_object@outputStream_null@@SGQAV1@@XZ 
01:00002C9C outputStream_null?_InternalFinalizer@@@QAGXQAV1@@Z 
01:00002CB0 inputStream_null?_initObject@@@QAGXQAV1@H@Z 
01:00002CC0 ?@create_object@inputStream_null@@SGQAV1@@XZ 
01:00002CDC inputStream_null?_InternalFinalizer@@@QAGXQAV1@@Z 
--- From 'Obj\exception.544F7452.obj'
01:00002CF0 ?format_exceptionHandler_explicit@string_exception@@SAXPAUprogramPoint_struct@core@@PBUtraceId@5@PB_W@Z 
--- From 'Obj\string.B0A67F43.obj'
01:00002DD8 ?raise_emptyString_explicit@string_exception@@SAXPAUprogramPoint_struct@core@@@Z  (Idle)
01:00002DF0 ?raise_outOfBoundaries_explicit@string_exception@@SAXPAUprogramPoint_struct@core@@PBUcharCount@@1@Z  (Idle)
--- From 'Obj\filesystem.57D9C483.obj'
01:00002EB8 ?raise_oddOffset_explicit@string_exception@@SAXPAUprogramPoint_struct@core@@PBUbyteCount@@@Z 
01:00002F2C ?_create@string@@SAXPBUcharCount@@PB_WPAPB_W@Z 
01:00002F64 ?_length@string@@SAXPB_WAAUcharCount@@@Z 
--- From 'Obj\string.B0A67F43.obj'
01:00002F7C ?_tryCreate@string@@SAXPBUcharCount@@PB_WPAPB_W@Z  (Idle)
--- From 'Obj\filesystem.57D9C483.obj'
01:00002FD4 ?_createCopy@string@@SAXPB_WPAPB_W@Z 
--- From 'Obj\string.B0A67F43.obj'
01:00003054 ?hasSuffix@string@@SAXPB_W0PAPB_W@Z  (Idle)
01:000030B8 ?hasSuffix@string@@SAXPB_W0@Z  (Idle)
--- From 'Obj\filesystem.57D9C483.obj'
01:00003114 ?hasPrefix@string@@SAXPB_W0PAPB_W@Z 
--- From 'Obj\string.B0A67F43.obj'
01:0000313C ?_hasPrefixPtr@string@@SAXPAUpChar_struct@memory@@0PAPAU23@@Z 
01:000031DC ?hasPrefixIgnoreCase@string@@SAXPB_W0PAPB_W@Z  (Idle)
01:000031F4 ?hasPrefixIgnoreCase@string@@SAXPB_W0PAPB_WPBUlcId@locale_native@@@Z 
01:00003234 ?hasPrefixCaseNeutral@string@@SAXPB_W0PAPB_W@Z  (Idle)
--- From 'Obj\filesystem.57D9C483.obj'
01:00003248 ?_concat@string@@SAXPB_W0PAPB_W@Z 
--- From 'Obj\registry.88C8A89A.obj'
01:000032B8 ?_concat@string@@SAXPB_W00PAPB_W@Z 
--- From 'Obj\string.B0A67F43.obj'
01:00003354 ?_concat@string@@SAXPB_W000PAPB_W@Z  (Idle)
01:0000337C ?_concat@string@@SAXPB_W0000PAPB_W@Z  (Idle)
01:0000339C ?_concat@string@@SAXPB_W00000PAPB_W@Z 
--- From 'Obj\filesystem.57D9C483.obj'
01:000034C0 ?_concatList@string@@SAXPAU?$__packedList_struct@U1@@@PAPB_W@Z 
--- From 'Obj\string.B0A67F43.obj'
01:00003550 ?_concatWithDelimiter@string@@SAXPAU?$__packedList_struct@U1@@@PB_WPAPB_W@Z  (Idle)
01:00003668 ?concatListWithDelimiter_inner@string@@SAXPAXPAU?$__packedList_struct@U1@@@PAXPBUbyteCount@@PAU?$__packedList_struct@UcharCount@@@@@Z 
01:00003700 ?_copyDelimiterIfNeeded@string@@SAXPAXPAU?$__packedList_struct@U1@@@PAXPBUbyteCount@@PAPAX@Z 
01:00003734 ?getStringListInfo@string@@SAXPAU?$__packedList_struct@U1@@@PBUpositive@@1AAU3@3PAPAU?$__packedList_struct@UcharCount@@@@@Z 
01:000037D0 ?concatStringList@string@@SAXPAXPAU?$__packedList_struct@U1@@@PAU?$__packedList_struct@UcharCount@@@@@Z 
--- From 'Obj\namedvalue.187E0B91.obj'
01:00003870 ?equalCaseNeutral@string@@SAXPB_W0@Z 
--- From 'Obj\string.B0A67F43.obj'
01:00003884 ?_compareCaseNeutral@string@@SAXPB_W0PAPAUcompareResult_struct@_builtIn@@@Z  (Idle)
01:000038A0 ?equalIgnoreCase@string@@SAXPB_W0@Z  (Idle)
01:000038CC ?equalIgnoreCase@string@@SAXPB_W0PBUlcId@locale_native@@@Z 
01:000038FC ?_compareIgnoreCase@string@@SAXPB_W0PAPAUcompareResult_struct@_builtIn@@@Z 
01:00003920 ?_compareIgnoreCase@string@@SAXPB_W0PBUlcId@locale_native@@PAPAUcompareResult_struct@_builtIn@@@Z 
01:0000393C ?_compareString@string@@SAXPB_W0PAPAUcompareResult_struct@_builtIn@@@Z  (Idle)
01:00003960 ?_compareString@string@@SAXPB_W0PBUlcId@locale_native@@PAPAUcompareResult_struct@_builtIn@@@Z 
01:0000397C ?_compareString@string@@SAXPB_W0PBUlcId@locale_native@@IPAPAUcompareResult_struct@_builtIn@@@Z 
01:00003B24 ?_adjustRight@string@@SAXPB_WPBUcharCount@@PAPB_W@Z  (Idle)
01:00003B44 ?_adjustRight@string@@SAXPB_WPBUcharCount@@0PAPB_W@Z 
01:00003B60 ?_adjustRight@string@@SAXPB_WPBUcharCount@@0PAUadjustBehaviour_struct@1@PAPB_W@Z 
01:00003BD0 ?_adjustLeft@string@@SAXPB_WPBUcharCount@@PAPB_W@Z  (Idle)
01:00003BF0 ?_adjustLeft@string@@SAXPB_WPBUcharCount@@0PAPB_W@Z 
01:00003C0C ?_adjust@string@@SAXPB_WPBUcharCount@@PAUadjustSide_struct@1@PAPB_W@Z  (Idle)
01:00003C34 ?_adjust@string@@SAXPB_WPBUcharCount@@0PAUadjustSide_struct@1@PAPB_W@Z  (Idle)
01:00003C5C ?_adjust@string@@SAXPB_WPBUcharCount@@0PAUadjustBehaviour_struct@1@PAUadjustSide_struct@1@PAPB_W@Z  (Idle)
01:00003C84 ?_crop@string@@SAXPB_WPBUcharCount@@PAUadjustSide_struct@1@PAUadjustBehaviour_struct@1@PAPB_W@Z 
01:00003D18 ?_adjustLeft@string@@SAXPB_WPBUcharCount@@0PAUadjustBehaviour_struct@1@PAPB_W@Z 
01:00003D78 ?_split@string@@SAXPB_W0PAPAU?$__packedList_struct@U1@@@@Z  (Idle)
--- From 'Obj\filesystem.57D9C483.obj'
01:00003E10 ?format@string@@SAPB_W0@Z 
--- From 'Obj\core.4BC2D97D.obj'
01:00003E70 ?write@string@@SAPB_WXZ 
--- From 'Obj\string.B0A67F43.obj'
01:00003E88 ?_rear@string@@SAXPB_WPBUcharCount@@PAPB_W@Z  (Idle)
--- From 'Obj\exceptiondump.174B23B9.obj'
01:00003EDC ?_fromPosition@string@@SAXPB_WPBUcharCount@@PAPB_W@Z 
--- From 'Obj\string.B0A67F43.obj'
01:00003F0C ?front_wc@string@@SAXPB_WPBUcharCount@@PAPB_W2@Z  (Idle)
--- From 'Obj\filesystem.57D9C483.obj'
01:00003F40 ?front@string@@SAXPB_WPBUcharCount@@PAPB_W2@Z 
01:00003F84 ?tryFront@string@@SAXPB_WPBUcharCount@@PAPB_W2@Z 
--- From 'Obj\string.B0A67F43.obj'
01:00003FC0 ?checkPosition@string@@SAXPBUcharCount@@PB_W@Z 
--- From 'Obj\filesystem.57D9C483.obj'
01:00004024 ?_frontChar@string@@SAXPB_WPA_W@Z 
--- From 'Obj\string.B0A67F43.obj'
01:00004038 ?_tryFrontChar@string@@SAXPB_WPA_W@Z  (Idle)
01:0000405C ?frontChar_wc@string@@SAXPB_WPA_WPAPB_W@Z  (Idle)
--- From 'Obj\filesystem.57D9C483.obj'
01:0000407C ?frontChar@string@@SAXPB_WPA_WPAPB_W@Z 
--- From 'Obj\string.B0A67F43.obj'
01:00004094 ?_tryLastChar@string@@SAXPB_WPA_W@Z  (Idle)
--- From 'Obj\filesystem.57D9C483.obj'
01:000040C8 ?lastChar@string@@SAXPB_WPAPB_WPA_W@Z 
01:00004118 ?_lastChar@string@@SAXPB_WPA_W@Z 
--- From 'Obj\string.B0A67F43.obj'
01:00004158 ?_truncate@string@@SAXPB_WPBUcharCount@@PAPB_W@Z  (Idle)
01:00004198 ?_toCharList@string@@SAXPB_WPAPAU?$__packedList_struct@Uchar@@@@@Z  (Idle)
--- From 'Obj\exceptiondump.174B23B9.obj'
01:00004200 ?frontToken@string@@SAXPB_WPAPB_W1@Z 
--- From 'Obj\memory_api.072B3D5C.obj'
01:00004220 ?isValidToRead@string@@SAXPB_W@Z 
--- From 'Obj\string.B0A67F43.obj'
01:00004234 ?isValidToRead@string@@SAXPB_WPBUcharCount@@@Z 
01:00004254 ?_replaceFirst@string@@SAXPB_W00PAPB_W@Z  (Idle)
01:00004270 ?_replaceFirst@string@@SAXPB_W00PAUcaseSensitivity_struct@1@PAPB_W@Z 
--- From 'Obj\filesystem.57D9C483.obj'
01:000042A4 ?_replaceAll@string@@SAXPB_W00PAPB_W@Z 
--- From 'Obj\string.B0A67F43.obj'
01:000042C0 ?_replaceAll@string@@SAXPB_W00PAUcaseSensitivity_struct@1@PAPB_W@Z 
01:000042F4 ?_replaceAll@string@@SAXPB_W00PAUcaseSensitivity_struct@1@PAIPAPB_W@Z  (Idle)
01:0000432C ?_caseToInteger@string@@SAXPAUcaseSensitivity_struct@1@PAH@Z 
01:0000435C ?_replacePart@string@@SAXPB_WPBUcharCount@@10PAPB_W@Z  (Idle)
01:0000441C ?_tryReplacePart@string@@SAXPB_WPBUcharCount@@10PAPB_W@Z  (Idle)
01:000044D4 ?_search@string@@SAXPB_W0AAUcharCount@@@Z  (Idle)
--- From 'Obj\exceptiondump.174B23B9.obj'
01:00004510 ?_search@string@@SAXPB_W0PAUcaseSensitivity_struct@1@AAUcharCount@@@Z 
--- From 'Obj\string.B0A67F43.obj'
01:000045D0 ?_searchLast@string@@SAXPB_W0PAUcaseSensitivity_struct@1@AAUcharCount@@@Z  (Idle)
--- From 'Obj\registry_api.0E78C5E3.obj'
01:00004690 ?_subString@string@@SAXPB_WPBUcharCount@@1PAPB_W@Z 
--- From 'Obj\string.B0A67F43.obj'
01:000046DC ?_trySubString@string@@SAXPB_WPBUcharCount@@1PAPB_W@Z  (Idle)
01:00004720 ?_toUpperCase@string@@SAXPB_WPAPB_W@Z 
--- From 'Obj\reflection.0F000252.obj'
01:00004744 ?_toLowerCase@string@@SAXPB_WPAPB_W@Z 
--- From 'Obj\string.B0A67F43.obj'
01:00004768 ?isUpperCase@string@@SAXPB_W@Z  (Idle)
01:0000479C ?isLowerCase@string@@SAXPB_W@Z  (Idle)
01:000047D0 ?hasDecimalDigits@string@@SAXPB_W@Z  (Idle)
01:000047EC ?isDecimalDigits@string@@SAXPB_W@Z 
01:0000483C ?decimalDigit@string@@SAX_W@Z 
01:00004860 ?hasAlpha@string@@SAXPB_W@Z  (Idle)
01:00004888 ?isWhiteSpace@string@@SAXPB_W@Z  (Idle)
01:00004890 ?_split_delimiter@string@@SAXPB_W0PAPAU?$__packedList_struct@U1@@@@Z  (Idle)
01:000048BC ?_splitByString@string@@SAXPB_W0PBUcharCount@@PAPAU?$__packedList_struct@U1@@@@Z 
01:00004960 ?_split_length@string@@SAXPB_WPAU?$__packedList_struct@UcharCount@@@@PAPAU?$__packedList_struct@U1@@@@Z  (Idle)
--- From 'Obj\registry.88C8A89A.obj'
01:000049F4 ?_trim@string@@SAXPB_WPAPB_W@Z 
--- From 'Obj\string.B0A67F43.obj'
01:00004A18 ?_charToString@string@@SAX_WPAPB_W@Z  (Idle)
01:00004A44 ?_charUpper@string@@SAX_WPA_W@Z  (Idle)
01:00004A60 ?_charLower@string@@SAX_WPA_W@Z  (Idle)
--- From 'Obj\reflection.0F000252.obj'
01:00004A7C ?splitStringBySeparators@string@@SAXPB_W0PAPB_WPA_W2@Z 
--- From 'Obj\string.B0A67F43.obj'
01:00004ADC ?_getMinPosition@string@@SAXPB_W0PBUcharCount@@AAU2@@Z 
01:00004B4C ?isName@string@@SAXPB_W@Z  (Idle)
01:00004BA0 ?isLegalFrontCharOfName@string@@SAX_W@Z 
01:00004BCC ?isCorrectRemainderOfName@string@@SAXPB_W@Z 
01:00004C1C ?isCorrectRemainderCharOfName@string@@SAX_W@Z 
01:00004C6C ?isClassIdentifier@string@@SAXPB_W0@Z  (Idle)
01:00004CD8 ?isObjectIdentifier@string@@SAXPB_W0@Z  (Idle)
01:00004D54 ?isCorrectMemberName@string@@SAXPB_W@Z 
01:00004DE8 ?keywordString@string@@SAXPB_WPAPAUboolean_struct@_builtIn@@@Z 
01:0000569C ?isCorrectClassFrontChar@string@@SAX_W@Z 
--- From 'Obj\filesystem.57D9C483.obj'
01:000056D0 ?_searchChar@string@@SAXPB_W_WAAUcharCount@@@Z 
01:000056F4 ?_searchChar@string@@SAXPB_W_WPAUcaseSensitivity_struct@1@AAUcharCount@@@Z 
01:00005780 ?_subChar@string@@SAXPB_WPBUcharCount@@PA_W@Z 
--- From 'Obj\string.B0A67F43.obj'
01:000057B8 ?_trySubchar@string@@SAXPB_WPBUcharCount@@PA_W@Z  (Idle)
01:000057EC ?_getCharValue@string@@SAX_WAAUunsigned16@@@Z  (Idle)
--- From 'Obj\string8.302F7782.obj'
01:00005800 ?_getCharFromValue@string@@SAXPBUunsigned16@@PA_W@Z 
--- From 'Obj\string.B0A67F43.obj'
01:00005814 ?listToArray@string@@SAXPAU?$__packedList_struct@U1@@@PAPAXPAI@Z  (Idle)
01:00005870 ?_arrayToList@string@@SAXPAXIPAPAU?$__packedList_struct@U1@@@@Z  (Idle)
01:0000587C ?fillArray@string@@SAXPAXPAU?$__packedList_struct@U1@@@@Z 
01:000058E0 ?_fillList@string@@SAXPBUunsignedNative@@IPAPAU?$__packedList_struct@U1@@@@Z 
01:00005940 ?_createFromCharList@string@@SAXPAU?$__packedList_struct@Uchar@@@@PAPB_W@Z  (Idle)
01:00005988 ?fillString@string@@SAXPAXPAU?$__packedList_struct@Uchar@@@@@Z 
01:000059E8 isWhiteSpace_C 
01:00005A28 isWhiteSpace_S 
01:00005A7C ?getMetricPrefix@string@@SAXPANPAPANPAPB_W@Z  (Idle)
01:00005BF8 ?_toMetricPrefixForm@string@@SAXPBUpositive@@PANPAPB_W@Z  (Idle)
01:00005CB8 ?getBinaryPrefix@string@@SAXPANPAPANPAPB_W@Z  (Idle)
01:00005DA4 ?_toBinaryPrefixForm@string@@SAXPBUpositive@@PANPAPB_W@Z  (Idle)
01:00005E64 ?isWhiteSpace@string@@SAX_W@Z  (Idle)
01:00005E6C ?keywordString@string@@SAXPB_WPAUboolean_struct@_builtIn@@@Z  (Idle)
01:000067F4 ?keywordString@string@@SAXPAPB_WPAPAUboolean_struct@_builtIn@@@Z  (Idle)
01:00006F2C ?new@outputStream_string@@SAXQAV1@@@Z  (Idle)
01:0000700C ?setMode@outputStream_string@@SGXQAVstream@@@PAUmode_struct@2@@Z 
01:00007054 ?flush@outputStream_string@@SAXQAVoutputStream@@@@Z 
01:0000705C ?resetString@outputStream_string@@SAXQAV1@@@Z 
01:00007130 ?close@outputStream_string@@SGXQAVstream@@@@Z 
01:00007148 ?bufferFullCallBack@outputStream_string@@SAXQAV1@@PAPB_WAAUbyteCount@@@Z  (Idle)
01:000071C4 ?get_buffer_from_db@outputStream_string@@SAXQAV1@@IPAPB_WAAUbyteCount@@@Z 
01:0000722C ?_getStringLength@outputStream_string@@SAXQAV1@@AAUcharCount@core@@@Z 
01:000072D0 ?_getString@outputStream_string@@SAXQAV1@@PAPB_W@Z 
01:00007400 ?writeBuffersToString@outputStream_string@@SAXQAV1@@PAX@Z 
01:00007490 ?getPosition@outputStream_string@@SGPBUfileSize@fileSystem_api@@QAVstream@@@@Z 
01:00007530 ?setPosition@outputStream_string@@SGXQAVstream@@@PBUfileSize@fileSystem_api@@@Z 
01:000075A0 ?checkOddness@outputStream_string@@SAXPAUmode_struct@stream@@PBUbyteCount@@@Z 
01:00007608 ?handleSetOffset@outputStream_string@@SAXQAV1@@PBUbyteCount@@@Z 
01:00007690 ?updateCurrentBuffer@outputStream_string@@SAXQAV1@@@Z 
01:000077FC ?findBufferForOffset@outputStream_string@@SAXQAV1@@PBUbyteCount@@PAIPAPB_WAAU3@4@Z 
01:00007888 ?handleBiggerOffset@outputStream_string@@SAXQAV1@@PBUbyteCount@@@Z 
01:00007A40 ?_newBuffer@outputStream_string@@SAXQAV1@@PBUbyteCount@@PAPB_W@Z 
01:00007AD8 ?_getSizeBefore@outputStream_string@@SAXQAV1@@AAUbyteCount@@@Z 
01:00007B68 ?bufferNotFound_exception@outputStream_string@@SAXI@Z 
01:00007BA8 ?checkUsePrevBuff@outputStream_string@@SAXQAV1@@@Z  (Idle)
01:00007C04 ?getBuffer@outputStream_string@@SGXQAVbufferSupport@@@PAPAXAAUbyteCount@@@Z 
01:00007CB0 ?getBufferLocked@outputStream_string@@SGXQAVbufferSupport@@@PAPAXAAUbyteCount@@@Z 
01:00007CCC ?addContentsChangedListener@outputStream_string@@SAXQAV1@@X@Z 
01:00007D54 ?removeContentsChangedListener@outputStream_string@@SAXQAV1@@X@Z 
01:00007E08 ?onWrite@outputStream_string@@SAXQAV1@@QAVoutputSupport@@@@Z 
--- From 'Obj\exception.544F7452.obj'
01:00007E88 ?_getString@outputStream_string@@SAXXPAPB_W@Z 
--- From 'Obj\string.B0A67F43.obj'
01:00007EDC ?anonymous$c0$1$getstring/2nf$outputStream_string@1@SAXPAUanonymous$c0$1$getstring/2nf$outputStream_stringc_struct@1@QAVoutputStream@@@@Z 
--- From 'Obj\exceptiondump.174B23B9.obj'
01:00007F10 ?_getString@outputStream_string@@SAXQAVrTypeLibrary@TypeLibraries@RunTime@VIP@@XPAXPAPB_W@Z 
--- From 'Obj\string.B0A67F43.obj'
01:00007F58 ?anonymous$c0$1$getstring/3nf$outputStream_string@1@SAXPAUanonymous$c0$1$getstring/3nf$outputStream_stringc_struct@1@QAVoutputStream@@@@Z 
01:00007F94 ?_getString@outputStream_string@@SAXQAVrTypeLibrary@TypeLibraries@RunTime@VIP@@0XPAXPAXPAPB_W@Z  (Idle)
01:00007FE8 ?anonymous$c0$1$getstring/4nf$outputStream_string@1@SAXPAUanonymous$c0$1$getstring/4nf$outputStream_stringc_struct@1@QAVoutputStream@@@@Z 
01:0000802C ?_getString@outputStream_string@@SAXQAVrTypeLibrary@TypeLibraries@RunTime@VIP@@00XPAXPAXPAXPAPB_W@Z  (Idle)
01:0000808C ?anonymous$c0$1$getstring/5nf$outputStream_string@1@SAXPAUanonymous$c0$1$getstring/5nf$outputStream_stringc_struct@1@QAVoutputStream@@@@Z 
01:000080DC ?_getString@outputStream_string@@SAXQAVrTypeLibrary@TypeLibraries@RunTime@VIP@@000XPAXPAXPAXPAXPAPB_W@Z  (Idle)
01:00008148 ?_new@outputStream_string@@SAXPAPAV1@@@Z 
01:00008170 ?_object_facts_initializer@outputStream_string@@SGXQAV1@@@Z 
01:00008190 ?new@inputStream_string@@SAXQAV1@@PB_W@Z  (Idle)
01:000081E4 ?setMode@inputStream_string@@SGXQAVstream@@@PAUmode_struct@2@@Z 
01:0000822C ?close@inputStream_string@@SGXQAVstream@@@@Z 
01:00008244 ?getCRLFconversion@inputStream_string@@SGPAUboolean_struct@_builtIn@@QAVstream@@@@Z 
01:0000825C ?setCRLFconversion@inputStream_string@@SGXQAVstream@@@PAUboolean_struct@_builtIn@@@Z 
01:00008284 ?getPosition@inputStream_string@@SGPBUfileSize@fileSystem_api@@QAVstream@@@@Z 
01:000082A8 ?setPosition@inputStream_string@@SGXQAVstream@@@PBUfileSize@fileSystem_api@@@Z 
01:00008320 ?checkOddness@inputStream_string@@SAXPAUmode_struct@stream@@PBUbyteCount@core@@@Z 
01:00008388 ?getBuffer@inputStream_string@@SGXQAVbufferSupport@@@PAPAXAAUbyteCount@@@Z 
01:000083A4 ?getBufferLocked@inputStream_string@@SGXQAVbufferSupport@@@PAPAXAAUbyteCount@@@Z 
01:000083C0 ?_new@inputStream_string@@SAXPB_WPAPAVinputStream@@@@Z  (Idle)
01:000083E8 ?_object_facts_initializer@inputStream_string@@SGXQAV1@@@Z 
01:0000861C outputStream_string?_initObject@@@QAGXQAV1@H@Z 
01:00008654 ?@create_object@outputStream_string@@SGQAV1@@XZ 
01:00008670 outputStream_string?_InternalFinalizer@@@QAGXQAV1@@Z 
01:0000890C inputStream_string?_initObject@@@QAGXQAV1@H@Z 
01:00008940 ?@create_object@inputStream_string@@SGQAV1@@XZ 
01:0000895C inputStream_string?_InternalFinalizer@@@QAGXQAV1@@Z 
--- From 'Obj\string8.302F7782.obj'
01:00008970 ?isValidCodePage@string8@@SAXPBUcodePage@@@Z  (Idle)
01:0000898C ?isValidToRead@string8@@SAXPAD@Z  (Idle)
01:000089AC ?_fromUtf8@string8@@SAXPADPAPB_W@Z  (Idle)
01:000089C8 ?_fromUtf8@string8@@SAXPADPBUbyteCountOptional@@PAPB_W@Z  (Idle)
01:000089F0 ?_toUtf8@string8@@SAXPB_WPAPAD@Z  (Idle)
--- From 'Obj\multithread_api.6DC4E6F9.obj'
01:00008A0C ?_mapFromString@string8@@SAXPB_WPAPAD@Z 
--- From 'Obj\string8.302F7782.obj'
01:00008A28 ?_mapFromString@string8@@SAXPB_WPBUcodePage@@PAPAD@Z 
01:00008A94 ?_mapToString@string8@@SAXPADPAPB_W@Z  (Idle)
--- From 'Obj\binary.9C7C16C6.obj'
01:00008AB0 ?_mapToString@string8@@SAXPADPBUcodePage@@PAPB_W@Z 
--- From 'Obj\string8.302F7782.obj'
01:00008ACC ?_mapToString@string8@@SAXPADPBUcodePage@@PBUbyteCountOptional@@PAPB_W@Z 
01:00008BC4 ?_mapFromChar@string8@@SAX_WAAUchar8@@@Z  (Idle)
01:00008BE0 ?_mapFromChar@string8@@SAX_WPBUcodePage@@AAUchar8@@@Z 
01:00008C58 ?_mapToChar@string8@@SAXPBUchar8@@PA_W@Z  (Idle)
01:00008C74 ?_mapToChar@string8@@SAXPBUchar8@@PBUcodePage@@PA_W@Z 
--- From 'Obj\memory_api.072B3D5C.obj'
01:00008CF0 ?_createCopy@string8@@SAXPADPAPAD@Z 
--- From 'Obj\string8.302F7782.obj'
01:00008D50 ?_createCopy@string8@@SAXPADPBUbyteCount@@PAPAD@Z 
01:00008DA0 ?_tryFrontChar@string8@@SAXPADPAPADPA_W@Z  (Idle)
01:00008DBC ?_tryFrontChar@string8@@SAXPADPAPADPBUcodePage@@PA_W@Z 
01:00008E90 ?_tryFrontChar_utf8@string8@@SAXPADPAPADPA_W@Z 
01:00008EEC ?_tryFrontChar_utf82@string8@@SAXPBUchar8@@PADPAPADPAI@Z 
01:000091CC ?_tryGetIntermediateUtf8@string8@@SAXIPADPAPADPAI@Z 
01:00009274 ?_tryGetFirstByte@string8@@SAXPADPAPADAAUchar8@@@Z 
--- From 'Obj\vpidomains.CE78C30C.obj'
01:000092A0 ?_toFont_logfont@vpiDomains@@SAXPAUlogfont_struct@gui_native@@AAU4@@Z  (Idle)
01:00009348 ?_fromFont_logfont@vpiDomains@@SAXPBU2@PAPAUlogfont_struct@gui_native@@@Z  (Idle)
--- From 'Obj\console.043C10C8.obj'
01:00009360 ?_getStdHandle@console_api@@SAXIAAUfileHandle@@@Z 
--- From 'Obj\console_api.885E7959.obj'
01:000093A4 ?setStdHandle@console_api@@SAXIPBUfileHandle@@@Z  (Idle)
01:000093E4 ?addConsoleCtrlHandler@console_api@@SAXX@Z  (Idle)
01:00009424 ?removeConsoleCtrlHandler@console_api@@SAXX@Z  (Idle)
--- From 'Obj\console.043C10C8.obj'
01:00009464 ?setConsoleCP@console_api@@SAXPBUcodePage@@@Z 
01:000094A0 ?setConsoleOutputCP@console_api@@SAXPBUcodePage@@@Z 
--- From 'Obj\exe.3A8A8F5C.obj'
01:000094E0 ?hInstance@exe_api@@SGPBUhModule@@XZ 
--- From 'Obj\exe_api.A0303A40.obj'
01:0000950C ?hInstanceExe@exe_api@@SGPBUhModule@@XZ 
--- From 'Obj\exe.3A8A8F5C.obj'
01:00009524 ?_getModuleNameByAddress@exe_api@@SAXPBUhModule@core@@PAPB_W@Z 
--- From 'Obj\exe_api.A0303A40.obj'
01:000095E0 ?_isOSConsoleApplication@exe_api@@SAXPB_WPAPAUboolean_struct@_builtIn@@@Z  (Idle)
--- From 'Obj\exe.3A8A8F5C.obj'
01:000097B0 ?run@exe_api@@SAXXPAUrunMode_struct@1@@Z 
--- From 'Obj\exe_api.A0303A40.obj'
01:00009928 ?coInitialize@exe_api@@SAXPAU?$__packedList_struct@UcoInit@@@@@Z  (Idle)
01:000099C8 ?coUninitialize@exe_api@@SAXXZ  (Idle)
01:000099D4 ?_toCoInitFlag@exe_api@@SAXPAU?$__packedList_struct@UcoInit@@@@PAI@Z 
01:00009A30 ?_coInitMap@exe_api@@SAXPAUcoInit_struct@1@PAI@Z 
--- From 'Obj\filesystem_api.1C9354BA.obj'
01:00009A70 _GetFileInformationByHandleEx@16  (Idle)
--- From 'Obj\filesystem.57D9C483.obj'
01:00009A94 _GetFinalPathNameByHandleW@16 
--- From 'Obj\filesystem_api.1C9354BA.obj'
01:00009AB8 ?fileAttributeCorrespondence@fileSystem_api@@SAXPAUfileAttributeAtom_struct@1@PAI@Z  (Idle)
--- From 'Obj\filesystem.57D9C483.obj'
01:00009B38 ?_toApiAttributes@fileSystem_api@@SAXPAU?$__packedList_struct@UfileAttributeAtom@@@@PAI@Z 
--- From 'Obj\filesystem_api.1C9354BA.obj'
01:00009B54 ?_toApiAttributes@fileSystem_api@@SAXPAU?$__packedList_struct@UfileAttributeAtom@@@@IPAI@Z 
--- From 'Obj\filesystem.57D9C483.obj'
01:00009BB0 ?_fromApiAttributes@fileSystem_api@@SAXIPAPAU?$__packedList_struct@UfileAttributeAtom@@@@@Z 
--- From 'Obj\filesystem_api.1C9354BA.obj'
01:00009C14 ?_convertToFileAttribute_nd@fileSystem_api@@SAXIPAPAUfileAttributeAtom_struct@1@@Z 
--- From 'Obj\filesystem.57D9C483.obj'
01:00009C54 ?_createFile@fileSystem_api@@SAXPB_WIPAUaccessPermit_struct@1@IPAU?$__packedList_struct@UfileAttributeAtom@@@@AAUfileHandle@@@Z 
--- From 'Obj\filesystem_api.1C9354BA.obj'
01:00009C94 ?_toShareModeAPI@fileSystem_api@@SAXPAUaccessPermit_struct@1@PAI@Z 
01:00009CD0 ?_createFile_flag@fileSystem_api@@SAXPB_WIIIIAAUfileHandle@@@Z 
--- From 'Obj\filesystem.57D9C483.obj'
01:00009D1C ?_getFileSize@fileSystem_api@@SAXPBUfileHandle@@PAAAUfileSize@@@Z 
01:00009D74 ?_setFilePointer@fileSystem_api@@SAXPBUfileHandle@@PA_JIPAAAUfileSize@@@Z 
01:00009DEC ?getVolumeInformation@fileSystem_api@@SAXPB_WPAPB_WPAI1@Z 
01:00009EC0 ?raise_cannotCreate_explicit@fileSystem_api@@SAXPAUprogramPoint_struct@core@@PB_WPBUhResult@@@Z 
--- From 'Obj\filesystem_api.1C9354BA.obj'
01:0000A094 ?raise_cannotGetFileSize_explicit@fileSystem_api@@SAXPAUprogramPoint_struct@core@@PBUfileHandle@@PBUhResult@@@Z 
01:0000A1C0 ?raise_cannotSetFilePointer_explicit@fileSystem_api@@SAXPAUprogramPoint_struct@core@@PBUfileHandle@@PA_JIPBUhResult@@@Z 
--- From 'Obj\filesystem.57D9C483.obj'
01:0000A38C ?crlf_lf@fileSystem_api@@SAXPAXHPAUboolean_struct@_builtIn@@PAPAXAAUbyteCount@@PAPAU?$__packedList_struct@U4@@@PAPAU23@@Z 
--- From 'Obj\filesystem_api.1C9354BA.obj'
01:0000A410 ?prepareSearch@fileSystem_api@@SAXPAXHAAUbyteCount@@PAPAUboolean_struct@_builtIn@@@Z 
01:0000A494 ?searchCRLF@fileSystem_api@@SAXPAXPBUbyteCount@@1AAU2@PAPAU?$__packedList_struct@U2@@@3@Z 
01:0000A57C ?_tryGetPositionOfCRLF@fileSystem_api@@SAXPAXHPBUbyteCount@@AAU2@@Z 
01:0000A5F8 ?_convertCRLF_IfNeeded@fileSystem_api@@SAXPAUboolean_struct@_builtIn@@PAXPBUbyteCount@@PAU?$__packedList_struct@U4@@@2PAPAX@Z 
01:0000A74C ?checkFirstPos@fileSystem_api@@SAXPBUbyteCount@@PAU?$__packedList_struct@U2@@@PAXPAPAX3PAPAU?$__packedList_struct@U2@@@@Z 
01:0000A7BC ?_mem_move@fileSystem_api@@SAXPAXPAXPBUbyteCount@@PAPAX@Z 
01:0000A7E4 ?_mem_copy@fileSystem_api@@SAXPAXPAXPBUbyteCount@@PAPAX@Z 
01:0000A80C ?convertCRLF_LF@fileSystem_api@@SAXXPAXPAXPBUbyteCount@@PAU?$__packedList_struct@U2@@@@Z 
--- From 'Obj\filesystem.57D9C483.obj'
01:0000A8A4 ?crlf_lf@fileSystem_api@@SAXPB_W@Z 
--- From 'Obj\filesystem_api.1C9354BA.obj'
01:0000A8B8 ?do_CRLF_LF@fileSystem_api@@SAXPB_W0@Z 
--- From 'Obj\filesystem.57D9C483.obj'
01:0000A94C ?lf_crlf@fileSystem_api@@SAXPAXPBUbyteCountOptional@@PAPAXAAUbyteCount@@@Z 
--- From 'Obj\filesystem_api.1C9354BA.obj'
01:0000A9C0 ?_getSize@fileSystem_api@@SAXPB_WPBUbyteCountOptional@@AAUbyteCount@@@Z 
01:0000AA00 ?searchLineFeeds@fileSystem_api@@SAXPAXPBUbyteCount@@1AAU2@PAPAU?$__packedList_struct@U2@@@3@Z 
01:0000AAC0 ?_convertToCRLF_IfNeeded@fileSystem_api@@SAXPAXPBUbyteCount@@PAU?$__packedList_struct@U2@@@1PAPAX@Z 
01:0000AB24 ?convertToCRLF@fileSystem_api@@SAXPAXPAXPBUbyteCount@@PAU?$__packedList_struct@U2@@@@Z 
--- From 'Obj\filesystem.57D9C483.obj'
01:0000ABC4 ?removeDirectory@fileSystem_api@@SAXPB_W@Z 
01:0000AC60 ?createDirectory@fileSystem_api@@SAXPB_WPAUsecurity_Attributes_struct@windowsAPI@@@Z 
01:0000AD00 ?moveFile@fileSystem_api@@SAXPB_W0@Z 
01:0000ADF4 ?setVolumeLabel@fileSystem_api@@SAXPB_W0@Z 
01:0000AEE8 ?getDiskFreeSpaceEx@fileSystem_api@@SAXPB_WPAAAUfileSize@@11@Z 
--- From 'Obj\filesystem_api.1C9354BA.obj'
01:0000AFE0 ?_anonymous$c0$1$getcurrentdirectory/0nf$fileSystem_api@1@SAXPB_WPBUcharCount@@AAU2@@Z 
--- From 'Obj\filesystem.57D9C483.obj'
01:0000AFF8 ?_getCurrentDirectory@fileSystem_api@@SAXPAPB_W@Z 
01:0000B030 ?setCurrentDirectory@fileSystem_api@@SAXPB_W@Z 
--- From 'Obj\filesystem_api.1C9354BA.obj'
01:0000B13C ?_anonymous$c0$1$getshortpathname/1nf$fileSystem_api@1@SAXPAUanonymous$c0$1$getshortpathname/1nf$fileSystem_apic_struct@1@PB_WPBUcharCount@@AAU4@@Z 
--- From 'Obj\filesystem.57D9C483.obj'
01:0000B160 ?_getShortPathName@fileSystem_api@@SAXPB_WPAPB_W@Z 
--- From 'Obj\filesystem_api.1C9354BA.obj'
01:0000B20C ?_anonymous$c0$1$getlongpathname/1nf$fileSystem_api@1@SAXPAUanonymous$c0$1$getlongpathname/1nf$fileSystem_apic_struct@1@PB_WPBUcharCount@@AAU4@@Z 
--- From 'Obj\filesystem.57D9C483.obj'
01:0000B230 ?_getLongPathName@fileSystem_api@@SAXPB_WPAPB_W@Z 
01:0000B2DC ?_getFileAttributesEx@fileSystem_api@@SAXPB_WPAPAUfileAttributesInfo_struct@fileSystem_native@@@Z 
--- From 'Obj\filesystem_api.1C9354BA.obj'
01:0000B3F0 ?_anonymous$c0$1$gettemppath/0nf$fileSystem_api@1@SAXPB_WPBUcharCount@@AAU2@@Z 
--- From 'Obj\filesystem.57D9C483.obj'
01:0000B408 ?_getTempPath@fileSystem_api@@SAXPAPB_W@Z 
01:0000B440 ?findClose@fileSystem_api@@SAXPBUsearchHandle@fileSystem_native@@@Z 
--- From 'Obj\filesystem_api.1C9354BA.obj'
01:0000B488 ?raise_nativeCallException_explicit@fileSystem_api@@SAXPAUprogramPoint_struct@core@@PBUhResult@@PAU?$__packedList_struct@UnamedValue@@@@@Z 
01:0000B4B4 ?_firstSizeThenOperation@fileSystem_api@@SAXPB_WPAU?$__packedList_struct@UnamedValue@@@@XPAPB_W@Z 
--- From 'Obj\filesystem.57D9C483.obj'
01:0000B568 ?readFile@fileSystem_api@@SAXPBUfileHandle@@PAXPBUbyteCount@@AAU3@@Z 
01:0000B57C ?readFile@fileSystem_api@@SAXPBUfileHandle@@PAXPBUbyteCount@@AAU3@PBUhResult@@@Z 
--- From 'Obj\filesystem_api.1C9354BA.obj'
01:0000B5CC ?readFile_pipe@fileSystem_api@@SAXPBUfileHandle@@PAXPBUbyteCount@@AAU3@@Z  (Idle)
01:0000B5E0 ?readFile_overlapped@fileSystem_api@@SAXPBUfileHandle@@PAXPBUbyteCount@@PAUoverlapped_struct@fileSystem_native@@@Z  (Idle)
01:0000B5F4 ?readFile_overlapped@fileSystem_api@@SAXPBUfileHandle@@PAXPBUbyteCount@@PAUoverlapped_struct@fileSystem_native@@PBUhResult@@@Z 
--- From 'Obj\filesystem.57D9C483.obj'
01:0000B64C ?writeFile@fileSystem_api@@SAXPBUfileHandle@@PAXPBUbyteCount@@AAU3@@Z 
--- From 'Obj\filesystem_api.1C9354BA.obj'
01:0000B694 ?writeFile_overlapped@fileSystem_api@@SAXPBUfileHandle@@PAXPBUbyteCount@@PAUoverlapped_struct@fileSystem_native@@@Z  (Idle)
01:0000B6A8 ?writeFile_overlapped@fileSystem_api@@SAXPBUfileHandle@@PAXPBUbyteCount@@PAUoverlapped_struct@fileSystem_native@@PBUhResult@@@Z 
--- From 'Obj\filesystem.57D9C483.obj'
01:0000B700 ?closeHandle@fileSystem_api@@SAXPBUhandle@@@Z 
--- From 'Obj\filesystem_api.1C9354BA.obj'
01:0000B73C ?closeHandle_robust@fileSystem_api@@SAXPBUhandle@@@Z  (Idle)
--- From 'Obj\filesystem.57D9C483.obj'
01:0000B74C ?flushFileBuffers@fileSystem_api@@SAXPBUfileHandle@@@Z 
--- From 'Obj\multithread_api.6DC4E6F9.obj'
01:0000B788 ?_duplicateHandle@fileSystem_api@@SAXPBUprocessHandle@windowsAPI@@PBUhandle@@0IHIAAU4@@Z 
--- From 'Obj\filesystem_api.1C9354BA.obj'
01:0000B7D8 ?tryGetOverlappedResult_wait@fileSystem_api@@SAXPBUfileHandle@@PAUoverlapped_struct@fileSystem_native@@AAUbyteCount@@@Z  (Idle)
01:0000B7F8 ?tryGetOverlappedResult_noWait@fileSystem_api@@SAXPBUfileHandle@@PAUoverlapped_struct@fileSystem_native@@AAUbyteCount@@@Z  (Idle)
01:0000B814 ?getOverlappedResult2@fileSystem_api@@SAXPBUfileHandle@@PAUoverlapped_struct@fileSystem_native@@AAUbyteCount@@PBUbooleanInt@@PBUhResult@@@Z 
01:0000B864 ?_createIoCompletionPort@fileSystem_api@@SAXIAAUioCompletionPort@@@Z  (Idle)
01:0000B894 ?_createIoCompletionPort@fileSystem_api@@SAXIPBUhandle@@PAXAAUioCompletionPort@@@Z  (Idle)
01:0000B8CC ?attachIoCompletionPort@fileSystem_api@@SAXPBUioCompletionPort@@PBUhandle@@PAX@Z  (Idle)
01:0000B8F0 ?_createIoCompletionPort2@fileSystem_api@@SAXPBUhandle@@PBUioCompletionPort@@PAXIAAU3@@Z 
01:0000B970 ?tryGetQueuedCompletionStatus@fileSystem_api@@SAXPBUioCompletionPort@@AAUbyteCount@@PAPAXPAPAUoverlapped_struct@fileSystem_native@@I@Z  (Idle)
01:0000B9D4 ?getQueuedCompletionStatus@fileSystem_api@@SAXPBUioCompletionPort@@AAUbyteCount@@PAPAXPAPAUoverlapped_struct@fileSystem_native@@@Z  (Idle)
01:0000BA38 ?checkQueuedCompletionStatusException_explicit@fileSystem_api@@SAXPAUprogramPoint_struct@core@@PBUhResult@@PBUbyteCount@@PAXPAUoverlapped_struct@fileSystem_native@@@Z 
01:0000BBC0 ?_tryGetQueuedCompletionStatus_hResult@fileSystem_api@@SAXPBUioCompletionPort@@AAUbyteCount@@PAPAXPAPAUoverlapped_struct@fileSystem_native@@IAAU6@@Z 
01:0000BBFC ?_getQueuedCompletionStatus_hResult@fileSystem_api@@SAXPBUioCompletionPort@@AAUbyteCount@@PAPAXPAPAUoverlapped_struct@fileSystem_native@@AAU6@@Z 
01:0000BC4C ?_getQueuedCompletionStatus_hResult2_explicit@fileSystem_api@@SAXPAUprogramPoint_struct@core@@PBUioCompletionPort@@AAUbyteCount@@PAPAXPAPAUoverlapped_struct@fileSystem_native@@IAAUhResult@@@Z 
01:0000BCE8 ?getQueuedCompletionStatusException_explicit@fileSystem_api@@SAXPAUprogramPoint_struct@core@@PBUhResult@@PAU?$__packedList_struct@UnamedValue@@@@@Z 
01:0000BD08 ?postQueuedCompletionStatus@fileSystem_api@@SAXPBUioCompletionPort@@PAUoverlapped_struct@fileSystem_native@@@Z  (Idle)
01:0000BD20 ?postQueuedCompletionStatus@fileSystem_api@@SAXPBUioCompletionPort@@PAUoverlapped_struct@fileSystem_native@@PBUbyteCount@@@Z  (Idle)
01:0000BD34 ?postQueuedCompletionStatus@fileSystem_api@@SAXPBUioCompletionPort@@PAUoverlapped_struct@fileSystem_native@@PBUbyteCount@@PAX@Z 
01:0000BD78 ?readDirectoryChanges@fileSystem_api@@SAXPBUfileHandle@@PAXPBUbyteCount@@PAUboolean_struct@_builtIn@@IAAU3@@Z  (Idle)
01:0000BD90 ?readDirectoryChanges_overlapped@fileSystem_api@@SAXPBUfileHandle@@PAXPBUbyteCount@@PAUboolean_struct@_builtIn@@IPAUoverlapped_struct@fileSystem_native@@@Z  (Idle)
01:0000BDBC ?readDirectoryChanges_overlapped@fileSystem_api@@SAXPBUfileHandle@@PAXPBUbyteCount@@PAUboolean_struct@_builtIn@@IPAUoverlapped_struct@fileSystem_native@@X@Z  (Idle)
01:0000BDEC ?readDirectoryChanges2@fileSystem_api@@SAXPBUfileHandle@@PAXPBUbyteCount@@PAUboolean_struct@_builtIn@@IAAU3@PAUoverlapped_struct@fileSystem_native@@X@Z 
01:0000BE50 ?cancelIo@fileSystem_api@@SAXPBUfileHandle@@@Z  (Idle)
01:0000BE8C ?_readFile_overlapped@fileSystem_api@@SAXPBUfileHandle@@PAXPBUbyteCount@@PAUoverlapped_struct@fileSystem_native@@PAPAUboolean_struct@_builtIn@@@Z  (Idle)
01:0000BEA4 ?_writeFile_overlapped@fileSystem_api@@SAXPBUfileHandle@@PAXPBUbyteCount@@PAUoverlapped_struct@fileSystem_native@@PAPAUboolean_struct@_builtIn@@@Z  (Idle)
01:0000BEBC ?fileAttributeCorrespondence@fileSystem_api@@SAXPAPAUfileAttributeAtom_struct@1@I@Z  (Idle)
01:0000BF98 ?fileAttributeCorrespondence@fileSystem_api@@SAXPAPAUfileAttributeAtom_struct@1@PAI@Z 
01:0000C0C4 ?fileAttributeCorrespondence@fileSystem_api@@SAXPAUfileAttributeAtom_struct@1@I@Z  (Idle)
--- From 'Obj\gui_api.5B4BA4CC.obj'
01:0000C180 ?_createDialog@gui_native@@SAXPBUhModule@@HPBUhwnd@@XAAU3@@Z  (Idle)
01:0000C1A0 ?_createDialogIndirect@gui_native@@SAXPBUhModule@@PAUdlgTemplate_struct@1@PBUhwnd@@XAAU5@@Z  (Idle)
01:0000C1C0 ?_createDialog@gui_native@@SAXPBUhModule@@PB_WPBUhwnd@@XAAU3@@Z  (Idle)
01:0000C1E0 ?_createDialogIndirect@gui_native@@SAXPBUhModule@@PAUdlgTemplateEx_struct@1@PBUhwnd@@XAAU5@@Z  (Idle)
01:0000C200 _AddClipboardFormatListener@4  (Idle)
01:0000C224 _MenuItemFromPoint@16  (Idle)
01:0000C248 ?setScrollRange@gui_api@@SAXPBUhwnd@@HHHPAUboolean_struct@_builtIn@@@Z  (Idle)
01:0000C2A4 ?getScrollRange@gui_api@@SAXPBUhwnd@@HPAHPAH@Z  (Idle)
01:0000C2E8 ?_getScrollInfo@gui_api@@SAXPBUhwnd@@HIPAPAUscrollInfo_struct@1@@Z  (Idle)
01:0000C3B0 ?_setScrollInfo@gui_api@@SAXPBUhwnd@@HPAUscrollInfo_struct@1@PAUboolean_struct@_builtIn@@IPAH@Z  (Idle)
01:0000C438 ?_scrollWindowEx@gui_api@@SAXPBUhwnd@@HHPAUrct_struct@vpiDomains@@3PBUhRgn@@PAPAU34@IPAH@Z  (Idle)
01:0000C4AC ?_scrollWindowEx@gui_api@@SAXPBUhwnd@@HHPAUrct_struct@vpiDomains@@3PBUhRgn@@IPAH@Z  (Idle)
01:0000C500 ?_getUpdateRgn@gui_api@@SAXPBUhwnd@@PBUhRgn@@PAUboolean_struct@_builtIn@@PAH@Z  (Idle)
01:0000C55C ?_tryGetUpdateRect@gui_api@@SAXPBUhwnd@@PAUboolean_struct@_builtIn@@PAPAUrct_struct@vpiDomains@@@Z  (Idle)
01:0000C5AC ?_makePoints@gui_api@@SAXPBUlParam@gui_native@@PAPAUpnt_struct@vpiDomains@@@Z  (Idle)
01:0000C604 ?getInteger16@gui_api@@SAXPBUunsignedNative@@AAUinteger16@@1@Z  (Idle)
01:0000C63C ?getUnsigned16@gui_api@@SAXPBUunsignedNative@@AAUunsigned16@@1@Z 
01:0000C678 ?_makeLParam@gui_api@@SAXPAUpnt_struct@vpiDomains@@AAUlParam@gui_native@@@Z  (Idle)
01:0000C6F8 ?_getWindowPlacement@gui_api@@SAXPBUhwnd@@PAPAUwindowPlacement_struct@1@@Z  (Idle)
01:0000C7C4 ?setWindowPlacement@gui_api@@SAXPBUhwnd@@PAUwindowPlacement_struct@1@@Z  (Idle)
01:0000C878 ?_getTextExtentPoint32@gui_api@@SAXPBUhDC@@PB_WPAPAUsize_struct@gui_native@@@Z  (Idle)
01:0000C8AC ?_getTextExtentPoint32@gui_api@@SAXPBUhDC@@PB_WPBUcharCount@@PAPAUsize_struct@gui_native@@@Z 
01:0000C918 ?_getTextMetrics@gui_api@@SAXPBUhDC@@PAPAUtextmetric_struct@gui_native@@@Z  (Idle)
01:0000C970 ?_registerClassEx@gui_api@@SAXIXHHPBUhModule@@PBUhIcon@@PBUhCursor@@PBUhBrush@@PB_W85AAUatom@@@Z  (Idle)
01:0000CA64 ?_createWindowEx@gui_api@@SAXIPB_W1IHHHHPBUhwnd@@PBUhMenu@@PBUhModule@@PAXAAU2@@Z  (Idle)
01:0000CB20 ?_mkDlgTemplate@gui_api@@SAXPAUdlgTemplate_struct@1@PAPAU2gui_native@@@Z  (Idle)
01:0000D2C0 ?writeVarArray@gui_api@@SAXQAVoutputStream@@@PAUvarArray_struct@1@@Z 
01:0000D3EC ?align32@gui_api@@SAXQAVoutputStream@@@@Z 
01:0000D4B0 ?_createDialogIndirectParam@gui_api@@SAXPBUhModule@@PAUdlgTemplate_struct@1@PBUhwnd@@XPBUlParam@@AAU5@@Z  (Idle)
01:0000D510 ?_beginPaint@gui_api@@SAXPBUhwnd@@PAPAUpaintStruct_struct@gui_native@@AAUhDC@@@Z  (Idle)
01:0000D56C ?endPaint@gui_api@@SAXPBUhwnd@@PAUpaintStruct_struct@gui_native@@@Z  (Idle)
01:0000D580 ?_getClientRect@gui_api@@SAXPBUhwnd@@PAPAUrct_struct@vpiDomains@@@Z  (Idle)
01:0000D5D8 ?_getWindow_handle@gui_api@@SAXPBUhwnd@@HAAU3@@Z  (Idle)
01:0000D6D8 ?_setWindow_handle@gui_api@@SAXPBUhwnd@@HPBU3@AAU3@@Z  (Idle)
01:0000D72C ?_getWindow_integer@gui_api@@SAXPBUhwnd@@HPAH@Z  (Idle)
01:0000D75C ?_setWindow_integer@gui_api@@SAXPBUhwnd@@HHPAH@Z  (Idle)
01:0000D7A4 ?_getWindow_unsigned@gui_api@@SAXPBUhwnd@@HPAI@Z  (Idle)
01:0000D7D4 ?_setWindow_unsigned@gui_api@@SAXPBUhwnd@@HIPAI@Z  (Idle)
01:0000D81C ?_getWindow_style@gui_api@@SAXPBUhwnd@@PAI@Z  (Idle)
01:0000D838 ?setWindow_style@gui_api@@SAXPBUhwnd@@I@Z  (Idle)
01:0000D858 ?_getWindow_exstyle@gui_api@@SAXPBUhwnd@@PAI@Z  (Idle)
01:0000D874 ?setWindow_exstyle@gui_api@@SAXPBUhwnd@@I@Z  (Idle)
01:0000D894 ?_getWindow_wndProc@gui_api@@SAXPBUhwnd@@PAX@Z  (Idle)
01:0000D8BC ?_setWindow_wndProc@gui_api@@SAXPBUhwnd@@XPAX@Z  (Idle)
01:0000D8E4 ?_getClass_handle@gui_api@@SAXPBUhwnd@@HAAU3@@Z  (Idle)
01:0000D934 ?_setClass_handle@gui_api@@SAXPBUhwnd@@HPBU3@AAU3@@Z  (Idle)
01:0000D988 ?_getClass_integer@gui_api@@SAXPBUhwnd@@HPAH@Z  (Idle)
01:0000D9B8 ?_setClass_integer@gui_api@@SAXPBUhwnd@@HHPAH@Z  (Idle)
01:0000DA00 ?_getClass_unsigned@gui_api@@SAXPBUhwnd@@HPAI@Z  (Idle)
01:0000DA30 ?_setClass_unsigned@gui_api@@SAXPBUhwnd@@HIPAI@Z  (Idle)
01:0000DA78 ?extTextOut@gui_api@@SAXPBUhDC@@HHIPAUrct_struct@vpiDomains@@PB_W@Z  (Idle)
01:0000DAA4 ?extTextOut@gui_api@@SAXPBUhDC@@HHIPAUrct_struct@vpiDomains@@PB_WPAX@Z  (Idle)
01:0000DAD8 ?extTextOut@gui_api@@SAXPBUhDC@@HHIPAUrct_struct@vpiDomains@@PB_WPBUcharCount@@PAX@Z 
01:0000DB28 ?invalidateRect@gui_api@@SAXPBUhwnd@@PAUrct_struct@vpiDomains@@PBUbooleanInt@@@Z  (Idle)
01:0000DB6C ?invalidate@gui_api@@SAXPBUhwnd@@PBUbooleanInt@@@Z  (Idle)
01:0000DB84 ?bringWindowToTop@gui_api@@SAXPBUhwnd@@@Z  (Idle)
01:0000DBC0 ?_tryGetForegroundWindow@gui_api@@SAXAAUhwnd@@@Z  (Idle)
01:0000DBE0 ?_setForegroundWindow@gui_api@@SAXPBUhwnd@@PAPAUboolean_struct@_builtIn@@@Z  (Idle)
01:0000DC10 ?_setFocus@gui_api@@SAXPBUhwnd@@AAU2@@Z  (Idle)
01:0000DC54 ?_getParent@gui_api@@SAXPBUhwnd@@AAU2@@Z  (Idle)
01:0000DC98 ?_tryGetParent@gui_api@@SAXPBUhwnd@@AAU2@@Z  (Idle)
01:0000DCB8 ?_setParent@gui_api@@SAXPBUhwnd@@0AAU2@@Z  (Idle)
01:0000DCFC ?_clientToScreen@gui_api@@SAXPBUhwnd@@PAUpnt_struct@vpiDomains@@PAPAU34@@Z  (Idle)
01:0000DD5C ?_screenToClient@gui_api@@SAXPBUhwnd@@PAUpnt_struct@vpiDomains@@PAPAU34@@Z  (Idle)
01:0000DDBC ?_alloc_pnt@gui_api@@SAXHHPAPAUpnt_struct@vpiDomains@@@Z 
01:0000DDE8 ?adjustWindowRectEx@gui_api@@SAXPAUrct_struct@vpiDomains@@IPAUboolean_struct@_builtIn@@I@Z  (Idle)
01:0000DE40 ?deleteObject@gui_api@@SAXPBUhandle@@@Z  (Idle)
01:0000DE50 ?_deleteObject@gui_api@@SAXPBUhandle@@PAPAUboolean_struct@_builtIn@@@Z  (Idle)
01:0000DE68 ?_selectObject@gui_api@@SAXPBUhDC@@PBUhandle@@AAU3@@Z  (Idle)
01:0000DEC8 ?_selectObject_region@gui_api@@SAXPBUhDC@@PBUhandle@@PAI@Z  (Idle)
01:0000DF34 ?selectObjectDeleteOld@gui_api@@SAXPBUhDC@@PBUhandle@@@Z  (Idle)
01:0000DF5C ?_createFontIndirect@gui_api@@SAXPAUlogfont_struct@gui_native@@AAUhFont@@@Z  (Idle)
01:0000DFAC ?_createAcceleratorTable@gui_api@@SAXPAU?$__packedList_struct@Uaccel@gui_native@@@@AAUhandle@@@Z  (Idle)
01:0000E03C ?fillAccelTable@gui_api@@SAXPAXPAU?$__packedList_struct@Uaccel@gui_native@@@@@Z 
01:0000E098 ?_allocMsg@gui_api@@SAXPAPAUmsg_struct@gui_native@@@Z  (Idle)
01:0000E0C4 ?_getMessage_update@gui_api@@SAXPAUmsg_struct@gui_native@@PAPAUboolean_struct@_builtIn@@@Z  (Idle)
01:0000E0E8 ?_getMessage_update@gui_api@@SAXPAUmsg_struct@gui_native@@PBUhwnd@@PAPAUboolean_struct@_builtIn@@@Z  (Idle)
01:0000E108 ?_getMessage_update@gui_api@@SAXPAUmsg_struct@gui_native@@PBUhwnd@@IIPAPAUboolean_struct@_builtIn@@@Z 
01:0000E170 ?releaseDC@gui_api@@SAXPBUhwnd@@PBUhDC@@@Z  (Idle)
01:0000E184 ?_releaseDC_result@gui_api@@SAXPBUhwnd@@PBUhDC@@PAPAUboolean_struct@_builtIn@@@Z  (Idle)
01:0000E1A8 ?_tryGetDC@gui_api@@SAXPBUhwnd@@AAUhDC@@@Z  (Idle)
01:0000E1C8 ?_getDC@gui_api@@SAXPBUhwnd@@AAUhDC@@@Z  (Idle)
01:0000E240 ?_getMenu@gui_api@@SAXPBUhwnd@@AAUhMenu@@@Z  (Idle)
01:0000E2BC ?_tryGetMenu@gui_api@@SAXPBUhwnd@@AAUhMenu@@@Z 
01:0000E30C ?_getMenuItemCount@gui_api@@SAXPBUhMenu@@AAUpositive@@@Z  (Idle)
01:0000E384 ?_getMenuItemInfo_index@gui_api@@SAXPBUhMenu@@PBUpositive@@PAPAUmenuItemInfo_struct@gui_native@@@Z  (Idle)
01:0000E3A0 ?_getMenuItemInfo_index@gui_api@@SAXPBUhMenu@@PBUpositive@@IPAPAUmenuItemInfo_struct@gui_native@@@Z 
01:0000E3D4 ?_getMenuItemInfo_id@gui_api@@SAXPBUhMenu@@IPAPAUmenuItemInfo_struct@gui_native@@@Z  (Idle)
01:0000E3F0 ?_getMenuItemInfo_id@gui_api@@SAXPBUhMenu@@IIPAPAUmenuItemInfo_struct@gui_native@@@Z 
01:0000E418 ?_getMenuItemInfo2@gui_api@@SAXPBUhMenu@gui_native@@IPBUbooleanInt@@IPAPAUmenuItemInfo_struct@3@@Z 
01:0000E58C ?_getMenuItemString_index@gui_api@@SAXPBUhMenu@@PBUpositive@@PAPB_W@Z  (Idle)
01:0000E5B8 ?_getMenuItemString_id@gui_api@@SAXPBUhMenu@@IPAPB_W@Z  (Idle)
01:0000E5E4 ?insertMenuItem_first@gui_api@@SAXPBUhMenu@gui_native@@PAUmenuItemInfo_struct@3@@Z  (Idle)
01:0000E600 ?insertMenuItem_last@gui_api@@SAXPBUhMenu@gui_native@@PAUmenuItemInfo_struct@3@@Z  (Idle)
01:0000E61C ?insertMenuItem_beforeIndex@gui_api@@SAXPBUhMenu@gui_native@@PBUpositiveOptional@@PAUmenuItemInfo_struct@3@@Z 
01:0000E644 ?insertMenuItem_beforeId@gui_api@@SAXPBUhMenu@gui_native@@IPAUmenuItemInfo_struct@3@@Z  (Idle)
01:0000E660 ?insertMenuItem2@gui_api@@SAXPBUhMenu@gui_native@@IPBUbooleanInt@@PAUmenuItemInfo_struct@3@@Z 
01:0000E6BC ?endMenu@gui_api@@SAXXZ  (Idle)
01:0000E6F4 ?moveWindow@gui_api@@SAXPBUhwnd@@HHHHPAUboolean_struct@_builtIn@@@Z  (Idle)
01:0000E750 ?_mkW@gui_api@@SAXHAAUwParam@@@Z  (Idle)
01:0000E760 ?_mkL@gui_api@@SAXHAAUlParam@@@Z 
01:0000E770 ?_mkR@gui_api@@SAXHAAUlResult@@@Z  (Idle)
01:0000E780 ?_makeIntResource@gui_api@@SAXIPAPB_W@Z  (Idle)
01:0000E7A4 ?isCtrlColorMsg@gui_api@@SAXI@Z  (Idle)
01:0000E7FC ?openClipboard@gui_api@@SAXPBUhwnd@@@Z  (Idle)
01:0000E838 ?closeClipboard@gui_api@@SAXXZ  (Idle)
01:0000E870 ?_getClipboardOwner@gui_api@@SAXAAUhwnd@@@Z  (Idle)
01:0000E8B0 ?_setClipboardViewer@gui_api@@SAXPBUhwnd@@AAU2@@Z  (Idle)
01:0000E8F0 ?_getClipboardViewer@gui_api@@SAXAAUhwnd@@@Z  (Idle)
01:0000E930 ?_changeClipboardChain@gui_api@@SAXPBUhwnd@@0PAPAUboolean_struct@_builtIn@@@Z  (Idle)
01:0000E954 ?setClipboardData@gui_api@@SAXIPBUhandle@@@Z  (Idle)
01:0000E994 ?_getClipboardData@gui_api@@SAXIAAUhandle@@@Z  (Idle)
01:0000E9D4 ?_registerClipboardFormat@gui_api@@SAXPB_WPAI@Z  (Idle)
01:0000EA14 ?_countClipboardFormats@gui_api@@SAXPAH@Z  (Idle)
01:0000EA54 ?_enumClipboardFormats@gui_api@@SAXIPAI@Z  (Idle)
01:0000EA94 ?_getClipboardFormatName@gui_api@@SAXIPAPB_W@Z  (Idle)
01:0000EAF0 ?emptyClipboard@gui_api@@SAXXZ  (Idle)
01:0000EB28 ?isClipboardFormatAvailable@gui_api@@SAXI@Z  (Idle)
01:0000EB44 ?_getPriorityClipboardFormat@gui_api@@SAXPAXHPAH@Z  (Idle)
01:0000EB88 ?_getOpenClipboardWindow@gui_api@@SAXAAUhwnd@@@Z  (Idle)
01:0000EBC8 ?destroyWindow@gui_api@@SAXPBUhwnd@@@Z  (Idle)
01:0000EC04 ?_getText@gui_api@@SAXPBUhwnd@@PAPB_W@Z  (Idle)
01:0000EC90 ?setText@gui_api@@SAXPBUhwnd@@PB_W@Z  (Idle)
01:0000ECC4 ?_getWindowRect@gui_api@@SAXPBUhwnd@@PAPAUrct_struct@vpiDomains@@@Z  (Idle)
01:0000ED20 ?_loadImage_file@gui_api@@SAXPB_WIPBUpositive@@2IAAUhandle@@@Z  (Idle)
01:0000EDA8 ?_loadImage_oem@gui_api@@SAXPBUresid@vpiDomains@@IPBUpositive@@2IAAUhandle@@@Z  (Idle)
01:0000EE0C ?_loadImage_resId@gui_api@@SAXPBUresid@vpiDomains@@IPBUpositive@@2IAAUhandle@@@Z  (Idle)
01:0000EE88 ?_loadImage_resId@gui_api@@SAXPBUhModule@@PBUresid@vpiDomains@@IPBUpositive@@3IAAUhandle@@@Z  (Idle)
01:0000EEE8 ?_loadImage@gui_api@@SAXPBUhModule@@PB_WIPBUpositive@@3IPAUvalue_struct@core@@AAUhandle@@@Z 
01:0000EF84 ?_getWindowThreadProcessId@gui_api@@SAXPBUhwnd@@PAI@Z  (Idle)
01:0000EFA4 ?_getWindowThreadProcessId@gui_api@@SAXPBUhwnd@@PAIPAI@Z 
01:0000EFE8 ?attachThreadInput@gui_api@@SAXIIPAUboolean_struct@_builtIn@@@Z  (Idle)
01:0000F03C ?_setActiveWindow@gui_api@@SAXPBUhwnd@@AAU2@@Z  (Idle)
01:0000F07C ?rectangle@gui_api@@SAXPBUhDC@@HHHH@Z  (Idle)
01:0000F0C4 ?drawFocusRect@gui_api@@SAXPBUhDC@@PAUrct_struct@vpiDomains@@@Z  (Idle)
01:0000F104 ?trackMouseEvent@gui_api@@SAXPAUtrackMouseEvent_struct@gui_native@@@Z  (Idle)
01:0000F140 ?trackMouseHover@gui_api@@SAXPBUhwnd@@@Z  (Idle)
01:0000F178 ?trackMouseLeave@gui_api@@SAXPBUhwnd@@@Z  (Idle)
01:0000F1B0 ?setWindowPos@gui_api@@SAXPBUhwnd@@0HHHHI@Z  (Idle)
01:0000F200 ?updateLayeredWindow@gui_api@@SAXPBUhwnd@@PBUhDC@@PAUpnt_struct@vpiDomains@@PAUsize_struct@gui_native@@12PBUcolor@5@PAUblendFunction_struct@7@I@Z  (Idle)
01:0000F254 ?_getStockObject@gui_api@@SAXHAAUhandle@@@Z  (Idle)
01:0000F2CC ?_monitorFromPoint@gui_api@@SAXPAUpnt_struct@vpiDomains@@IAAUhMonitor@@@Z  (Idle)
01:0000F2EC ?_monitorFromRect@gui_api@@SAXPAUrct_struct@vpiDomains@@IAAUhMonitor@@@Z  (Idle)
01:0000F304 ?_monitorFromWindow@gui_api@@SAXPBUhwnd@@IAAUhMonitor@@@Z  (Idle)
01:0000F31C ?_getMonitorInfo@gui_api@@SAXPBUhMonitor@@PAPAUmonitorInfo_struct@1@@Z  (Idle)
01:0000F44C ?_getDummy@gui_api@@SAXPAH@Z 
01:0000F460 ?_mkKeyDown@gui_api@@SAXPBUunsigned16@@PAPAUinput_struct@gui_native@@@Z  (Idle)
01:0000F490 ?_mkKeyUp@gui_api@@SAXPBUunsigned16@@PAPAUinput_struct@gui_native@@@Z  (Idle)
01:0000F4C4 ?_mkKeyInputStructure@gui_api@@SAXPBUunsigned16@@0IIPBUlParam@gui_native@@PAPAUinput_struct@5@@Z 
01:0000F568 ?anonymous$c0$1$sendinput/1np$gui_api@1@SAXPAUanonymous$c0$1$sendinput/1np$gui_apic_struct@1@PAXPAUinput_struct@gui_native@@@Z 
01:0000F584 ?sendInput@gui_api@@SAXPAU?$__packedList_struct@Uinput@gui_native@@@@@Z  (Idle)
01:0000F6D4 ?_getMenuItemRect@gui_api@@SAXPBUhwnd@@PBUhmenu@gui_native@@PBUpositive@@PAPAUrct_struct@vpiDomains@@@Z  (Idle)
01:0000F738 ?_setTimer@gui_api@@SAXPBUunsignedNative@@PBUpositive@@XAAU2@@Z  (Idle)
01:0000F770 ?setTimer@gui_api@@SAXPBUhwnd@@PBUunsignedNative@@PBUpositive@@X@Z  (Idle)
01:0000F794 ?_setTimer@gui_api@@SAXPBUhwnd@@PBUunsignedNative@@PBUpositive@@XAAU3@@Z 
01:0000F7E4 ?killTimer@gui_api@@SAXPBUhwnd@@PBUunsignedNative@@@Z  (Idle)
01:0000F824 ?_getIconInfo@gui_api@@SAXPBUhIcon@@PAPAUiconInfo_struct@gui_native@@@Z  (Idle)
01:0000F8D0 ?destroyIcon@gui_api@@SAXPBUhIcon@@@Z  (Idle)
01:0000F90C ?_enableWindow@gui_api@@SAXPBUhwnd@@PAUboolean_struct@_builtIn@@PAPAU34@@Z  (Idle)
01:0000F944 ?tryTranslateAccelerator@gui_api@@SAXPBUhwnd@@PBUhandle@@PAUmsg_struct@gui_native@@@Z  (Idle)
01:0000F964 ?isDialogMessage@gui_api@@SAXPBUhwnd@@PAUmsg_struct@gui_native@@@Z  (Idle)
01:0000F984 ?_getForegroundWindow@gui_api@@SAXAAUhwnd@@@Z  (Idle)
01:0000F998 ?tryGetMessageUpdate@gui_api@@SAXPAUmsg_struct@gui_native@@PBUhwnd@@II@Z  (Idle)
01:0000F9CC ?_tryGetMessage@gui_api@@SAXPBUhwnd@@IIPAPAUmsg_struct@gui_native@@@Z  (Idle)
01:0000FA0C gui_api_getParam 
01:0000FA1C ?getInteger16@gui_api@@SAXPBUintegerNative@@AAUinteger16@@1@Z  (Idle)
01:0000FA54 ?getInteger16@gui_api@@SAXPBUwParam@@AAUinteger16@@1@Z  (Idle)
01:0000FA8C ?getInteger16@gui_api@@SAXPBUlParam@@AAUinteger16@@1@Z 
01:0000FAC4 ?getInteger16@gui_api@@SAXPBUlResult@@AAUinteger16@@1@Z  (Idle)
01:0000FAFC ?getUnsigned16@gui_api@@SAXPBUintegerNative@@AAUunsigned16@@1@Z 
01:0000FB38 ?getUnsigned16@gui_api@@SAXPBUwParam@@AAUunsigned16@@1@Z 
01:0000FB74 ?getUnsigned16@gui_api@@SAXPBUlParam@@AAUunsigned16@@1@Z 
01:0000FBB0 ?getUnsigned16@gui_api@@SAXPBUlResult@@AAUunsigned16@@1@Z 
01:0000FBEC ?_createWindowEx@gui_api@@SAXIPBUatom@gui_native@@PB_WIHHHHPBUhwnd@@PBUhMenu@@PBUhModule@@PAXAAU4@@Z  (Idle)
01:0000FCB0 ?_createFontIndirect@gui_api@@SAXPBUfont@vpiDomains@@AAUhFont@@@Z  (Idle)
01:0000FD00 ?_mkW@gui_api@@SAXIAAUwParam@@@Z 
01:0000FD10 ?_mkL@gui_api@@SAXIAAUlParam@@@Z 
01:0000FD20 ?_mkR@gui_api@@SAXIAAUlResult@@@Z  (Idle)
--- From 'Obj\locale_api.25A9E29D.obj'
01:0000FD30 ?_makeLangId@locale_api@@SAXIIPAI@Z  (Idle)
01:0000FD54 ?_primaryLangId@locale_api@@SAXIPAI@Z  (Idle)
01:0000FD70 ?_subLangId@locale_api@@SAXIPAI@Z  (Idle)
01:0000FD8C ?_makeLcId@locale_api@@SAXIIAAUlcId@@@Z  (Idle)
01:0000FDB0 ?_makeSortLcId@locale_api@@SAXIIIPAI@Z  (Idle)
01:0000FDF8 ?_langIdFromLcId@locale_api@@SAXIPAI@Z  (Idle)
01:0000FE14 ?_sortIdFromLcId@locale_api@@SAXIPAI@Z  (Idle)
01:0000FE3C ?_sortVersionFromLcId@locale_api@@SAXIPAI@Z  (Idle)
01:0000FE58 ?_getNumberFormat@locale_api@@SAXPB_WPAPB_W@Z  (Idle)
01:0000FE7C ?_getNumberFormat@locale_api@@SAXPB_WPBUlcId@@PAPB_W@Z 
01:0000FE98 ?_getNumberFormat@locale_api@@SAXPB_WPBUlcId@@PAUnumberfmt_struct@locale_native@@PAPB_W@Z 
01:0000FEF0 ?_getLocaleInfo_integer@locale_api@@SAXPBUlcType@@PAH@Z  (Idle)
01:0000FF14 ?_getLocaleInfo_integer@locale_api@@SAXPBUlcType@@PBUlcId@@PAH@Z 
01:0000FF40 ?_getLocaleInfo_string@locale_api@@SAXPBUlcType@@PAPB_W@Z  (Idle)
01:0000FF64 ?_getLocaleInfo_string@locale_api@@SAXPBUlcType@@PBUlcId@@PAPB_W@Z 
--- From 'Obj\memory_api.072B3D5C.obj'
01:0000FFC0 ?globalMemoryStatusEx@memory_api@@SAXPAIPAPA_K111111@Z  (Idle)
01:00010154 ?_alloc_memoryStatusEx@memory_api@@SAXIPAPAUmemoryStatusEx_struct@memory_native@@@Z 
01:000101C8 ?_globalAlloc@memory_api@@SAXIPBUbyteCount@@AAUhGlobal@windowsAPI@@@Z  (Idle)
01:00010210 ?globalFree@memory_api@@SAXPBUhGlobal@windowsAPI@@@Z  (Idle)
01:0001024C ?_globalLock@memory_api@@SAXPBUhGlobal@windowsAPI@@PAPAX@Z  (Idle)
01:0001028C ?globalUnlock@memory_api@@SAXPBUhGlobal@windowsAPI@@@Z  (Idle)
01:000102A8 ?_globalUnlock@memory_api@@SAXPBUhGlobal@windowsAPI@@PAPAUboolean_struct@_builtIn@@@Z 
01:000102F4 ?_globalSize@memory_api@@SAXPBUhGlobal@windowsAPI@@AAUbyteCount@@@Z  (Idle)
01:0001034C ?_mkGlobal_string@memory_api@@SAXPB_WAAUhGlobal@windowsAPI@@@Z  (Idle)
01:000103A4 ?_getGlobal_string@memory_api@@SAXPBUhGlobal@windowsAPI@@PAPB_W@Z  (Idle)
01:00010498 ?_mkGlobal_string8@memory_api@@SAXPADAAUhGlobal@windowsAPI@@@Z  (Idle)
01:000104E0 ?_anonymous$c0$1$getglobal_string8/1nf$memory_api@1@SAXPAXPBUbyteCount@@PAPAD@Z 
01:000104F4 ?_getGlobal_string8@memory_api@@SAXPBUhGlobal@windowsAPI@@PAPAD@Z  (Idle)
01:0001052C ?_mkGlobal_binary@memory_api@@SAXQAEAAUhGlobal@windowsAPI@@@Z  (Idle)
01:00010568 ?_getGlobal_binary@memory_api@@SAXPBUhGlobal@windowsAPI@@QAPAE@Z  (Idle)
01:000105A0 ?_mkGlobal_pointer@memory_api@@SAXPAXPBUbyteCount@@AAUhGlobal@windowsAPI@@@Z 
01:00010640 ?_getGlobal_pointer@memory_api@@SAXQAVrTypeLibrary@TypeLibraries@RunTime@VIP@@PBUhGlobal@windowsAPI@@XPAPAX@Z 
--- From 'Obj\shell_api.D9156D40.obj'
01:000106E8 ?localFree@memory_api@@SAXQAVrTypeLibrary@TypeLibraries@RunTime@VIP@@PAX@Z 
--- From 'Obj\multithread_api.6DC4E6F9.obj'
01:00010730 _Wow64GetThreadSelectorEntry@12 
01:00010754 _GetThreadId@4  (Idle)
01:00010778 ?_createEvent@multiThread_api@@SAXPB_WPAUboolean_struct@_builtIn@@1AAUsyncHandle@windowsAPI@@@Z  (Idle)
01:0001088C ?_openEvent@multiThread_api@@SAXPB_WAAUsyncHandle@windowsAPI@@@Z  (Idle)
01:000108D0 ?setEvent@multiThread_api@@SAXPBUsyncHandle@windowsAPI@@@Z  (Idle)
01:00010964 ?error@multiThread_api@@SAXPBUsyncHandle@windowsAPI@@PB_W@Z  (Idle)
01:000109E0 ?resetEvent@multiThread_api@@SAXPBUsyncHandle@windowsAPI@@@Z  (Idle)
01:00010A08 ?pulseEvent@multiThread_api@@SAXPBUsyncHandle@windowsAPI@@@Z  (Idle)
01:00010A9C ?_createMutex@multiThread_api@@SAXPB_WPAUboolean_struct@_builtIn@@AAUsyncHandle@windowsAPI@@@Z  (Idle)
01:00010B48 ?_openMutex@multiThread_api@@SAXPB_WAAUsyncHandle@windowsAPI@@@Z  (Idle)
01:00010B8C ?releaseMutex@multiThread_api@@SAXPBUsyncHandle@windowsAPI@@@Z  (Idle)
01:00010BB4 ?_createSemaphore@multiThread_api@@SAXPB_WIIAAUsyncHandle@windowsAPI@@@Z  (Idle)
01:00010CC0 ?_openSemaphore@multiThread_api@@SAXPB_WAAUsyncHandle@windowsAPI@@@Z  (Idle)
01:00010D04 ?_releaseSemaphore@multiThread_api@@SAXPBUsyncHandle@windowsAPI@@IPAI@Z  (Idle)
01:00010DF0 ?_createWaitableTimer@multiThread_api@@SAXPB_WPAUboolean_struct@_builtIn@@AAUsyncHandle@windowsAPI@@@Z  (Idle)
01:00010EB0 ?_openWaitableTimer@multiThread_api@@SAXPB_WAAUsyncHandle@windowsAPI@@@Z  (Idle)
01:00010EF4 ?setWaitableTimer@multiThread_api@@SAXPBUsyncHandle@windowsAPI@@PAPBUtimeIntervalValue@@HPAUboolean_struct@_builtIn@@@Z  (Idle)
01:00010F14 ?setWaitableTimer@multiThread_api@@SAXPBUsyncHandle@windowsAPI@@PAPBUtimeIntervalValue@@HXPAXPAUboolean_struct@_builtIn@@@Z 
01:000110C0 ?cancelWaitableTimer@multiThread_api@@SAXPBUsyncHandle@windowsAPI@@@Z  (Idle)
--- From 'Obj\registry.88C8A89A.obj'
01:000110E8 ?isWow64Process@multiThread_api@@SAXPBUprocessHandle@windowsAPI@@@Z 
--- From 'Obj\multithread_api.6DC4E6F9.obj'
01:0001119C ?dummyWow64Func@multiThread_api@@SGPBUbooleanInt@@PBUhandle@@AAU2@@Z 
01:000111B8 ?_handlingNullString@multiThread_api@@SAXPB_WPAPB_W@Z  (Idle)
01:000111FC ?checkHandle@multiThread_api@@SAXPBUsyncHandle@windowsAPI@@PB_W1PAU?$__packedList_struct@UnamedValue@@@@@Z 
01:00011294 ?checkAlreadyExist@multiThread_api@@SAXPBUhandle@@PB_W@Z 
01:0001135C ?getThreadContext@multiThread_api@@SAXPBUthreadHandle@multiThread_native@@PAX@Z  (Idle)
01:000113F0 ?setThreadContext@multiThread_api@@SAXPBUthreadHandle@multiThread_native@@PAX@Z  (Idle)
01:00011484 ?_getThreadSelectorEntry@multiThread_api@@SAXPBUthreadHandle@multiThread_native@@IPAPAUselectorEntry_struct@3@@Z  (Idle)
01:00011588 ?_wow64GetThreadSelectorEntry@multiThread_api@@SAXPBUthreadHandle@multiThread_native@@IPAPAUselectorEntry_struct@3@@Z  (Idle)
01:0001168C ?_mkInheritable@multiThread_api@@SAXPBUhandle@@AAU2@@Z  (Idle)
01:000116A8 ?_mkInheritable@multiThread_api@@SAXPBUhandle@@PAUboolean_struct@_builtIn@@AAU2@@Z 
01:000116E4 ?setProcessAffinityMask@multiThread_api@@SAXPBUunsignedNative@@@Z  (Idle)
01:000116FC ?setProcessAffinityMask@multiThread_api@@SAXPBUunsignedNative@@PBUprocessHandle@windowsAPI@@@Z 
--- From 'Obj\registry_api.0E78C5E3.obj'
01:00011740 _RegDeleteKeyExW@16 
--- From 'Obj\registry.88C8A89A.obj'
01:00011764 ?_regOpenKeyEx@registry_api@@SAXPBUhKey@@PB_WPBUregsAM@@AAU2@@Z 
01:000117AC ?_regTryOpenKeyEx@registry_api@@SAXPBUhKey@@PB_WPBUregsAM@@AAU2@@Z 
01:000117D4 ?regCloseKey@registry_api@@SAXPBUhKey@@@Z 
01:00011860 ?_regCreateKeyEx@registry_api@@SAXPBUhKey@@PB_WIPBUregsAM@@PAUsecurityAttr_struct@registry_native@@PAIAAU2@@Z 
01:000118A8 ?regDeleteKey@registry_api@@SAXPBUhKey@@PB_W@Z 
01:000118E8 ?regDeleteKeyEx@registry_api@@SAXPBUhKey@@PB_WPBUregsAM@@@Z 
01:0001192C ?_regEnumKeyEx@registry_api@@SAXPBUhKey@@PAPAU?$__packedList_struct@Ustring@@@@@Z 
--- From 'Obj\registry_api.0E78C5E3.obj'
01:000119C4 ?_regEnumKeyEx1@registry_api@@SAXPBUhKey@@IPB_WPBUcharCount@@PAPAU?$__packedList_struct@Ustring@@@@@Z 
01:00011A3C ?_tryRegEnumKeyExOne@registry_api@@SAXPBUhKey@@IPB_WPBUcharCount@@PAPB_W@Z 
--- From 'Obj\registry.88C8A89A.obj'
01:00011B7C ?regSetValueEx@registry_api@@SAXPBUhKey@@PB_WPAUvalue_struct@core@@@Z 
01:00011BEC ?_regQueryValueEx@registry_api@@SAXPBUhKey@@PB_WPAPAUvalue_struct@core@@@Z 
01:00011C50 ?_regTryQueryValueEx@registry_api@@SAXPBUhKey@@PB_WPAPAUvalue_struct@core@@@Z 
--- From 'Obj\registry_api.0E78C5E3.obj'
01:00011CA4 ?_regQueryValueEx1@registry_api@@SAXPBUhKey@@PB_WPAUpByteCount_struct@memory@@PAPAUvalue_struct@core@@@Z 
01:00011D2C ?regDeleteValue@registry_api@@SAXPBUhKey@@PB_W@Z  (Idle)
--- From 'Obj\registry.88C8A89A.obj'
01:00011D60 ?regDeleteValueIfExist@registry_api@@SAXPBUhKey@@PB_W@Z 
01:00011DA4 ?_regEnumValue@registry_api@@SAXPBUhKey@@PAPAU?$__packedList_struct@UnamedValue@@@@@Z 
--- From 'Obj\registry_api.0E78C5E3.obj'
01:00011DE4 ?_regEnumValue1@registry_api@@SAXPBUhKey@@IPB_WPBUcharCount@@PAPAU?$__packedList_struct@UnamedValue@@@@@Z 
01:00011E5C ?_tryRegEnumValueOne@registry_api@@SAXPBUhKey@@IPB_WPBUcharCount@@PAPAUnamedValue_struct@core@@@Z 
01:000121D4 ?_packValue@registry_api@@SAXIPAXPBUbyteCount@@PAPAUvalue_struct@core@@@Z 
01:000124A0 ?unpackValue@registry_api@@SAXPAUvalue_struct@core@@PAIPAPAXAAUbyteCount@@@Z 
01:00012868 ?_convertToStringList@registry_api@@SAXPAXPBUbyteCount@@PAPAU?$__packedList_struct@Ustring@@@@@Z 
01:00012928 ?check_name_value@registry_api@@SAXPBUhResult@@PB_W1PAUvalue_struct@core@@@Z 
01:000129DC ?check_name@registry_api@@SAXPBUhResult@@PB_W1@Z 
--- From 'Obj\runtime_api.0E79B0CD.obj'
01:00012A60 ?_determineOSV5@runtime_api@@SAXIIPBUunsigned16@@PAPB_W@Z  (Idle)
01:00012D08 ?_determineOSV4@runtime_api@@SAXIIPBUunsigned16@@PAPB_W@Z  (Idle)
01:00012DA0 ?_determineOSV6@runtime_api@@SAXIIPBUunsigned16@@PAPB_W@Z  (Idle)
01:00012FF8 ?_determineMajorVersion@runtime_api@@SAXIIIPBUunsigned16@@PAPB_W@Z  (Idle)
01:000130C4 ?_determineOSFamily@runtime_api@@SAXIPAPB_W@Z  (Idle)
--- From 'Obj\exception.544F7452.obj'
01:00013284 ?getOSVersion@runtime_api@@SAXQAVoutputStream@@@@Z 
--- From 'Obj\runtime_api.0E79B0CD.obj'
01:000133A0 ?_getSysInfoStr@runtime_api@@SAXPAPB_W@Z 
01:00013430 ?_getNativeSysInfo@runtime_api@@SAXPAPB_W@Z 
01:000134C0 ?_getRegInfo@runtime_api@@SAXPAPB_W@Z 
01:00013564 ?_getRegInfoK@runtime_api@@SAXPB_WPAPB_W@Z 
01:000135D0 ?_printString@runtime_api@@SAXPAUvalue_struct@core@@PAPB_W@Z 
--- From 'Obj\shell_api.D9156D40.obj'
01:00013650 ?shellOpen@shell_api@@SAXPB_W@Z  (Idle)
01:00013674 ?shellRun@shell_api@@SAXPB_W@Z  (Idle)
01:00013698 ?shellExecute@shell_api@@SAXPBUhwnd@@PB_W1@Z 
01:000136B0 ?shellExecute@shell_api@@SAXPBUhwnd@@PB_W11@Z 
01:000136C8 ?shellExecute@shell_api@@SAXPBUhwnd@@PB_W111@Z 
01:000136DC ?shellExecute@shell_api@@SAXPBUhwnd@@PB_W111H@Z 
01:00013754 ?shellExecuteEx@shell_api@@SAXPAUshellExecuteInfo_struct@shell_native@@@Z  (Idle)
01:00013790 ?_shellExecuteErrorDescription@shell_api@@SAXIPAPB_W@Z 
01:000138D0 ?_sHCreateStreamOnFileEx@shell_api@@SAXPB_WIPAPAViStream_native@@@@Z  (Idle)
01:000138F0 ?_sHCreateStreamOnFileEx@shell_api@@SAXPB_WIIPAUboolean_struct@_builtIn@@PAPAViStream_native@@@@Z 
01:00013944 ?_commandLineToArgv@shell_api@@SAXPB_WPAPAU?$__packedList_struct@Ustring@@@@@Z  (Idle)
--- From 'Obj\filesystem.57D9C483.obj'
01:00013A20 ?toWideChar@string8_api@@SAXPBUcodePage@@PADPBUbyteCountOptional@@PB_WPBUcharCount@@@Z 
01:00013A74 ?_lenWideChar@string8_api@@SAXPBUcodePage@@PADPBUbyteCountOptional@@AAUcharCount@@@Z 
01:00013AE4 ?toMultiByte@string8_api@@SAXPBUcodePage@@PB_WPBUcharCountOptional@@PADPBUbyteCount@@@Z 
01:00013B3C ?_lenMultiByte@string8_api@@SAXPBUcodePage@@PB_WPBUcharCountOptional@@AAUbyteCount@@@Z 
--- From 'Obj\string8_api.41F368A6.obj'
01:00013BB0 ?_charNextExA@string8_api@@SAXPBUcodePage@@PADPAPAD@Z 
--- From 'Obj\systeminformation_api.2DB6162F.obj'
01:00013BD0 ?getVersionEx@systemInformation_api@@SAXPAIPAIPAIPAIPAPB_WAAUunsigned16@@55AAUunsigned8@@@Z 
01:00013D10 ?_allocWithSize@systemInformation_api@@SAXPBUbyteCount@@PAPAX@Z 
01:00013D44 ?systemInfo@systemInformation_api@@SGPAUsystem_Info_struct@systemInformation_native@@XZ 
01:00013D78 ?nativeSystemInfo@systemInformation_api@@SGPAUsystem_Info_struct@systemInformation_native@@XZ 
01:00013DAC ?isWindows64@systemInformation_api@@SAXXZ  (Idle)
01:00013DD0 ?_getUserName@systemInformation_api@@SAXPAPB_W@Z  (Idle)
01:00013E5C ?_getUserNameEx@systemInformation_api@@SAXPBUuserNameFormat@systemInformation_native@@PAPB_W@Z  (Idle)
01:00013EE0 ?_getComputerName@systemInformation_api@@SAXPAPB_W@Z  (Idle)
01:00013F6C ?_getComputerNameEx@systemInformation_api@@SAXPBUcomputerNameFormat@systemInformation_native@@PAPB_W@Z  (Idle)
01:00013FF0 ?systemParametersInfo@systemInformation_api@@SAXIIPAXI@Z  (Idle)
01:00014034 ?systemParametersInfo_outInt@systemInformation_api@@SAXIIPAHI@Z  (Idle)
01:00014078 ?_getNonclientMetrics@systemInformation_api@@SAXPAPAUnonclientMetrics_struct@systemInformation_native@@@Z  (Idle)
01:000140C8 ?_getNonclientMetricsXP@systemInformation_api@@SAXPAPAUnonclientMetricsXP_struct@systemInformation_native@@@Z  (Idle)
--- From 'Obj\filesystem.57D9C483.obj'
01:00014118 ?majorOSversion@systemInformation_api@@SGIXZ 
--- From 'Obj\time_api.21FCC41B.obj'
01:00014180 _GetTickCount64@0  (Idle)
01:000141A4 _QueryUnbiasedInterruptTime@4  (Idle)
--- From 'Obj\exceptiondump.174B23B9.obj'
01:000141C8 ?_getSystemTimeAsFileTime@time_api@@SAXPAAAUgmtTimeValue@@@Z 
--- From 'Obj\time_api.21FCC41B.obj'
01:00014208 ?_gmtTimeToSystemTime@time_api@@SAXPAPBUgmtTimeValue@@PAPAUsystemTime_struct@time_native@@@Z  (Idle)
01:000142C8 ?_systemTimeToGmtTime@time_api@@SAXPAUsystemTime_struct@time_native@@PAAAUgmtTimeValue@@@Z  (Idle)
--- From 'Obj\exception.544F7452.obj'
01:00014620 ?_localTimeToSystemTime@time_api@@SAXPAPBUlocalTimeValue@@PAPAUsystemTime_struct@time_native@@@Z 
--- From 'Obj\time_api.21FCC41B.obj'
01:00014634 ?_systemTimeToLocalTime@time_api@@SAXPAUsystemTime_struct@time_native@@PAAAUlocalTimeValue@@@Z  (Idle)
01:00014658 ?_getTimeZoneInformation@time_api@@SAXPAPAUtimeZoneAPI_struct@time_native@@@Z  (Idle)
01:000146B8 ?_systemTimeToTzSpecificLocalTime@time_api@@SAXPAUtimeZoneAPI_struct@time_native@@PAUsystemTime_struct@3@PAPAU43@@Z  (Idle)
01:00014718 ?_tzSpecificLocalTimeToSystemTime@time_api@@SAXPAUtimeZoneAPI_struct@time_native@@PAUsystemTime_struct@3@PAPAU43@@Z  (Idle)
--- From 'Obj\exception.544F7452.obj'
01:00014844 ?_gmtTimeToLocalTime@time_api@@SAXPAPBUgmtTimeValue@@PAAAUlocalTimeValue@@@Z 
--- From 'Obj\time_api.21FCC41B.obj'
01:00014860 ?_gmtTimeToLocalTime@time_api@@SAXPAPBUgmtTimeValue@@PAUtimeZoneAPI_struct@time_native@@PAAAUlocalTimeValue@@@Z 
01:00014984 ?_localTimeToGmtTime@time_api@@SAXPAPBUlocalTimeValue@@PAAAUgmtTimeValue@@@Z  (Idle)
01:000149A0 ?_localTimeToGmtTime@time_api@@SAXPAPBUlocalTimeValue@@PAUtimeZoneAPI_struct@time_native@@PAAAUgmtTimeValue@@@Z 
01:00014AC4 ?_gmtTimeToFileTime@time_api@@SAXPAPBUgmtTimeValue@@PAPAUfileTime_struct@time_native@@@Z 
--- From 'Obj\filesystem.57D9C483.obj'
01:00014AE8 ?_fileTimeToGmtTime@time_api@@SAXPAUfileTime_struct@time_native@@PAAAUgmtTimeValue@@@Z 
--- From 'Obj\time_api.21FCC41B.obj'
01:00014AF4 ?_formatDate@time_api@@SAXPAPBUlocalTimeValue@@PB_WPBUlcId@@PAPB_W@Z  (Idle)
01:00014B40 ?_formatTime@time_api@@SAXPAPBUlocalTimeValue@@PB_WPBUlcId@@PAPB_W@Z  (Idle)
--- From 'Obj\exception.544F7452.obj'
01:00014B8C ?_getDateFormat@time_api@@SAXPBUlcId@@IPAUsystemTime_struct@time_native@@PB_WPAPB_W@Z 
01:00014C88 ?_getTimeFormat@time_api@@SAXPBUlcId@@IPAUsystemTime_struct@time_native@@PB_WPAPB_W@Z 
--- From 'Obj\time_api.21FCC41B.obj'
01:00014D84 ?_getLocaleInfo_string@time_api@@SAXPBUlcId@@PBUlcType@@PAPB_W@Z  (Idle)
01:00014E08 ?_getLocaleInfo_integer@time_api@@SAXPBUlcId@@PBUlcType@@PAH@Z  (Idle)
01:00014E58 ?_getFirstDayOfWeek@time_api@@SAXPBUlcId@@PAH@Z  (Idle)
01:00014E74 ?_fromUnixTime@time_api@@SAXIPAAAUgmtTimeValue@@@Z  (Idle)
01:00014EDC ?_toUnixTime@time_api@@SAXPAPBUgmtTimeValue@@PAI@Z  (Idle)
01:00014F60 ?raise_cannotGetDateTimeFormat_explicit@time_api@@SAXPAUprogramPoint_struct@core@@IIIIIIIIIIPB_WPBUhResult@@@Z 
01:00015370 ?raise_cannotGetLocaleInfo_explicit@time_api@@SAXPAUprogramPoint_struct@core@@IIPBUhResult@@@Z 
01:0001548C ?_fromUnixTime@time_api@@SAXIPAAAUlocalTimeValue@@@Z  (Idle)
01:000154F4 ?_toUnixTime@time_api@@SAXPAPBUlocalTimeValue@@PAI@Z  (Idle)
--- From 'Obj\windowsapi.901E9509.obj'
01:00015580 ?_toMsStringSeq@windowsAPI@@SAXPAU?$__packedList_struct@Ustring@@@@AAUmsStringSeq@@@Z  (Idle)
01:000155C8 ?_totalLength@windowsAPI@@SAXPAU?$__packedList_struct@Ustring@@@@PBUcharCount@core@@AAU34@@Z 
01:00015634 ?fill@windowsAPI@@SAXPAU?$__packedList_struct@Ustring@@@@PBUmsStringSeq@@@Z 
01:000156DC ?_fromMsStringSeq@windowsAPI@@SAXPBUmsStringSeq@@PAPAU?$__packedList_struct@Ustring@@@@@Z  (Idle)
01:00015754 ?_getString_nd@windowsAPI@@SAXPBUmsStringSeq@@PAPB_W@Z 
--- From 'Obj\exe.3A8A8F5C.obj'
01:00015830 ?run@mainExe@@SAXX@Z  (Idle)
--- From 'Obj\console.043C10C8.obj'
01:00015844 ?run@mainExe@@SAXXPAUrunMode_struct@exe_api@@@Z 
--- From 'Obj\exe.3A8A8F5C.obj'
01:0001592C ?_getCommandLine@mainExe@@SAXPAPB_W@Z  (Idle)
01:0001599C ?_parseCommandLine@mainExe@@SAXPB_W_W0PAPB_W@Z 
01:00015A60 ?_getPosition@mainExe@@SAXPB_W_WAAUcharCount@@@Z 
01:00015AA4 ?getFileName@mainExe@@SAXPAPB_W0@Z  (Idle)
01:00015AE0 ?_getFileName@mainExe@@SAXPAPB_W@Z 
01:00015AFC ?_getCurrentHinstance@mainExe@@SAXAAUhModule@@@Z 
01:00015B10 ?runCom@mainExe@@SAXX@Z  (Idle)
01:00015B18 ?runOle@mainExe@@SAXX@Z  (Idle)
01:00015B20 ?exceptionDumper@mainExe@@SGXX@Z  (Idle)
01:00015B2C ?exceptionDumper@mainExe@@SGXXZ  (Idle)
--- From 'Obj\binary.9C7C16C6.obj'
01:00015B40 ?new@outputStream_binary@@SAXQAV1@@@Z  (Idle)
01:00015BE0 ?size@outputStream_binary@@SGPBUbyteCount@@QAV1@@@Z 
01:00015C80 ?setMode@outputStream_binary@@SGXQAVstream@@@PAUmode_struct@2@@Z 
01:00015CC8 ?flush@outputStream_binary@@SAXQAVoutputStream@@@@Z 
01:00015CD0 ?close@outputStream_binary@@SGXQAVstream@@@@Z 
01:00015D18 ?bufferFullCallBack@outputStream_binary@@SAXQAV1@@PAPAXAAUbyteCount@@@Z  (Idle)
01:00015D94 ?get_buffer_from_db@outputStream_binary@@SAXQAV1@@IPAPAXAAUbyteCount@@@Z 
01:00015DFC ?_getBinary@outputStream_binary@@SAXQAV1@@QAPAE@Z 
01:00015EB4 ?_getMemory@outputStream_binary@@SAXQAV1@@PAPAX@Z 
01:00015F6C ?writeBuffersToBinary@outputStream_binary@@SAXQAV1@@PAX@Z 
01:00015FE8 ?writeSingleBufferToBinary@outputStream_binary@@SAXPAXPBUbyteCount@@PAX1@Z 
01:0001601C ?getPosition@outputStream_binary@@SGPBUfileSize@fileSystem_api@@QAVstream@@@@Z 
01:000160E8 ?setPosition@outputStream_binary@@SGXQAVstream@@@PBUfileSize@fileSystem_api@@@Z 
01:00016154 ?handleSetOffset@outputStream_binary@@SAXQAV1@@PBUbyteCount@@@Z 
01:000161DC ?updateCurrentBuffer@outputStream_binary@@SAXQAV1@@@Z 
01:00016348 ?findBufferForOffset@outputStream_binary@@SAXQAV1@@PBUbyteCount@@PAIPAPAXAAU3@4@Z 
01:000163D4 ?handleBiggerOffset@outputStream_binary@@SAXQAV1@@PBUbyteCount@@@Z 
01:00016558 ?_newBuffer@outputStream_binary@@SAXQAV1@@PBUbyteCount@@PAPAX@Z 
01:000165EC ?_getSizeBefore@outputStream_binary@@SAXQAV1@@IAAUbyteCount@@@Z 
01:00016670 ?bufferNotFound_exception@outputStream_binary@@SAXI@Z 
01:000166B0 ?checkUsePrevBuff@outputStream_binary@@SAXQAV1@@@Z  (Idle)
01:0001670C ?getBuffer@outputStream_binary@@SGXQAVbufferSupport@@@PAPAXAAUbyteCount@@@Z 
01:00016794 ?getBufferLocked@outputStream_binary@@SGXQAVbufferSupport@@@PAPAXAAUbyteCount@@@Z 
01:000167B0 ?_new@outputStream_binary@@SAXPAPAV1@@@Z 
01:000167D8 ?_object_facts_initializer@outputStream_binary@@SGXQAV1@@@Z 
01:000167F8 ?new@inputStream_binary@@SAXQAV1@@QAE@Z  (Idle)
01:0001682C ?new_pointer@inputStream_binary@@SAXQAV1@@PAXPBUbyteCount@core@@@Z 
01:00016864 ?setMode@inputStream_binary@@SGXQAVstream@@@PAUmode_struct@2@@Z 
01:000168AC ?close@inputStream_binary@@SGXQAVstream@@@@Z 
01:000168C4 ?getCRLFconversion@inputStream_binary@@SGPAUboolean_struct@_builtIn@@QAVstream@@@@Z 
01:000168DC ?setCRLFconversion@inputStream_binary@@SGXQAVstream@@@PAUboolean_struct@_builtIn@@@Z 
01:00016904 ?getPosition@inputStream_binary@@SGPBUfileSize@fileSystem_api@@QAVstream@@@@Z 
01:00016928 ?setPosition@inputStream_binary@@SGXQAVstream@@@PBUfileSize@fileSystem_api@@@Z 
01:00016994 ?getBuffer@inputStream_binary@@SGXQAVbufferSupport@@@PAPAXAAUbyteCount@@@Z 
01:000169B0 ?getBufferLocked@inputStream_binary@@SGXQAVbufferSupport@@@PAPAXAAUbyteCount@@@Z 
01:000169CC ?_new@inputStream_binary@@SAXQAEPAPAVinputStream@@@@Z  (Idle)
01:000169F4 ?_new_pointer@inputStream_binary@@SAXPAXPBUbyteCount@core@@PAPAVinputStream@@@@Z  (Idle)
01:00016A20 ?_object_facts_initializer@inputStream_binary@@SGXQAV1@@@Z 
01:00016A38 ?raise_invalidCompressionFormat_explicit@binary_exception@@SAXPAUprogramPoint_struct@core@@QAE@Z  (Idle)
01:00016AAC ?raise_internalDecodeError_explicit@binary_exception@@SAXPAUprogramPoint_struct@core@@QAE@Z  (Idle)
--- From 'Obj\arraym_inline.5CB777DB.obj'
01:00016B20 ?raise_indexOutOfRange_explicit@binary_exception@@SAXPAUprogramPoint_struct@core@@PBUbyteCount@@11@Z 
--- From 'Obj\binary.9C7C16C6.obj'
01:00016C4C ?raise_wrongBinaryFormat_explicit@binary_exception@@SAXPAUprogramPoint_struct@core@@QAE@Z  (Idle)
01:00016CC0 ?raise_wrongBinaryFormat_explicit@binary_exception@@SAXPAUprogramPoint_struct@core@@PBUbinaryNonAtomic@@@Z  (Idle)
01:00016D34 ?_create0binaryAtomic@binary@@SAXQAPAE@Z  (Idle)
01:00016D54 ?_create0binaryNonAtomic@binary@@SAXAAU2@@Z  (Idle)
01:00016D74 ?_createNonAtomic@binary@@SAXPBUbyteCount@@AAUbinaryNonAtomic@@@Z  (Idle)
01:00016DB4 ?_createNonAtomic@binary@@SAXPBUpositive@@PBUbyteCount@@AAUbinaryNonAtomic@@@Z  (Idle)
--- From 'Obj\filesystem.57D9C483.obj'
01:00016DD4 ?_createAtomic@binary@@SAXPBUbyteCount@@QAPAE@Z 
--- From 'Obj\binary.9C7C16C6.obj'
01:00016E18 ?_createAtomic@binary@@SAXPBUpositive@@PBUbyteCount@@QAPAE@Z  (Idle)
01:00016E38 ?_makeBinary@binary@@SAXPBUbyteCount@@QAPAE@Z 
01:00016E90 ?_makeBinaryNonAtomic@binary@@SAXPBUbyteCount@@AAUbinaryNonAtomic@@@Z 
01:00016EE8 ?_allocateNonAtomicBinary@binary@@SAXPBUbyteCount@@PAPAX@Z 
01:00016F34 ?_createCopyNonAtomic@binary@@SAXPBUbinaryNonAtomic@@AAU2@@Z  (Idle)
01:00016FB0 ?_createCopyAtomic@binary@@SAXQAEQAPAE@Z  (Idle)
01:00017030 ?_createNonAtomicFromPointer@binary@@SAXPAXPBUbyteCount@@AAUbinaryNonAtomic@@@Z  (Idle)
01:00017074 ?_createAtomicFromPointer@binary@@SAXPAXPBUbyteCount@@QAPAE@Z 
01:000170B8 ?_createAtomicFromIntegerList@binary@@SAXPAU?$__packedList_struct@Uinteger@@@@QAPAE@Z  (Idle)
--- From 'Obj\filesystem.57D9C483.obj'
01:00017110 ?_getSize@binary@@SAXQAEAAUbyteCount@@@Z 
--- From 'Obj\binary.9C7C16C6.obj'
01:0001712C ?_getBinaryHeaderPtr@binary@@SAXQAEPAPAX@Z  (Idle)
01:00017164 ?_reSizeNonAtomic@binary@@SAXPBUbinaryNonAtomic@@PBUbyteCount@@AAU2@@Z  (Idle)
01:00017210 ?_reSizeAtomic@binary@@SAXQAEPBUbyteCount@@QAPAE@Z  (Idle)
01:000172BC ?_concatNonAtomic@binary@@SAXPBUbinaryNonAtomic@@0AAU2@@Z  (Idle)
01:00017334 ?_concatAtomic@binary@@SAXQAEQAEQAPAE@Z  (Idle)
01:000173AC ?_insertAtomic@binary@@SAXQAEPBUbyteCount@@QAEQAPAE@Z  (Idle)
01:00017484 ?_insertNonAtomic@binary@@SAXPBUbinaryNonAtomic@@PBUbyteCount@@QAEAAU2@@Z  (Idle)
01:0001755C ?_deleteAtomic@binary@@SAXQAEPBUbyteCount@@1QAPAE@Z  (Idle)
01:000175FC ?_deleteNonAtomic@binary@@SAXPBUbinaryNonAtomic@@PBUbyteCount@@1AAU2@@Z  (Idle)
01:0001769C ?_getIndexed_unsigned8@binary@@SAXQAEPBUpositive@@AAU3@@Z  (Idle)
--- From 'Obj\filesystem.57D9C483.obj'
01:000176E8 ?_getIndexed_unsigned16@binary@@SAXQAEPBUpositive@@AAU3@@Z 
--- From 'Obj\binary.9C7C16C6.obj'
01:00017738 ?_getIndexed_unsigned64@binary@@SAXQAEPBUpositive@@PAPA_K@Z  (Idle)
01:00017788 ?_getIndexed_integer8@binary@@SAXQAEPBUpositive@@AAU3@@Z  (Idle)
01:000177D4 ?_getIndexed_integer16@binary@@SAXQAEPBUpositive@@AAU3@@Z  (Idle)
01:00017824 ?_getIndexed_integer64@binary@@SAXQAEPBUpositive@@PAPA_J@Z  (Idle)
--- From 'Obj\exception.544F7452.obj'
01:00017874 ?_getIndexed_unsignedNative@binary@@SAXQAEPBUpositive@@AAU3@@Z 
--- From 'Obj\binary.9C7C16C6.obj'
01:000178C4 ?_getIndexed_unsigned@binary@@SAXQAEPBUpositive@@PAI@Z  (Idle)
01:00017914 ?_getIndexed_integerNative@binary@@SAXQAEPBUpositive@@AAU3@@Z  (Idle)
01:00017964 ?_getIndexed_integer@binary@@SAXQAEPBUpositive@@PAH@Z  (Idle)
01:000179B4 ?_getIndexed_real32@binary@@SAXQAEPBUpositive@@PAM@Z  (Idle)
01:00017A04 ?_getIndexed_real@binary@@SAXQAEPBUpositive@@PAPAN@Z  (Idle)
01:00017A54 ?_getIndexed_pointer@binary@@SAXPBUbinaryNonAtomic@@PBUpositive@@PAPAX@Z  (Idle)
01:00017AA4 ?_getIndexed_object@binary@@SAXPBUbinaryNonAtomic@@PBUpositive@@PAPAV4@@@Z  (Idle)
01:00017B00 ?_getIndexed_string@binary@@SAXPBUbinaryNonAtomic@@PBUpositive@@PAPB_W@Z  (Idle)
01:00017B5C ?setIndexed_unsigned8@binary@@SAXQAEPBUpositive@@PBU3@@Z  (Idle)
01:00017BA8 ?setIndexed_unsigned16@binary@@SAXQAEPBUpositive@@PBU3@@Z  (Idle)
01:00017BF8 ?setIndexed_unsigned64@binary@@SAXQAEPBUpositive@@PA_K@Z  (Idle)
01:00017C48 ?setIndexed_integer8@binary@@SAXQAEPBUpositive@@PBU3@@Z  (Idle)
01:00017C94 ?setIndexed_integer16@binary@@SAXQAEPBUpositive@@PBU3@@Z  (Idle)
01:00017CE4 ?setIndexed_integer64@binary@@SAXQAEPBUpositive@@PA_J@Z  (Idle)
01:00017D34 ?setIndexed_integerNative@binary@@SAXQAEPBUpositive@@PBU3@@Z  (Idle)
01:00017D84 ?setIndexed_integer@binary@@SAXQAEPBUpositive@@H@Z  (Idle)
01:00017DD4 ?setIndexed_unsignedNative@binary@@SAXQAEPBUpositive@@PBU3@@Z  (Idle)
01:00017E24 ?setIndexed_unsigned@binary@@SAXQAEPBUpositive@@I@Z  (Idle)
01:00017E74 ?setIndexed_real32@binary@@SAXQAEPBUpositive@@M@Z  (Idle)
01:00017EC4 ?setIndexed_real@binary@@SAXQAEPBUpositive@@PAN@Z  (Idle)
01:00017F14 ?setIndexed_pointer@binary@@SAXPBUbinaryNonAtomic@@PBUpositive@@PAX@Z  (Idle)
01:00017F64 ?setIndexed_object@binary@@SAXPBUbinaryNonAtomic@@PBUpositive@@QAV4@@@Z  (Idle)
01:00017FB4 ?setIndexed_string@binary@@SAXPBUbinaryNonAtomic@@PBUpositive@@PB_W@Z  (Idle)
01:00018004 ?_getBinaryNonAtomic@binary@@SAXPBUbinaryNonAtomic@@PBUbyteCount@@1AAU2@@Z  (Idle)
01:000180A4 ?_getBinaryAtomic@binary@@SAXQAEPBUbyteCount@@1QAPAE@Z  (Idle)
01:00018144 ?setBinaryNonAtomic@binary@@SAXPBUbinaryNonAtomic@@PBUbyteCount@@QAE@Z  (Idle)
01:000181E4 ?setBinaryAtomic@binary@@SAXQAEPBUbyteCount@@QAE@Z  (Idle)
01:00018294 ?setValue@binary@@SAXQAEPBUbyteCount@@PAUvalue_struct@core@@@Z  (Idle)
01:000187D4 $getValue$binary_class$predicate$(i,i,unsigned64(o))$b$_c89  (Idle)
01:00018828 ?_getString@binary@@SAXPAXPBUcharCount@@PAPB_W@Z  (Idle)
01:0001891C ?checkOffsetForSetGetValue@binary@@SAXQAEPBUbyteCount@@1@Z 
01:0001895C ?fillFromIntegerList@binary@@SAXQAEPBUpositive@@PAU?$__packedList_struct@Uinteger@@@@@Z 
01:000189A4 ?copyTailIfNeeded@binary@@SAXQAEPBUbyteCount@@1QAE1@Z 
01:00018A08 ?splitBinaryNonAtomic@binary@@SAXPBUbinaryNonAtomic@@PBUbyteCount@@AAU2@2@Z  (Idle)
01:00018A48 ?splitBinaryAtomic@binary@@SAXQAEPBUbyteCount@@QAPAE2@Z  (Idle)
01:00018A88 ?_binaryToStringList@binary@@SAXQAEPAPAU?$__packedList_struct@Ustring@@@@@Z  (Idle)
01:00018AC4 ?_getStringList@binary@@SAXPAXPBUbyteCount@@PAPAU?$__packedList_struct@Ustring@@@@@Z 
01:00018C20 ?_search@binary@@SAXQAEQAEAAUbyteCount@@@Z  (Idle)
01:00018C68 ?_binary8ToStringList@binary@@SAXQAEPAPAU?$__packedList_struct@Ustring@@@@@Z  (Idle)
01:00018C84 ?_binary8ToStringList@binary@@SAXQAEPBUcodePage@@PAPAU?$__packedList_struct@Ustring@@@@@Z 
01:00018CCC ?_getStringListForBinary8@binary@@SAXPAXPBUbyteCount@@PBUcodePage@@PAPAU?$__packedList_struct@Ustring@@@@@Z 
01:00018E0C binaryIsAtomicExpectedNonAtomic 
01:00018E38 doNothing 
01:00018E40 ?_calculateCRC@binary@@SAXQAEPAI@Z  (Idle)
01:00018E5C ?_getPointer2nullaryBinary@binary@@SAXPAPAX@Z 
01:00018E70 ?_getSize@binary@@SAXPBUbinaryNonAtomic@@AAUbyteCount@@@Z 
01:00018E8C ?_getBinaryHeaderPtr@binary@@SAXPBUbinaryNonAtomic@@PAPAX@Z  (Idle)
01:00018EC4 ?_insertNonAtomic@binary@@SAXPBUbinaryNonAtomic@@PBUbyteCount@@0AAU2@@Z  (Idle)
01:00018F9C ?_getIndexed_unsigned8@binary@@SAXPBUbinaryNonAtomic@@PBUpositive@@AAU4@@Z  (Idle)
01:00018FE8 ?_getIndexed_unsigned16@binary@@SAXPBUbinaryNonAtomic@@PBUpositive@@AAU4@@Z  (Idle)
01:00019038 ?_getIndexed_unsigned64@binary@@SAXPBUbinaryNonAtomic@@PBUpositive@@PAPA_K@Z  (Idle)
01:00019088 ?_getIndexed_integer8@binary@@SAXPBUbinaryNonAtomic@@PBUpositive@@AAU4@@Z  (Idle)
01:000190D4 ?_getIndexed_integer16@binary@@SAXPBUbinaryNonAtomic@@PBUpositive@@AAU4@@Z  (Idle)
01:00019124 ?_getIndexed_integer64@binary@@SAXPBUbinaryNonAtomic@@PBUpositive@@PAPA_J@Z  (Idle)
01:00019174 ?_getIndexed_unsignedNative@binary@@SAXPBUbinaryNonAtomic@@PBUpositive@@AAU4@@Z  (Idle)
01:000191C4 ?_getIndexed_unsigned@binary@@SAXPBUbinaryNonAtomic@@PBUpositive@@PAI@Z  (Idle)
01:00019214 ?_getIndexed_integerNative@binary@@SAXPBUbinaryNonAtomic@@PBUpositive@@AAU4@@Z  (Idle)
01:00019264 ?_getIndexed_integer@binary@@SAXPBUbinaryNonAtomic@@PBUpositive@@PAH@Z  (Idle)
01:000192B4 ?_getIndexed_real32@binary@@SAXPBUbinaryNonAtomic@@PBUpositive@@PAM@Z  (Idle)
01:00019304 ?_getIndexed_real@binary@@SAXPBUbinaryNonAtomic@@PBUpositive@@PAPAN@Z  (Idle)
01:00019354 ?setIndexed_unsigned8@binary@@SAXPBUbinaryNonAtomic@@PBUpositive@@PBU4@@Z  (Idle)
01:000193A0 ?setIndexed_unsigned16@binary@@SAXPBUbinaryNonAtomic@@PBUpositive@@PBU4@@Z  (Idle)
01:000193F0 ?setIndexed_unsigned64@binary@@SAXPBUbinaryNonAtomic@@PBUpositive@@PA_K@Z  (Idle)
01:00019440 ?setIndexed_integer8@binary@@SAXPBUbinaryNonAtomic@@PBUpositive@@PBU4@@Z  (Idle)
01:0001948C ?setIndexed_integer16@binary@@SAXPBUbinaryNonAtomic@@PBUpositive@@PBU4@@Z  (Idle)
01:000194DC ?setIndexed_integer64@binary@@SAXPBUbinaryNonAtomic@@PBUpositive@@PA_J@Z  (Idle)
01:0001952C ?setIndexed_integerNative@binary@@SAXPBUbinaryNonAtomic@@PBUpositive@@PBU4@@Z  (Idle)
01:0001957C ?setIndexed_integer@binary@@SAXPBUbinaryNonAtomic@@PBUpositive@@H@Z  (Idle)
01:000195CC ?setIndexed_unsignedNative@binary@@SAXPBUbinaryNonAtomic@@PBUpositive@@PBU4@@Z  (Idle)
01:0001961C ?setIndexed_unsigned@binary@@SAXPBUbinaryNonAtomic@@PBUpositive@@I@Z  (Idle)
01:0001966C ?setIndexed_real32@binary@@SAXPBUbinaryNonAtomic@@PBUpositive@@M@Z  (Idle)
01:000196BC ?setIndexed_real@binary@@SAXPBUbinaryNonAtomic@@PBUpositive@@PAN@Z  (Idle)
01:0001970C ?setBinaryNonAtomic@binary@@SAXPBUbinaryNonAtomic@@PBUbyteCount@@0@Z  (Idle)
01:000197AC ?setBinaryAtomic@binary@@SAXPBUbinaryNonAtomic@@PBUbyteCount@@QAE@Z  (Idle)
01:0001985C ?setBinaryAtomic@binary@@SAXPBUbinaryNonAtomic@@PBUbyteCount@@0@Z  (Idle)
01:0001990C ?setValue@binary@@SAXPBUbinaryNonAtomic@@PBUbyteCount@@PAUvalue_struct@core@@@Z  (Idle)
01:00019E4C $getValue$binary_class$predicate$(i,i,unsigned(o))$b$_c90  (Idle)
01:00019EA0 $getValue$binary_class$predicate$(i,i,integer64(o))$b$_c91  (Idle)
01:00019EF4 $getValue$binary_class$predicate$(i,i,integer(o))$b$_c92 
01:00019F48 $getValue$binary_class$predicate$(i,i,real(o))$b$_c93  (Idle)
01:00019F9C $getValue$binary_class$predicate$(i,i,char(o))$b$_c94  (Idle)
01:00019FF4 $getValue$binary_class$predicate$(i,i,string(o))$b$_c95  (Idle)
01:0001A064 $getValue$binary_class$predicate$(i,i,localtimevalue(o))$b$_c96  (Idle)
01:0001A0B8 $getValue$binary_class$predicate$(i,i,gmttimevalue(o))$b$_c97  (Idle)
01:0001A10C $getValue$binary_class$predicate$(i,i,unsigned64(o))$b$_c98  (Idle)
01:0001A160 $getValue$binary_class$predicate$(i,i,unsigned(o))$b$_c99  (Idle)
01:0001A1B4 $getValue$binary_class$predicate$(i,i,integer64(o))$b$_c100  (Idle)
01:0001A208 $getValue$binary_class$predicate$(i,i,integer(o))$b$_c101  (Idle)
01:0001A25C $getValue$binary_class$predicate$(i,i,real(o))$b$_c102  (Idle)
01:0001A2B0 $getValue$binary_class$predicate$(i,i,pointer(o))$b$_c103  (Idle)
01:0001A304 $getValue$binary_class$predicate$(i,i,object(o))$b$_c104  (Idle)
01:0001A358 $getValue$binary_class$predicate$(i,i,char(o))$b$_c105  (Idle)
01:0001A3B0 $getValue$binary_class$predicate$(i,i,string(o))$b$_c106  (Idle)
01:0001A420 $getValue$binary_class$predicate$(i,i,localtimevalue(o))$b$_c107  (Idle)
01:0001A474 $getValue$binary_class$predicate$(i,i,gmttimevalue(o))$b$_c108  (Idle)
01:0001A4C8 ?checkOffsetForSetGetValue@binary@@SAXPBUbinaryNonAtomic@@PBUbyteCount@@1@Z 
01:0001A508 ?copyTailIfNeeded@binary@@SAXPBUbinaryNonAtomic@@PBUbyteCount@@101@Z 
01:0001A778 outputStream_binary?_initObject@@@QAGXQAV1@H@Z 
01:0001A7AC ?@create_object@outputStream_binary@@SGQAV1@@XZ 
01:0001A7C8 outputStream_binary?_InternalFinalizer@@@QAGXQAV1@@Z 
01:0001AA54 inputStream_binary?_initObject@@@QAGXQAV1@H@Z 
01:0001AA88 ?@create_object@inputStream_binary@@SGQAV1@@XZ 
01:0001AAA4 inputStream_binary?_InternalFinalizer@@@QAGXQAV1@@Z 
--- From 'Obj\boolean.CB308F06.obj'
01:0001AAC0 ?_toBooleanInt@boolean@@SAXPAUboolean_struct@_builtIn@@AAUbooleanInt@@@Z 
01:0001AAE4 ?_fromBooleanInt@boolean@@SAXPBUbooleanInt@@PAPAUboolean_struct@_builtIn@@@Z 
--- From 'Obj\varm.17B5C45B.obj'
01:0001AB08 ?_logicalNot@boolean@@SAXPAUboolean_struct@_builtIn@@PAPAU23@@Z 
01:0001AB2C ?_logicalAnd@boolean@@SAXPAUboolean_struct@_builtIn@@0PAPAU23@@Z 
01:0001AB68 ?_logicalOr@boolean@@SAXPAUboolean_struct@_builtIn@@0PAPAU23@@Z 
01:0001ABA4 ?_logicalXor@boolean@@SAXPAUboolean_struct@_builtIn@@0PAPAU23@@Z 
--- From 'Obj\boolean.CB308F06.obj'
01:0001ABCC ?_ifExp@boolean@@SAXQAVrTypeLibrary@TypeLibraries@RunTime@VIP@@PAUboolean_struct@_builtIn@@PAXPAXPAPAX@Z  (Idle)
--- From 'Obj\redblackset.314226AB.obj'
01:0001ABF0 ?_anonymous$c0$1$empty/0$redBlackSet@1@SAXPAUanonymous$c0$1$empty/0$redBlackSetc_struct@1@PAXPAXPAPAUcompareResult_struct@_builtIn@@@Z 
--- From 'Obj\setm_redblack.F3ED8D4F.obj'
01:0001AC08 ?_empty@redBlackSet@@SAXQAVrTypeLibrary@TypeLibraries@RunTime@VIP@@PAPAUset_struct@1@PAPAX@Z 
01:0001AC5C ?_emptyCustom@redBlackSet@@SAXQAVrTypeLibrary@TypeLibraries@RunTime@VIP@@XPAPAUset_struct@1@PAPAX@Z 
01:0001AC88 ?_emptySameKind@redBlackSet@@SAXQAVrTypeLibrary@TypeLibraries@RunTime@VIP@@PAUset_struct@1@PAXPAPAU21@PAPAX@Z 
--- From 'Obj\redblackset.314226AB.obj'
01:0001ACC0 ?isEmpty@redBlackSet@@SAXQAVrTypeLibrary@TypeLibraries@RunTime@VIP@@PAUset_struct@1@PAX@Z  (Idle)
--- From 'Obj\setm_redblack.F3ED8D4F.obj'
01:0001ACD8 ?_insert@redBlackSet@@SAXQAVrTypeLibrary@TypeLibraries@RunTime@VIP@@PAUset_struct@1@PAXPAXPAPAU21@PAPAX@Z 
01:0001AD38 ?_delete@redBlackSet@@SAXQAVrTypeLibrary@TypeLibraries@RunTime@VIP@@PAUset_struct@1@PAXPAXPAPAU21@PAPAX@Z 
--- From 'Obj\redblackset.314226AB.obj'
01:0001AD98 ?_tryDeleteFirst@redBlackSet@@SAXQAVrTypeLibrary@TypeLibraries@RunTime@VIP@@PAUset_struct@1@PAXPAPAXPAPAU21@PAPAX@Z  (Idle)
--- From 'Obj\setm_redblack.F3ED8D4F.obj'
01:0001ADC8 ?isMember@redBlackSet@@SAXQAVrTypeLibrary@TypeLibraries@RunTime@VIP@@PAXPAUset_struct@1@PAX@Z 
01:0001ADFC ?_getAll_nd@redBlackSet@@SAXQAVrTypeLibrary@TypeLibraries@RunTime@VIP@@PAUset_struct@1@PAXPAPAX@Z 
--- From 'Obj\redblackset.314226AB.obj'
01:0001AE14 ?_getAll_multi@redBlackSet@@SAXQAVrTypeLibrary@TypeLibraries@RunTime@VIP@@PAUset_struct@1@PAXPAPAX@Z  (Idle)
--- From 'Obj\setm_redblack.F3ED8D4F.obj'
01:0001AE2C ?_upFrom_nd@redBlackSet@@SAXQAVrTypeLibrary@TypeLibraries@RunTime@VIP@@PAUset_struct@1@PAXPAXPAPAX@Z 
--- From 'Obj\redblackset.314226AB.obj'
01:0001AE68 ?_up_nd@redBlackSet@@SAXQAVrTypeLibrary@TypeLibraries@RunTime@VIP@@PAUset_struct@1@PAXPAPAX@Z  (Idle)
01:0001AE80 ?_tryGetMin@redBlackSet@@SAXQAVrTypeLibrary@TypeLibraries@RunTime@VIP@@PAUset_struct@1@PAXPAPAX@Z  (Idle)
--- From 'Obj\setm_redblack.F3ED8D4F.obj'
01:0001AEA4 ?_downFrom_nd@redBlackSet@@SAXQAVrTypeLibrary@TypeLibraries@RunTime@VIP@@PAUset_struct@1@PAXPAXPAPAX@Z 
--- From 'Obj\redblackset.314226AB.obj'
01:0001AEE0 ?_down_nd@redBlackSet@@SAXQAVrTypeLibrary@TypeLibraries@RunTime@VIP@@PAUset_struct@1@PAXPAPAX@Z  (Idle)
01:0001AEF8 ?_tryGetMax@redBlackSet@@SAXQAVrTypeLibrary@TypeLibraries@RunTime@VIP@@PAUset_struct@1@PAXPAPAX@Z  (Idle)
01:0001AF1C ?find_nd_rep@redBlackSet@@SAXQAVrTypeLibrary@TypeLibraries@RunTime@VIP@@XPAXPAUsetRep_struct@1@PAX@Z 
01:0001AF8C ?find_nd_rep1@redBlackSet@@SAXQAVrTypeLibrary@TypeLibraries@RunTime@VIP@@XPAUcompareResult_struct@_builtIn@@PAXPAUsetRep_struct@1@PAX4@Z 
01:0001AFD0 ?_get_nd_rep@redBlackSet@@SAXQAVrTypeLibrary@TypeLibraries@RunTime@VIP@@PAUsetRep_struct@1@PAXPAPAX@Z 
01:0001B060 ?_get_multi_rep@redBlackSet@@SAXQAVrTypeLibrary@TypeLibraries@RunTime@VIP@@PAUsetRep_struct@1@PAXPAPAX@Z 
01:0001B138 ?_upFrom_nd_rep@redBlackSet@@SAXQAVrTypeLibrary@TypeLibraries@RunTime@VIP@@XPAXPAUsetRep_struct@1@PAXPAPAX@Z 
01:0001B1BC ?_upFrom_nd_rep1@redBlackSet@@SAXQAVrTypeLibrary@TypeLibraries@RunTime@VIP@@XPAUcompareResult_struct@_builtIn@@PAXPAUsetRep_struct@1@PAXPAX4PAPAX@Z 
01:0001B270 ?_downFrom_nd_rep@redBlackSet@@SAXQAVrTypeLibrary@TypeLibraries@RunTime@VIP@@XPAXPAUsetRep_struct@1@PAXPAPAX@Z 
01:0001B2F4 ?_downFrom_nd_rep1@redBlackSet@@SAXQAVrTypeLibrary@TypeLibraries@RunTime@VIP@@XPAUcompareResult_struct@_builtIn@@PAXPAUsetRep_struct@1@PAXPAX4PAPAX@Z 
01:0001B3A8 ?_down_nd_rep@redBlackSet@@SAXQAVrTypeLibrary@TypeLibraries@RunTime@VIP@@PAUsetRep_struct@1@PAXPAPAX@Z 
01:0001B438 ?tryGetNode@redBlackSet@@SAXQAVrTypeLibrary@TypeLibraries@RunTime@VIP@@PAUsetRep_struct@1@PAXPAPAU21@PAPAXPAPAX2@Z 
01:0001B4A8 ?_insert_rep@redBlackSet@@SAXQAVrTypeLibrary@TypeLibraries@RunTime@VIP@@XPAXPAUsetRep_struct@1@PAXPAPAU21@PAPAX@Z 
01:0001B500 ?_tryIns@redBlackSet@@SAXQAVrTypeLibrary@TypeLibraries@RunTime@VIP@@XPAXPAUsetRep_struct@1@PAXPAPAU21@PAPAX@Z 
01:0001B650 ?_tryIns_black@redBlackSet@@SAXQAVrTypeLibrary@TypeLibraries@RunTime@VIP@@XPAUcompareResult_struct@_builtIn@@PAXPAUsetRep_struct@1@PAXPAX4PAPAU41@PAPAX@Z 
01:0001B6E4 ?_tryIns_red@redBlackSet@@SAXQAVrTypeLibrary@TypeLibraries@RunTime@VIP@@XPAUcompareResult_struct@_builtIn@@PAXPAUsetRep_struct@1@PAXPAX4PAPAU41@PAPAX@Z 
01:0001B788 ?_balance@redBlackSet@@SAXQAVrTypeLibrary@TypeLibraries@RunTime@VIP@@PAUsetRep_struct@1@PAXPAX1PAPAU21@PAPAX@Z 
01:0001BFBC ?_makeblack@redBlackSet@@SAXQAVrTypeLibrary@TypeLibraries@RunTime@VIP@@PAUsetRep_struct@1@PAXPAPAU21@PAPAX@Z 
01:0001C030 ?_delete_rep@redBlackSet@@SAXQAVrTypeLibrary@TypeLibraries@RunTime@VIP@@XPAXPAUsetRep_struct@1@PAXPAPAU21@PAPAX@Z 
01:0001C080 ?del@redBlackSet@@SAXQAVrTypeLibrary@TypeLibraries@RunTime@VIP@@XPAXPAUsetRep_struct@1@PAXPAPAU21@PAPAXPAPAUboolean_struct@_builtIn@@@Z 
01:0001C13C ?del1@redBlackSet@@SAXQAVrTypeLibrary@TypeLibraries@RunTime@VIP@@XPAUcompareResult_struct@_builtIn@@PAXPAUsetRep_struct@1@PAXPAX4PAPAU41@PAPAXPAPAUboolean_struct@3@@Z 
01:0001C1D0 ?delLeft@redBlackSet@@SAXQAVrTypeLibrary@TypeLibraries@RunTime@VIP@@XPAXPAUsetRep_struct@1@PAXPAX3PAPAU21@PAPAXPAPAUboolean_struct@_builtIn@@@Z 
01:0001C270 ?delRight@redBlackSet@@SAXQAVrTypeLibrary@TypeLibraries@RunTime@VIP@@XPAXPAUsetRep_struct@1@PAXPAX3PAPAU21@PAPAXPAPAUboolean_struct@_builtIn@@@Z 
01:0001C318 ?_balLeft@redBlackSet@@SAXQAVrTypeLibrary@TypeLibraries@RunTime@VIP@@PAUsetRep_struct@1@PAXPAX1PAPAU21@PAPAX@Z 
01:0001C5CC ?_balRight@redBlackSet@@SAXQAVrTypeLibrary@TypeLibraries@RunTime@VIP@@PAUsetRep_struct@1@PAXPAX1PAPAU21@PAPAX@Z 
01:0001C884 ?_sub1@redBlackSet@@SAXQAVrTypeLibrary@TypeLibraries@RunTime@VIP@@PAUsetRep_struct@1@PAXPAPAU21@PAPAX@Z 
01:0001C90C ?_mkNode@redBlackSet@@SAXQAVrTypeLibrary@TypeLibraries@RunTime@VIP@@PAUsetRep_struct@1@PAX1PAPAU21@PAPAX@Z 
01:0001CBBC ?_mkNodeRR_BC@redBlackSet@@SAXQAVrTypeLibrary@TypeLibraries@RunTime@VIP@@PAUsetRep_struct@1@PAXPAX1PAX1PAPAU21@PAPAX@Z 
01:0001CCB8 ?_mkNodeBB_BC@redBlackSet@@SAXQAVrTypeLibrary@TypeLibraries@RunTime@VIP@@PAUsetRep_struct@1@PAXPAX1PAX1PAPAU21@PAPAX@Z 
--- From 'Obj\mapm_redblack.D48B3F53.obj'
01:0001CDB0 ?new@mapM_redBlack@@SAXQAV1@@PAXPAXQAVrTypeLibrary@TypeLibraries@RunTime@VIP@@1@Z  (Idle)
01:0001CDF8 ?newCustom@mapM_redBlack@@SAXQAV1@@PAXPAXQAVrTypeLibrary@TypeLibraries@RunTime@VIP@@1X@Z  (Idle)
01:0001CE34 ?set@mapM_redBlack@@SAXQAVmapM@@@PAXPAXPAXPAX@Z 
01:0001CE78 ?_tryGet@mapM_redBlack@@SAXQAVmap@@@PAXPAXPAXPAPAX@Z 
01:0001CEC0 ?_getAll_nd@mapM_redBlack@@SAXQAVcollection@@@PAXPAPAX@Z 
01:0001CF00 ?removeKey@mapM_redBlack@@SAXQAVmapM@@@PAXPAXPAX@Z 
01:0001CF58 ?clear@mapM_redBlack@@SAXQAVmodifiable@@@PAX@Z 
01:0001CF94 ?_upFrom_nd@mapM_redBlack@@SAXQAVmap@@@PAXPAXPAXPAPAUtuple_struct@core@@PAPAXPAPAX@Z 
01:0001CFDC ?_downFrom_nd@mapM_redBlack@@SAXQAVmap@@@PAXPAXPAXPAPAUtuple_struct@core@@PAPAXPAPAX@Z 
--- From 'Obj\list.1520BD2B.obj'
01:0001D024 ?_new@mapM_redBlack@@SAXQAVrTypeLibrary@TypeLibraries@RunTime@VIP@@0PAPAVmapM@@@PAPAXPAPAX@Z 
--- From 'Obj\mapm_redblack.D48B3F53.obj'
01:0001D058 ?_newCustom@mapM_redBlack@@SAXQAVrTypeLibrary@TypeLibraries@RunTime@VIP@@0XPAPAVmapM@@@PAPAXPAPAX@Z  (Idle)
01:0001D08C ?_object_typelib_initializer@mapM_redBlack@@SGXQAV1@@PAXPAXQAVrTypeLibrary@TypeLibraries@RunTime@VIP@@1@Z 
01:0001D45C mapM_redBlack{@Key,@Data}?_initObject@@@QAGXQAV1@H@Z 
01:0001D4A0 ?@create_object@mapM_redBlack@@SGQAV1@@PAXPAXQAVrTypeLibrary@TypeLibraries@RunTime@VIP@@0@Z 
01:0001D4C8 mapM_redBlack{@Key,@Data}?_InternalFinalizer@@@QAGXQAV1@@Z 
--- From 'Obj\setm_redblack.F3ED8D4F.obj'
01:0001D4E0 ?new@setM_redBlack@@SAXQAV1@@PAXQAVrTypeLibrary@TypeLibraries@RunTime@VIP@@@Z  (Idle)
01:0001D508 ?new@setM_redBlack@@SAXQAV1@@PAXQAVrTypeLibrary@TypeLibraries@RunTime@VIP@@PAU?$__packedList_struct@PAX@@@Z  (Idle)
01:0001D528 ?newSingleton@setM_redBlack@@SAXQAV1@@PAXQAVrTypeLibrary@TypeLibraries@RunTime@VIP@@PAX@Z  (Idle)
01:0001D548 ?newCustom@setM_redBlack@@SAXQAV1@@PAXQAVrTypeLibrary@TypeLibraries@RunTime@VIP@@X@Z  (Idle)
01:0001D570 ?newInternal@setM_redBlack@@SAXQAV1@@PAXQAVrTypeLibrary@TypeLibraries@RunTime@VIP@@PAUset_struct@redBlackSet@@PAX@Z 
01:0001D58C ?contains@setM_redBlack@@SAXQAVcollection@@@PAXPAX@Z 
01:0001D5BC ?_getAll_nd@setM_redBlack@@SAXQAVcollection@@@PAXPAPAX@Z 
01:0001D5EC ?insert@setM_redBlack@@SAXQAVmodifiable@@@PAXPAX@Z 
01:0001D624 ?remove@setM_redBlack@@SAXQAVmodifiable@@@PAXPAX@Z 
01:0001D65C ?clear@setM_redBlack@@SAXQAVmodifiable@@@PAX@Z 
01:0001D690 ?_upFrom_nd@setM_redBlack@@SAXQAVset@@@PAXPAXPAPAX@Z 
01:0001D6CC ?_downFrom_nd@setM_redBlack@@SAXQAVset@@@PAXPAXPAPAX@Z 
--- From 'Obj\list.1520BD2B.obj'
01:0001D708 ?_new@setM_redBlack@@SAXQAVrTypeLibrary@TypeLibraries@RunTime@VIP@@PAPAVsetM@@@PAPAX@Z 
--- From 'Obj\setm_redblack.F3ED8D4F.obj'
01:0001D734 ?_new@setM_redBlack@@SAXQAVrTypeLibrary@TypeLibraries@RunTime@VIP@@PAU?$__packedList_struct@PAX@@PAPAVsetM@@@PAPAX@Z  (Idle)
01:0001D764 ?_newSingleton@setM_redBlack@@SAXQAVrTypeLibrary@TypeLibraries@RunTime@VIP@@PAXPAPAVsetM@@@PAPAX@Z  (Idle)
--- From 'Obj\list.1520BD2B.obj'
01:0001D794 ?_newCustom@setM_redBlack@@SAXQAVrTypeLibrary@TypeLibraries@RunTime@VIP@@XPAPAVsetM@@@PAPAX@Z 
--- From 'Obj\setm_redblack.F3ED8D4F.obj'
01:0001D7C4 ?_object_typelib_initializer@setM_redBlack@@SGXQAV1@@PAXQAVrTypeLibrary@TypeLibraries@RunTime@VIP@@@Z 
01:0001D9CC setM_redBlack{@Type}?_initObject@@@QAGXQAV1@H@Z 
01:0001DA08 ?@create_object@setM_redBlack@@SGQAV1@@PAXQAVrTypeLibrary@TypeLibraries@RunTime@VIP@@@Z 
01:0001DA2C setM_redBlack{@Type}?_InternalFinalizer@@@QAGXQAV1@@Z 
--- From 'Obj\mapmsupport.59EA0039.obj'
01:0001DA40 ?new@collectionMsupport@collectionSupportM@@SAXQAV1@2@PAXQAVrTypeLibrary@TypeLibraries@RunTime@VIP@@QAVcollectionMsite@@2@PAX@Z 
--- From 'Obj\collectionmsupport.662A7565.obj'
01:0001DA78 ?insertList@collectionMsupport@collectionSupportM@@SAXQAV1@2@PAXPAU?$__packedList_struct@PAX@@@Z 
01:0001DAC0 ?insertCollection@collectionMsupport@collectionSupportM@@SAXQAV1@2@PAXQAVcollection@@@PAX@Z 
01:0001DB08 ?insertEnumerator@collectionMsupport@collectionSupportM@@SAXQAV1@2@PAXX@Z 
01:0001DB58 ?removeList@collectionMsupport@collectionSupportM@@SAXQAV1@2@PAXPAU?$__packedList_struct@PAX@@@Z 
01:0001DBA0 ?removeCollection@collectionMsupport@collectionSupportM@@SAXQAV1@2@PAXQAVcollection@@@PAX@Z 
01:0001DBE8 ?_tryRemoveFirst@collectionMsupport@collectionSupportM@@SAXQAV1@2@PAXPAPAX@Z 
01:0001DC1C ?_new@collectionMsupport@collectionSupportM@@SAXQAVrTypeLibrary@TypeLibraries@RunTime@VIP@@QAVcollectionMsite@@2@PAXPAPAV1@2@PAPAX@Z  (Idle)
01:0001DC50 ?_object_typelib_initializer@collectionMsupport@collectionSupportM@@SGXQAV1@2@PAXQAVrTypeLibrary@TypeLibraries@RunTime@VIP@@@Z 
--- From 'Obj\mapmsupport.59EA0039.obj'
01:0001DCC0 collectionSupportM\collectionMsupport{@Type}?_initObject@@@QAGXQAV1@H@Z 
--- From 'Obj\collectionmsupport.662A7565.obj'
01:0001DD00 ?@create_object@collectionMsupport@collectionSupportM@@SGQAV1@2@PAXQAVrTypeLibrary@TypeLibraries@RunTime@VIP@@@Z 
--- From 'Obj\mapmsupport.59EA0039.obj'
01:0001DD24 collectionSupportM\collectionMsupport{@Type}?_InternalFinalizer@@@QAGXQAV1@@Z 
--- From 'Obj\arraym_inline.5CB777DB.obj'
01:0001DD40 ?new@mapMSupport@collectionSupportM@@SAXQAV1@2@PAXPAXQAVrTypeLibrary@TypeLibraries@RunTime@VIP@@1QAVmapMSite@@2@PAXPAX@Z 
--- From 'Obj\mapmsupport.59EA0039.obj'
01:0001DD94 ?_get@mapMSupport@collectionSupportM@@SAXQAV1@@PAXPAXPAXPAPAX@Z 
01:0001DE0C ?_get_default@mapMSupport@collectionSupportM@@SAXQAV1@@PAXPAXPAXPAXPAPAX@Z 
01:0001DE50 ?_get_defaultLazy@mapMSupport@collectionSupportM@@SAXQAV1@@PAXPAXPAXXPAPAX@Z 
01:0001DEA8 ?_get_optional@mapMSupport@collectionSupportM@@SAXQAV1@@PAXPAXPAXPAPAUoptional_struct@core@@PAPAX@Z 
01:0001DF08 ?contains@mapMSupport@collectionSupportM@@SAXQAV1@@PAXPAXPAUtuple_struct@core@@PAXPAX@Z 
01:0001DF50 ?_getKey_nd@mapMSupport@collectionSupportM@@SAXQAV1@@PAXPAXPAPAX@Z 
01:0001DF80 ?_getValue_nd@mapMSupport@collectionSupportM@@SAXQAV1@@PAXPAXPAPAX@Z 
01:0001DFB4 ?keyList@mapMSupport@collectionSupportM@@SGPAU?$__packedList_struct@PAX@@QAV1@@PAXPAX@Z 
01:0001E018 ?valueList@mapMSupport@collectionSupportM@@SGPAU?$__packedList_struct@PAX@@QAV1@@PAXPAX@Z 
01:0001E07C ?insert@mapMSupport@collectionSupportM@@SAXQAV1@@PAXPAXPAUtuple_struct@core@@PAXPAX@Z 
01:0001E0B8 ?set_optional@mapMSupport@collectionSupportM@@SAXQAV1@@PAXPAXPAXPAUoptional_struct@core@@PAX@Z 
01:0001E100 ?remove@mapMSupport@collectionSupportM@@SAXQAV1@@PAXPAXPAUtuple_struct@core@@PAXPAX@Z 
01:0001E1AC ?removeKeyList@mapMSupport@collectionSupportM@@SAXQAV1@@PAXPAXPAU?$__packedList_struct@PAX@@@Z 
01:0001E1F4 ?removeKeyCollection@mapMSupport@collectionSupportM@@SAXQAV1@@PAXPAXQAVcollection@@@PAX@Z 
01:0001E23C ?_new@mapMSupport@collectionSupportM@@SAXQAVrTypeLibrary@TypeLibraries@RunTime@VIP@@0QAVmapMSite@@2@PAXPAXPAPAV1@@PAPAXPAPAX@Z  (Idle)
01:0001E278 ?_object_typelib_initializer@mapMSupport@collectionSupportM@@SGXQAV1@2@PAXPAXQAVrTypeLibrary@TypeLibraries@RunTime@VIP@@1@Z 
01:0001E294 ?_mk_tl_0_collectionSupportM\collectionMsupport{@Type}$imp$@mapMSupport@collectionSupportM@@SGQAVrTypeLibrary@TypeLibraries@RunTime@VIP@@QAV1@2@PAXPAX@Z 
01:0001E2D8 ?_getAll_nd@mapMSupport@collectionSupportM@@SAXQAVcollectionSite@@collectionSupport@@PAXPAPAX@Z 
--- From 'Obj\arraym_inline.5CB777DB.obj'
01:0001E3C0 collectionSupportM\mapMSupport{@Key,@Data}?_initObject@@@QAGXQAV1@H@Z 
--- From 'Obj\mapmsupport.59EA0039.obj'
01:0001E414 ?@create_object@mapMSupport@collectionSupportM@@SGQAV1@2@PAXPAXQAVrTypeLibrary@TypeLibraries@RunTime@VIP@@0@Z 
--- From 'Obj\arraym_inline.5CB777DB.obj'
01:0001E43C collectionSupportM\mapMSupport{@Key,@Data}?_InternalFinalizer@@@QAGXQAV1@@Z 
--- From 'Obj\console.043C10C8.obj'
01:0001E450 ?handle@outputStream_console@@SGPBU0@QAV1@@@Z 
01:0001E494 ?newCurrent@outputStream_console@@SAXQAV1@@I@Z  (Idle)
01:0001E4F0 ?new@outputStream_console@@SAXQAV1@@I@Z 
01:0001E560 ?write@outputStream_console@@SAXQAVoutputStream@@@@Z 
01:0001E5B8 ?writeQuoted@outputStream_console@@SAXQAVoutputStream@@@@Z 
01:0001E610 ?writef@outputStream_console@@SAXQAVoutputStream@@@PB_W@Z 
01:0001E66C ?nl@outputStream_console@@SAXQAVoutputStream@@@@Z 
01:0001E6A0 ?save@outputStream_console@@SAXQAVoutputStream@@@PBUfactDB@@@Z 
01:0001E6F8 ?writeBytes@outputStream_console@@SAXQAVoutputStream@@@PAXPBUbyteCount@@@Z 
01:0001E754 ?errorHandler@outputStream_console@@SAXQAV1@@PBUtraceId@exception@@@Z 
01:0001E790 ?getCRLFconversion@outputStream_console@@SGPAUboolean_struct@_builtIn@@QAVstream@@@@Z 
01:0001E7C0 ?setCRLFconversion@outputStream_console@@SGXQAVstream@@@PAUboolean_struct@_builtIn@@@Z 
01:0001E814 ?bufferFullCB@outputStream_console@@SAXQAV1@@PAPAXAAUbyteCount@@@Z  (Idle)
01:0001E894 ?convertLF2CRLF_ifNeeded@outputStream_console@@SAXQAV1@@PAXPBUbyteCount@@PAPAXAAU3@@Z 
01:0001E8F0 ?writeToStdDevice@outputStream_console@@SAXPAUmode_struct@stream@@PBUfileHandle@@PAXPBUbyteCount@@@Z 
01:0001E984 ?convert_ifAnsi@outputStream_console@@SAXPAUmode_struct@stream@@PAXPBUbyteCount@@PAPAXAAU4@@Z 
01:0001EA3C ?setPosition@outputStream_console@@SGXQAVstream@@@PBUfileSize@fileSystem_api@@@Z 
01:0001EA4C ?getPosition@outputStream_console@@SGPBUfileSize@fileSystem_api@@QAVstream@@@@Z 
01:0001EA64 ?close@outputStream_console@@SGXQAVstream@@@@Z 
01:0001EA74 ?getBuffer@outputStream_console@@SGXQAVbufferSupport@@@PAPAXAAUbyteCount@@@Z 
01:0001EA98 ?getBufferLocked@outputStream_console@@SGXQAVbufferSupport@@@PAPAXAAUbyteCount@@@Z 
01:0001EAB4 ?_new@outputStream_console@@SAXIPAPAVoutputStream@@@@Z  (Idle)
01:0001EADC ?_newCurrent@outputStream_console@@SAXIPAPAVoutputStream@@@@Z  (Idle)
01:0001EB04 ?_object_facts_initializer@outputStream_console@@SGXQAV1@@@Z 
01:0001EB1C ?new@inputStream_console@@SAXQAV1@@@Z  (Idle)
01:0001EBA0 ?getCRLFconversion@inputStream_console@@SGPAUboolean_struct@_builtIn@@QAVstream@@@@Z 
01:0001EBD0 ?setCRLFconversion@inputStream_console@@SGXQAVstream@@@PAUboolean_struct@_builtIn@@@Z 
01:0001EC24 ?setMode@inputStream_console@@SGXQAVstream@@@PAUmode_struct@2@@Z 
01:0001ECD0 ?exTextBufferCB@inputStream_console@@SAXQAV1@@PAPAXAAUbyteCount@@@Z  (Idle)
01:0001ED2C ?exTextBufferCBLock@inputStream_console@@SAXQAV1@@PAPAXAAUbyteCount@@@Z  (Idle)
01:0001ED80 ?handlingBufferLastChar@inputStream_console@@SAXQAV1@@PBUbyteCount@@PAPAXAAU3@@Z  (Idle)
01:0001EDC4 ?converCRLF2LF_ifNeeded@inputStream_console@@SAXQAV1@@PBUbyteCount@@PAPAXAAU3@@Z 
01:0001EE44 ?_readFromStdIn@inputStream_console@@SAXQAV1@@PAUmode_struct@stream@@PBUfileHandle@@AAUbyteCount@@@Z 
01:0001EF64 ?_readFromFile@inputStream_console@@SAXPBUfileHandle@@PAXPBUbyteCount@@AAU3@@Z 
01:0001EFB4 ?setPosition@inputStream_console@@SGXQAVstream@@@PBUfileSize@fileSystem_api@@@Z 
01:0001EFC4 ?getPosition@inputStream_console@@SGPBUfileSize@fileSystem_api@@QAVstream@@@@Z 
01:0001EFDC ?close@inputStream_console@@SGXQAVstream@@@@Z 
01:0001F010 ?getBuffer@inputStream_console@@SGXQAVbufferSupport@@@PAPAXAAUbyteCount@@@Z 
01:0001F034 ?getBufferLocked@inputStream_console@@SGXQAVbufferSupport@@@PAPAXAAUbyteCount@@@Z 
01:0001F058 ?_new@inputStream_console@@SAXPAPAVinputStream@@@@Z  (Idle)
01:0001F080 ?_object_facts_initializer@inputStream_console@@SGXQAV1@@@Z 
01:0001F0A0 ?_readChar@console@@SAXPA_W@Z  (Idle)
01:0001F0D4 ?_readLine@console@@SAXPAPB_W@Z  (Idle)
01:0001F108 ?_read@console@@SAXQAVrTypeLibrary@TypeLibraries@RunTime@VIP@@PAPAX@Z  (Idle)
01:0001F148 ?write@console@@SAXXZ  (Idle)
01:0001F17C ?writef@console@@SAXPB_W@Z  (Idle)
01:0001F1BC ?nl@console@@SAXXZ  (Idle)
01:0001F1E4 ?isModeLine@console@@SAXXZ  (Idle)
01:0001F210 ?setModeLine@console@@SAXPAUboolean_struct@_builtIn@@@Z  (Idle)
01:0001F250 ?isModeEcho@console@@SAXXZ  (Idle)
01:0001F27C ?setModeEcho@console@@SAXPAUboolean_struct@_builtIn@@@Z  (Idle)
01:0001F2BC ?isModeProcessed@console@@SAXXZ  (Idle)
01:0001F308 ?setModeProcessed@console@@SAXPAUboolean_struct@_builtIn@@@Z  (Idle)
01:0001F35C ?isModeWrap@console@@SAXXZ  (Idle)
01:0001F388 ?setModeWrap@console@@SAXPAUboolean_struct@_builtIn@@@Z  (Idle)
01:0001F3B8 ?checkConsoleMode@console@@SAXPBUfileHandle@@I@Z 
01:0001F3F4 ?setConsoleMode@console@@SAXPAUboolean_struct@_builtIn@@PBUfileHandle@@I@Z 
01:0001F45C ?_toApiMode@console@@SAXPAUboolean_struct@_builtIn@@IIPAI@Z 
01:0001F4A4 ?clearInput@console@@SAXXZ  (Idle)
01:0001F508 ?clearOutput@console@@SAXXZ  (Idle)
01:0001F5C8 ?_getLocation@console@@SAXPAPAUcoord_struct@console_native@@@Z  (Idle)
01:0001F5F0 ?setLocation@console@@SAXPAUcoord_struct@console_native@@@Z 
01:0001F644 ?_getConsoleInputStream@console@@SAXPAPAVinputStream@@@@Z 
01:0001F6B4 ?_getConsoleOutputStream@console@@SAXPAPAVoutputStream@@@@Z 
01:0001F728 ?_getErrorStream@console@@SAXPAPAVoutputStream@@@@Z  (Idle)
01:0001F79C ?close@console@@SAXXZ  (Idle)
01:0001F7D4 ?_getConsoleWidth@console@@SAXAAUunsigned16@@@Z  (Idle)
01:0001F7F8 ?_getConsoleTitle@console@@SAXPAPB_W@Z  (Idle)
01:0001F864 ?setConsoleTitle@console@@SAXPB_W@Z  (Idle)
01:0001F8A0 ?_getConsoleMode@console@@SAXPBUfileHandle@@PAI@Z 
01:0001F8E0 ?_getConsoleScreenBufferInfo@console@@SAXPAPAUconsoleScreenBufferInfo_struct@console_native@@@Z 
01:0001F950 ?setTextAttribute@console@@SAXI@Z  (Idle)
01:0001F964 ?setTextAttribute@console@@SAXII@Z 
01:0001F994 ?_getTextAttribute@console@@SAXPAI@Z  (Idle)
01:0001F9EC ?init@console@@SAXPAUmode_struct@stream@@@Z  (Idle)
01:0001FA50 ?init@console@@SAXXZ  (Idle)
01:0001FA60 ?init8@console@@SAXXZ  (Idle)
01:0001FA74 ?init8@console@@SAXPBUcodePage@@@Z 
01:0001FA9C ?initUtf8@console@@SAXXZ  (Idle)
01:0001FAAC ?run@console@@SAXX@Z  (Idle)
01:0001FAC0 ?run@console@@SAXXPAUmode_struct@stream@@@Z 
01:0001FAD4 ?anonymous$c0$1$run/3np$console@1@SAXPAUanonymous$c0$1$run/3np$consolec_struct@1@@Z 
01:0001FB00 ?run@console@@SAXXPAUmode_struct@stream@@PAUrunMode_struct@exe_api@@@Z 
01:0001FB44 ?run8@console@@SAXX@Z  (Idle)
01:0001FB58 ?run8@console@@SAXXPBUcodePage@@@Z 
01:0001FB80 ?runUtf8@console@@SAXX@Z 
01:0001FB94 ?runInner@console@@SAXXPAUmode_struct@stream@@@Z 
01:0001FC30 ?codePage@console@@SGXPBU0@@Z  (Idle)
01:0001FC5C ?mode@console@@SGXPAUmode_struct@stream@@@Z 
01:0001FD00 ?checkConsolePresence@console@@SAXXZ 
01:0001FD58 ?_readEvents@console@@SAXPAPAU?$__packedList_struct@Uevent@@@@@Z  (Idle)
01:0001FF18 ?_makeEvent@console@@SAXIPAXPAPAUevent_struct@1@@Z  (Idle)
01:000202B0 ?_getEventQueue@console@@SAXPAPAU?$__packedList_struct@Uevent@@@@@Z  (Idle)
01:000203E8 ?_getEvent_nd@console@@SAXPAXIIPAPAUevent_struct@1@@Z 
01:000206C0 outputStream_console?_initObject@@@QAGXQAV1@H@Z 
01:000206F4 ?@create_object@outputStream_console@@SGQAV1@@XZ 
01:00020710 outputStream_console?_InternalFinalizer@@@QAGXQAV1@@Z 
01:000209AC inputStream_console?_initObject@@@QAGXQAV1@H@Z 
01:000209E0 ?@create_object@inputStream_console@@SGQAV1@@XZ 
01:000209FC inputStream_console?_InternalFinalizer@@@QAGXQAV1@@Z 
--- From 'Obj\core.4BC2D97D.obj'
01:00020A10 ?_mapSome@core@@SAXQAVrTypeLibrary@TypeLibraries@RunTime@VIP@@0PAUoptional_struct@1@PAXXPAPAU21@PAPAX@Z  (Idle)
01:00020A68 ?_tryGetSome@core@@SAXQAVrTypeLibrary@TypeLibraries@RunTime@VIP@@PAUoptional_struct@1@PAXPAPAX@Z  (Idle)
01:00020A9C ?_getSome@core@@SAXQAVrTypeLibrary@TypeLibraries@RunTime@VIP@@PAUoptional_struct@1@PAXPAXPAPAX@Z 
01:00020AC0 ?_makeOptional@core@@SAXQAVrTypeLibrary@TypeLibraries@RunTime@VIP@@XPAPAUoptional_struct@1@PAPAX@Z  (Idle)
--- From 'Obj\filesystem.57D9C483.obj'
01:00020B34 ?_toUnsigned64@core@@SAXPAUunsigned64_struct_struct@1@PAPA_K@Z 
01:00020B40 ?_fromUnsigned64@core@@SAXPA_KPAPAUunsigned64_struct_struct@1@@Z 
01:00020B50 ?_toInteger64@core@@SAXPAUinteger64_struct_struct@1@PAPA_J@Z 
--- From 'Obj\core.4BC2D97D.obj'
01:00020B5C ?_fromInteger64@core@@SAXPA_JPAPAUinteger64_struct_struct@1@@Z 
--- From 'Obj\exceptiondump.174B23B9.obj'
01:00020B6C ?_value2String@core@@SAXPAUvalue_struct@1@PAPB_W@Z 
--- From 'Obj\core.4BC2D97D.obj'
01:00020DE8 ?nothing@core@@SAXXZ  (Idle)
--- From 'Obj\exception.544F7452.obj'
01:00020DF0 _runtimeExceptionRaiser 
01:00020F64 ?_exceptionFromExceptionCode@runtime_exception@@SAXIPAPAUexception_struct@core@@@Z 
01:00020FD4 ?_exceptionFromErrorCode@runtime_exception@@SAXIPAPAUexception_struct@core@@@Z 
01:00021744 ?raise_externalError_explicit@exception_exception@@SAXPAUprogramPoint_struct@core@@PBUerrorCode@programControl@@PAU?$__packedList_struct@UnamedValue@@@@@Z  (Idle)
01:000217B4 ?_tryGetDescriptor@exception@@SAXPBUtraceId@@PAUexception_struct@core@@PAPAUdescriptor_struct@1@@Z  (Idle)
01:00021844 ?findException@exception@@SAXPBUtraceId@@PAU?$__packedList_struct@U1@@@@Z  (Idle)
01:000218A4 ?_getDescriptor_nd@exception@@SAXPBUtraceId@@PAPAUdescriptor_struct@1@@Z 
01:000218CC ?_getDescriptorChain_nd@exception@@SAXQAVerrorDescriptorInformation@@@PAPAUdescriptor_struct@1@@Z 
01:00021924 ?_getDescriptorChain1_nd@exception@@SAXQAVerrorDescriptorInformation@@@PAPAUdescriptor_struct@1@@Z 
01:00021A04 ?_getDescriptorChainFromPacked_nd@exception@@SAXPAU?$__packedList_struct@UnamedValue@@@@PAPAUdescriptor_struct@1@@Z 
--- From 'Obj\exceptiondump.174B23B9.obj'
01:00021AA4 ?_getTraceInfo@exception@@SAXPBUtraceId@@PAPAUtraceInfo_struct@1@@Z 
--- From 'Obj\exception.544F7452.obj'
01:00021BA0 ?_getStackInfo_nd@exception@@SAXQAVtrapInformationObject@@@PAPAUlineInfo_struct@1@@Z 
01:00021CDC ?_getModuleHandleByAddress@exception@@SAXPAXAAUhModule@@@Z  (Idle)
01:00021D2C ?_getModuleNameByAddress@exception@@SAXPAXPAPB_W@Z  (Idle)
01:00021D84 ?_tryGetLineInfo@exception@@SAXPAXPAPAUlineInfo_struct@1@@Z 
01:00021E34 ?_tryGetExtraInfo@exception@@SAXPAUdescriptor_struct@1@PB_WPAPAUvalue_struct@core@@@Z  (Idle)
01:00021E4C ?_searchInfoList@exception@@SAXPAU?$__packedList_struct@UnamedValue@@@@PB_WPAPAUvalue_struct@core@@@Z 
01:00021EB0 ?_getErrorCode@exception@@SAXPBUtraceId@@PAI@Z 
01:00021EF8 ?_tryGetErrorDescriptorInformation@exception@@SAXPBUtraceId@@PAPAVerrorDescriptorInformation@@@@Z 
01:00021F20 ?_tryGetErrorDescriptorInformation1@exception@@SAXQAVtrapInformationObject@@@PAPAVerrorDescriptorInformation@@@@Z 
01:00021F44 ?_getTrapInformationObject@exception@@SAXPBUtraceId@@PAPAVtrapInformationObject@@@@Z  (Idle)
01:00022014 ?_tryGetTrapInformationObject@exception@@SAXPBUtraceId@@PAPAVtrapInformationObject@@@@Z 
--- From 'Obj\registry.88C8A89A.obj'
01:000220B4 ?raiseDetailed_explicit@exception@@SAXPAUprogramPoint_struct@core@@PAUexception_struct@3@PAU?$__packedList_struct@UnamedValue@@@@@Z 
--- From 'Obj\exception.544F7452.obj'
01:000220D0 ?raise_explicit@exception@@SAXPAUprogramPoint_struct@core@@PAUexception_struct@3@@Z 
--- From 'Obj\filesystem.57D9C483.obj'
01:000220E8 ?raise_explicit@exception@@SAXPAUprogramPoint_struct@core@@PAUexception_struct@3@PAU?$__packedList_struct@UnamedValue@@@@@Z 
--- From 'Obj\reflection.0F000252.obj'
01:00022228 ?raise_error_explicit@exception@@SAXPAUprogramPoint_struct@core@@@Z 
--- From 'Obj\exception.544F7452.obj'
01:000222A8 ?raise_exception_explicit@exception@@SAXPAUprogramPoint_struct@core@@PAUexception_struct@3@@Z  (Idle)
01:00022328 ?raise_user_explicit@exception@@SAXPAUprogramPoint_struct@core@@PB_W@Z  (Idle)
01:00022340 ?raise_user_explicit@exception@@SAXPAUprogramPoint_struct@core@@PB_WPAU?$__packedList_struct@UnamedValue@@@@@Z 
01:00022360 ?raise_user_explicit@exception@@SAXPAUprogramPoint_struct@core@@PAUexception_struct@3@PB_WPAU?$__packedList_struct@UnamedValue@@@@@Z 
01:000223D0 ?raise_definiteUser_explicit@exception@@SAXPAUprogramPoint_struct@core@@PB_W@Z  (Idle)
01:000223E8 ?raise_definiteUser_explicit@exception@@SAXPAUprogramPoint_struct@core@@PB_WPAU?$__packedList_struct@UnamedValue@@@@@Z 
01:00022408 ?raise_definiteUser_explicit@exception@@SAXPAUprogramPoint_struct@core@@PAUexception_struct@3@PB_WPAU?$__packedList_struct@UnamedValue@@@@@Z 
01:0002248C ?raise_packed_explicit@exception@@SAXPAUprogramPoint_struct@core@@PAUtraceInfo_struct@1@@Z  (Idle)
--- From 'Obj\reflection.0F000252.obj'
01:00022570 ?raise_errorf_explicit@exception@@SAXPAUprogramPoint_struct@core@@PB_W@Z 
--- From 'Obj\exception.544F7452.obj'
01:00022634 ?raise_couldNotCreate_explicit@exception@@SAXPAUprogramPoint_struct@core@@PAU?$__packedList_struct@UnamedValue@@@@@Z  (Idle)
01:00022650 ?raise_removeListener_explicit@exception@@SAXPAUprogramPoint_struct@core@@PB_W@Z  (Idle)
--- From 'Obj\filesystem.57D9C483.obj'
01:000226C4 ?raise_nativeCallException_explicit@exception@@SAXPAUprogramPoint_struct@core@@PB_WPBUhResult@@PAU?$__packedList_struct@UnamedValue@@@@@Z 
--- From 'Obj\exception.544F7452.obj'
01:000226F8 ?raise_nativeCallException_explicit@exception@@SAXPAUprogramPoint_struct@core@@PB_WPBUhResult@@1PAU?$__packedList_struct@UnamedValue@@@@@Z 
--- From 'Obj\varm.17B5C45B.obj'
01:00022898 ?raise_unsupportedPredicate_explicit@exception@@SAXPAUprogramPoint_struct@core@@@Z 
--- From 'Obj\exception.544F7452.obj'
01:000228B0 ?raise_overloadingExpected_explicit@exception@@SAXPAUprogramPoint_struct@core@@@Z  (Idle)
01:000228C8 ?continueDetailed_explicit@exception@@SAXPAUprogramPoint_struct@core@@PBUtraceId@@PAUexception_struct@3@@Z  (Idle)
01:000228E4 ?continueDetailed_explicit@exception@@SAXPAUprogramPoint_struct@core@@PBUtraceId@@PAUexception_struct@3@PAU?$__packedList_struct@UnamedValue@@@@@Z  (Idle)
01:00022900 ?continue_explicit@exception@@SAXPAUprogramPoint_struct@core@@PBUtraceId@@PAUexception_struct@3@PAU?$__packedList_struct@UnamedValue@@@@@Z 
01:00022930 ?continue1_explicit@exception@@SAXPAUprogrampoint_struct@core@@QAVtrapInformationObject@@@PAUexception_struct@3@PAU?$__packedList_struct@UnamedValue@@@@@Z 
01:00022AAC ?continue_exceptionInListener_explicit@exception@@SAXPAUprogramPoint_struct@core@@PBUtraceId@@PB_W@Z  (Idle)
--- From 'Obj\registry.88C8A89A.obj'
01:00022B20 ?continue_unknown_explicit@exception@@SAXPAUprogramPoint_struct@core@@PBUtraceId@@@Z 
--- From 'Obj\exception.544F7452.obj'
01:00022BA4 ?continue_user_explicit@exception@@SAXPAUprogramPoint_struct@core@@PBUtraceId@@PB_W@Z  (Idle)
01:00022BC0 ?continue_user_explicit@exception@@SAXPAUprogramPoint_struct@core@@PBUtraceId@@PB_WPAU?$__packedList_struct@UnamedValue@@@@@Z 
01:00022BE4 ?continue_user_explicit@exception@@SAXPAUprogramPoint_struct@core@@PBUtraceId@@PAUexception_struct@3@PB_WPAU?$__packedList_struct@UnamedValue@@@@@Z 
01:00022C58 ?continue_definiteUser_explicit@exception@@SAXPAUprogramPoint_struct@core@@PBUtraceId@@PB_W@Z  (Idle)
01:00022C74 ?continue_definiteUser_explicit@exception@@SAXPAUprogramPoint_struct@core@@PBUtraceId@@PB_WPAU?$__packedList_struct@UnamedValue@@@@@Z 
01:00022C98 ?continue_definiteUser_explicit@exception@@SAXPAUprogramPoint_struct@core@@PBUtraceId@@PAUexception_struct@3@PB_WPAU?$__packedList_struct@UnamedValue@@@@@Z 
01:00022D20 ?isDefiniteUserError@exception@@SAXPBUtraceId@@@Z  (Idle)
--- From 'Obj\filesystem.57D9C483.obj'
01:00022D5C ?_getLastErrorDescription@exception@@SAXPBUhResult@@PAPB_W@Z 
--- From 'Obj\exception.544F7452.obj'
01:00022D98 ?new@errorDescriptorInformation@@SAXQAV1@@PAUprogramPoint_struct@core@@PAUexception_struct@4@PAUkind_struct@exception@@PAU?$__packedList_struct@UnamedValue@@@@PAPBUgmtTimeValue@@PBUthreadId@multiThread_native@@@Z  (Idle)
01:00022E20 ?gmtTimeFormatted@errorDescriptorInformation@@SGPB_WQAV1@@@Z 
01:00022E50 ?_tryGetContinueException@errorDescriptorInformation@@SAXQAV1@@PAPAV1@@@Z 
01:00022E74 ?setContinueException@errorDescriptorInformation@@SAXQAV1@@0@Z 
01:00022E9C ?_create@errorDescriptorInformation@@SAXPAUprogramPoint_struct@core@@PAUexception_struct@3@PAUkind_struct@exception@@PAU?$__packedList_struct@UnamedValue@@@@PAPAV1@@@Z 
01:00022EE0 ?exceptionDescription@errorDescriptorInformation@@SGPB_WQAV1@@@Z 
--- From 'Obj\exceptiondump.174B23B9.obj'
01:00022F00 ?_formatDateTime@errorDescriptorInformation@@SAXPAPBUgmtTimeValue@core@@PAPB_W@Z 
--- From 'Obj\exception.544F7452.obj'
01:00022F8C ?_new@errorDescriptorInformation@@SAXPAUprogramPoint_struct@core@@PAUexception_struct@3@PAUkind_struct@exception@@PAU?$__packedList_struct@UnamedValue@@@@PAPBUgmtTimeValue@@PBUthreadId@multiThread_native@@PAPAV1@@@Z 
01:00022FC4 ?exception@errorDescriptorInformation@@SGPAUexception_struct@core@@QAV1@@@Z 
01:00022FD0 ?programPointDescriptor@errorDescriptorInformation@@SGPAUprogramPointDescriptor_struct@exception@@QAV1@@@Z 
01:00022FDC ?kind@errorDescriptorInformation@@SGPAUkind_struct@exception@@QAV1@@@Z 
01:00022FE8 ?extraInfo@errorDescriptorInformation@@SGXQAV1@@PAU?$__packedList_struct@UnamedValue@@@@@Z 
01:00022FF8 ?extraInfo@errorDescriptorInformation@@SGPAU?$__packedList_struct@UnamedValue@@@@QAV1@@@Z 
01:00023004 ?_gmtTime@errorDescriptorInformation@@SAXQAV1@@PAAAUgmtTimeValue@@@Z 
01:00023018 ?threadId@errorDescriptorInformation@@SGPBU0multiThread_native@@QAV1@@@Z 
01:0002302C errorDescriptorInformation?_initObject@@@QAGXQAV1@H@Z 
01:00023040 ?@create_object@errorDescriptorInformation@@SGQAV1@@XZ 
01:0002305C errorDescriptorInformation?_InternalFinalizer@@@QAGXQAV1@@Z 
--- From 'Obj\exceptiondump.174B23B9.obj'
01:00023070 ?dump@exceptionDump@@SAXQAVoutputStream@@@PBUtraceId@exception@@@Z  (Idle)
01:00023098 ?dump_info@exceptionDump@@SAXQAVoutputStream@@@PAUtraceInfo_struct@exception@@@Z 
01:00023124 ?dump_programPoint@exceptionDump@@SAXQAVoutputStream@@@PAUprogramPoint_struct@core@@@Z 
01:0002321C ?dumpToStdOutput@exceptionDump@@SAXPBUtraceId@exception@@@Z 
01:00023244 ?dumpToStdOutput_info@exceptionDump@@SAXPAUtraceInfo_struct@exception@@@Z 
01:000232A0 ?dumpToStdOutput_programpoint@exceptionDump@@SAXPAUprogramPoint_struct@core@@@Z  (Idle)
01:000232FC ?_dumpToString@exceptionDump@@SAXPBUtraceId@exception@@PAPB_W@Z  (Idle)
01:00023324 ?_dumpToString_info@exceptionDump@@SAXPAUtraceInfo_struct@exception@@PAPB_W@Z 
01:0002335C ?_dumpToString_programpoint@exceptionDump@@SAXPAUprogramPoint_struct@core@@PAPB_W@Z  (Idle)
01:00023394 ?dumpToStdOutputInTrap@exceptionDump@@SAXQAVrTypeLibrary@TypeLibraries@RunTime@VIP@@PAXX@Z 
01:00023440 ?processErrorOnDumpToStdOut@exceptionDump@@SAXPAUtraceInfo_struct@exception@@@Z  (Idle)
01:000234B4 ?processErrorOnDumpToStdOutTrapped@exceptionDump@@SAXPBUtraceId@@@Z 
01:00023514 ?_formatDescriptorList@exceptionDump@@SAXPAU?$__packedList_struct@Udescriptor@exception@@@@PAPB_W@Z  (Idle)
01:0002354C ?_formatDescriptor@exceptionDump@@SAXPAUdescriptor_struct@exception@@PAPB_W@Z  (Idle)
01:00023584 ?_formatExtraInfo@exceptionDump@@SAXPAU?$__packedList_struct@UnamedValue@@@@PAPB_W@Z  (Idle)
01:000235BC ?_formatLineInfoList@exceptionDump@@SAXPAU?$__packedList_struct@UlineInfo@exception@@@@PAPB_W@Z  (Idle)
01:000235F4 ?_fillUsrMsgTags@exceptionDump@@SAXPB_WPAU?$__packedList_struct@UnamedValue@@@@PAPB_W@Z  (Idle)
01:000236CC ?_substituteTag@exceptionDump@@SAXPB_WPAU?$__packedList_struct@UnamedValue@@@@PAPB_W@Z 
01:00023718 ?getUserMsgFromNV_dt@exceptionDump@@SAXPAU?$__packedList_struct@UnamedValue@@@@PAPB_W@Z  (Idle)
01:000237D0 ?getUserMsg_dt@exceptionDump@@SAXPAUdescriptor_struct@exception@@PAPB_W@Z  (Idle)
01:000237E8 ?_getUserMsg@exceptionDump@@SAXPAU?$__packedList_struct@Udescriptor@exception@@@@PAPB_W@Z  (Idle)
01:00023884 ?_tryGetUserMessage@exceptionDump@@SAXPBUtraceId@exception@@PAPB_W@Z  (Idle)
01:000238AC ?_tryGetUserMessage_info@exceptionDump@@SAXPAUtraceInfo_struct@exception@@PAPB_W@Z 
01:000238C4 ?_tryGetUserMessageFromDescriptorList@exceptionDump@@SAXPAU?$__packedList_struct@Udescriptor@exception@@@@PAPB_W@Z 
01:000238F0 ?writeTraceInfo@exceptionDump@@SAXQAVoutputStream@@@PAUtraceInfo_struct@exception@@@Z 
01:000239A4 ?writeDescriptor_list@exceptionDump@@SAXQAVoutputStream@@@PAU?$__packedList_struct@Udescriptor@@@@@Z 
01:000239E0 ?writeErrorDescriptorInformation@exceptionDump@@SAXQAVoutputStream@@@PAUdescriptor_struct@exception@@@Z 
01:00023D20 ?section@exceptionDump@@SAXQAVoutputStream@@@PB_W@Z  (Idle)
01:00023D68 ?writeOSInformation@exceptionDump@@SAXQAVoutputStream@@@PB_W@Z 
01:00023DDC ?writeLineInfo_list@exceptionDump@@SAXQAVoutputStream@@@PAU?$__packedList_struct@UlineInfo@@@@@Z 
01:00023E5C ?writeLineInfo@exceptionDump@@SAXQAVoutputStream@@@PAUlineInfo_struct@exception@@@Z 
01:00023EFC ?writeException@exceptionDump@@SAXQAVoutputStream@@@PAUexception_struct@core@@@Z 
01:00023F60 ?writeExtraInfo@exceptionDump@@SAXQAVoutputStream@@@PAU?$__packedList_struct@UnamedValue@@@@@Z 
01:00023FE0 ?writePosition@exceptionDump@@SAXQAVoutputStream@@@IPB_W@Z 
01:00024024 ?writeNamedValue@exceptionDump@@SAXQAVoutputStream@@@PAUnamedValue_struct@core@@@Z 
01:000240E0 ?writeValue_or_NULL@exceptionDump@@SAXQAVoutputStream@@@PB_W@Z  (Idle)
01:00024158 ?writeValue@exceptionDump@@SAXQAVoutputStream@@@PAUvalue_struct@core@@@Z 
01:00024494 ?writeValue_or_NULL@exceptionDump@@SAXQAVoutputStream@@@PAD@Z 
01:0002450C ?writeValue_or_NULL@exceptionDump@@SAXQAVoutputStream@@@QAE@Z 
01:00024584 ?writeValue_or_NULL@exceptionDump@@SAXQAVoutputStream@@@PBUbinaryNonAtomic@@@Z 
01:000245FC ?writeValue_or_NULL@exceptionDump@@SAXQAVoutputStream@@@QAVobject@@@@Z 
--- From 'Obj\filesystem.57D9C483.obj'
01:00024680 ?create@outputStream_file@@SAXQAV1@@PB_W@Z  (Idle)
01:000246A4 ?create@outputStream_file@@SAXQAV1@@PB_WPAUmode_struct@stream@@@Z  (Idle)
01:000246C4 ?create@outputStream_file@@SAXQAV1@@PB_WPAUmode_struct@stream@@PAUaccessPermit_struct@fileSystem_api@@@Z  (Idle)
01:000246D8 ?create@outputStream_file@@SAXQAV1@@PB_WPAUmode_struct@stream@@PAUaccessPermit_struct@fileSystem_api@@PAU?$__packedList_struct@UfileAttributeAtom@@@@@Z 
01:00024720 ?create8@outputStream_file@@SAXQAV1@@PB_W@Z  (Idle)
01:00024734 ?create8@outputStream_file@@SAXQAV1@@PB_WPAUaccessPermit_struct@fileSystem_api@@@Z 
01:00024760 ?createUtf8@outputStream_file@@SAXQAV1@@PB_W@Z  (Idle)
01:00024774 ?createUtf8@outputStream_file@@SAXQAV1@@PB_WPAUaccessPermit_struct@fileSystem_api@@@Z 
01:000247A0 ?createUtf8_bom@outputStream_file@@SAXQAV1@@PB_W@Z  (Idle)
01:000247B4 ?createUtf8_bom@outputStream_file@@SAXQAV1@@PB_WPAUaccessPermit_struct@fileSystem_api@@@Z 
01:00024808 ?commonPartOfConstructors@outputStream_file@@SAXQAV1@@PBUfileHandle@@PAUmode_struct@stream@@@Z 
01:00024868 ?handleMode_create@outputStream_file@@SAXQAV1@@PAUmode_struct@stream@@@Z 
01:000248B8 ?openFile@outputStream_file@@SAXQAV1@@PB_W@Z  (Idle)
01:000248D8 ?openFile8@outputStream_file@@SAXQAV1@@PB_W@Z  (Idle)
01:000248F8 ?openFileUtf8@outputStream_file@@SAXQAV1@@PB_W@Z  (Idle)
01:00024918 ?openFile@outputStream_file@@SAXQAV1@@PB_WPAUmode_struct@stream@@@Z  (Idle)
01:0002492C ?openFile@outputStream_file@@SAXQAV1@@PB_WPAUmode_struct@stream@@PAUaccessPermit_struct@fileSystem_api@@@Z 
01:00024984 ?append@outputStream_file@@SAXQAV1@@PB_W@Z  (Idle)
01:00024998 ?append8@outputStream_file@@SAXQAV1@@PB_W@Z  (Idle)
01:000249AC ?appendUtf8@outputStream_file@@SAXQAV1@@PB_W@Z  (Idle)
01:000249C0 ?append@outputStream_file@@SAXQAV1@@PB_WPAUmode_struct@stream@@@Z 
01:00024A28 ?newHandleFile@outputStream_file@@SAXQAV1@@PBUfileHandle@@PAUmode_struct@stream@@@Z  (Idle)
01:00024A68 ?newHandle@outputStream_file@@SAXQAV1@@PBUfileHandle@@PAUmode_struct@stream@@@Z  (Idle)
01:00024A70 ?skipUnicodeSignature@outputStream_file@@SAXQAV1@@PAUmode_struct@stream@@@Z 
01:00024AD4 ?skip@outputStream_file@@SAXQAV1@@HPBUbyteCount@@@Z 
01:00024B48 ?getCRLFconversion@outputStream_file@@SGPAUboolean_struct@_builtIn@@QAVstream@@@@Z 
01:00024B78 ?setCRLFconversion@outputStream_file@@SGXQAVstream@@@PAUboolean_struct@_builtIn@@@Z 
01:00024BDC ?getPosition@outputStream_file@@SGPBUfileSize@fileSystem_api@@QAVstream@@@@Z 
01:00024CA4 ?setPosition@outputStream_file@@SGXQAVstream@@@PBUfileSize@fileSystem_api@@@Z 
01:00024D9C ?_checkMovingIsInsideBuffer@outputStream_file@@SAXQAV1@@PAPBUfileSize@fileSystem_api@@1PBUbyteCount@@AAU7@@Z 
01:00024F38 ?setMaxOffsetUsedInCurrentBuffer@outputStream_file@@SAXQAV1@@PBUbyteCount@@@Z 
01:00024F5C ?close@outputStream_file@@SGXQAVstream@@@@Z 
01:00024F90 ?flush@outputStream_file@@SAXQAVoutputStream@@@@Z 
01:00024FB4 ?bufferFullCallBack@outputStream_file@@SAXQAV1@@PBUbyteCount@@@Z  (Idle)
01:0002502C ?convertLFtoCRLF_IfNeeded@outputStream_file@@SAXQAV1@@PAXPBUbyteCount@@PAPAXAAU3@@Z 
01:00025088 ?convertToANSI_IfNeeded@outputStream_file@@SAXQAV1@@PAXPBUbyteCount@@PAPAXAAU3@@Z 
01:00025124 ?getBuffer@outputStream_file@@SGXQAVbufferSupport@@@PAPAXAAUbyteCount@@@Z 
01:0002518C ?getBufferLocked@outputStream_file@@SGXQAVbufferSupport@@@PAPAXAAUbyteCount@@@Z 
01:000251A8 ?_create@outputStream_file@@SAXPB_WPAPAVoutputStream@@@@Z 
01:000251D0 ?_create@outputStream_file@@SAXPB_WPAUmode_struct@stream@@PAPAVoutputStream@@@@Z  (Idle)
01:000251FC ?_create@outputStream_file@@SAXPB_WPAUmode_struct@stream@@PAUaccessPermit_struct@fileSystem_api@@PAPAVoutputStream@@@@Z  (Idle)
01:0002522C ?_create@outputStream_file@@SAXPB_WPAUmode_struct@stream@@PAUaccessPermit_struct@fileSystem_api@@PAU?$__packedList_struct@UfileAttributeAtom@@@@PAPAVoutputStream@@@@Z  (Idle)
01:00025260 ?_create8@outputStream_file@@SAXPB_WPAPAVoutputStream@@@@Z  (Idle)
01:00025288 ?_create8@outputStream_file@@SAXPB_WPAUaccessPermit_struct@fileSystem_api@@PAPAVoutputStream@@@@Z  (Idle)
01:000252B4 ?_createUtf8@outputStream_file@@SAXPB_WPAPAVoutputStream@@@@Z  (Idle)
01:000252DC ?_createUtf8@outputStream_file@@SAXPB_WPAUaccessPermit_struct@fileSystem_api@@PAPAVoutputStream@@@@Z  (Idle)
01:00025308 ?_createUtf8_bom@outputStream_file@@SAXPB_WPAPAVoutputStream@@@@Z  (Idle)
01:00025330 ?_createUtf8_bom@outputStream_file@@SAXPB_WPAUaccessPermit_struct@fileSystem_api@@PAPAVoutputStream@@@@Z  (Idle)
01:0002535C ?_openFile@outputStream_file@@SAXPB_WPAPAVoutputStream@@@@Z  (Idle)
01:00025384 ?_openFile@outputStream_file@@SAXPB_WPAUmode_struct@stream@@PAPAVoutputStream@@@@Z  (Idle)
01:000253B0 ?_openFile@outputStream_file@@SAXPB_WPAUmode_struct@stream@@PAUaccessPermit_struct@fileSystem_api@@PAPAVoutputStream@@@@Z  (Idle)
01:000253E0 ?_openFile8@outputStream_file@@SAXPB_WPAPAVoutputStream@@@@Z  (Idle)
01:00025408 ?_openFileUtf8@outputStream_file@@SAXPB_WPAPAVoutputStream@@@@Z  (Idle)
01:00025430 ?_append@outputStream_file@@SAXPB_WPAPAVoutputStream@@@@Z  (Idle)
01:00025458 ?_append@outputStream_file@@SAXPB_WPAUmode_struct@stream@@PAPAVoutputStream@@@@Z  (Idle)
01:00025484 ?_append8@outputStream_file@@SAXPB_WPAPAVoutputStream@@@@Z  (Idle)
01:000254AC ?_appendUtf8@outputStream_file@@SAXPB_WPAPAVoutputStream@@@@Z  (Idle)
01:000254D4 ?_newHandleFile@outputStream_file@@SAXPBUfileHandle@@PAUmode_struct@stream@@PAPAVoutputStream@@@@Z  (Idle)
01:00025500 ?_newHandle@outputStream_file@@SAXPBUfileHandle@@PAUmode_struct@stream@@PAPAVoutputStream@@@@Z  (Idle)
01:0002552C ?_object_facts_initializer@outputStream_file@@SGXQAV1@@@Z 
01:0002554C ?append@messageFile@@SAXQAV1@@PB_W@Z  (Idle)
01:00025560 ?append@messageFile@@SAXQAV1@@PB_WPAUmode_struct@stream@@@Z 
01:00025578 ?flush@messageFile@@SAXQAVoutputStream@@@@Z 
01:00025580 ?anonymous$o0$1$write/0ep$messageFile@1@SAXPAUanonymous$o0$1$write/0ep$messageFilec_struct@1@QAVoutputStream@@@@Z 
01:000255AC ?write@messageFile@@SAXQAVoutputStream@@@@Z 
01:0002564C ?anonymous$o0$1$writef/1ep$messageFile@1@SAXPAUanonymous$o0$1$writef/1ep$messageFilec_struct@1@QAVoutputStream@@@@Z 
01:00025684 ?writef@messageFile@@SAXQAVoutputStream@@@PB_W@Z 
01:00025728 ?anonymous$o0$1$writequoted/0ep$messageFile@1@SAXPAUanonymous$o0$1$writequoted/0ep$messageFilec_struct@1@QAVoutputStream@@@@Z 
01:00025754 ?writeQuoted@messageFile@@SAXQAVoutputStream@@@@Z 
01:000257F4 ?anonymous$o0$1$nl/0np$messageFile@1@SAXQAVoutputStream@@@@Z 
01:00025804 ?nl@messageFile@@SAXQAVoutputStream@@@@Z 
01:00025820 ?anonymous$o0$1$writebytes/2np$messageFile@1@SAXPAUanonymous$o0$1$writebytes/2np$messageFilec_struct@1@QAVoutputStream@@@@Z 
01:00025858 ?writeBytes@messageFile@@SAXQAVoutputStream@@@PAXPBUbyteCount@@@Z 
01:00025894 ?anonymous$o0$1$save/1np$messageFile@1@SAXPAUanonymous$o0$1$save/1np$messageFilec_struct@1@QAVoutputStream@@@@Z 
01:000258B8 ?save@messageFile@@SAXQAVoutputStream@@@PBUfactDB@@@Z 
01:000258F0 ?writeOperation@messageFile@@SAXQAV1@@X@Z 
01:0002599C ?setMode@messageFile@@SGXQAVstream@@@PAUmode_struct@2@@Z 
01:000259B4 ?getMode@messageFile@@SGPAUmode_struct@stream@@QAV3@@@Z 
01:000259CC ?getCRLFconversion@messageFile@@SGPAUboolean_struct@_builtIn@@QAVstream@@@@Z 
01:000259E4 ?setCRLFconversion@messageFile@@SGXQAVstream@@@PAUboolean_struct@_builtIn@@@Z 
01:00025A0C ?close@messageFile@@SGXQAVstream@@@@Z 
01:00025A1C ?getPosition@messageFile@@SGPBUfileSize@fileSystem_api@@QAVstream@@@@Z 
01:00025A34 ?setPosition@messageFile@@SGXQAVstream@@@PBUfileSize@fileSystem_api@@@Z 
01:00025A4C ?_append@messageFile@@SAXPB_WPAPAVoutputStream@@@@Z  (Idle)
01:00025A74 ?_append@messageFile@@SAXPB_WPAUmode_struct@stream@@PAPAVoutputStream@@@@Z  (Idle)
01:00025AA0 ?_object_facts_initializer@messageFile@@SGXQAV1@@@Z 
01:00025AB8 ?allowNullPointers@messageFile@@SGXQAVstream@@@PAUboolean_struct@_builtIn@@@Z 
01:00025AC8 ?allowNullPointers@messageFile@@SGPAUboolean_struct@_builtIn@@QAVstream@@@@Z 
01:00025AD4 ?openFile8@inputStream_file@@SAXQAV1@@PB_W@Z  (Idle)
01:00025AE8 ?openFileUtf8@inputStream_file@@SAXQAV1@@PB_W@Z  (Idle)
01:00025AFC ?openFile@inputStream_file@@SAXQAV1@@PB_W@Z  (Idle)
01:00025B10 ?openFile@inputStream_file@@SAXQAV1@@PB_WPAUmode_struct@stream@@@Z 
01:00025B24 ?openFile@inputStream_file@@SAXQAV1@@PB_WPAUmode_struct@stream@@PAUaccessPermit_struct@fileSystem_api@@@Z 
01:00025B3C ?openFile@inputStream_file@@SAXQAV1@@PB_WPAUmode_struct@stream@@PAUaccessPermit_struct@fileSystem_api@@PBUbyteCount@@@Z 
01:00025B8C ?newHandle@inputStream_file@@SAXQAV1@@PBUfileHandle@@PAUmode_struct@stream@@@Z  (Idle)
01:00025BA0 ?newBlockedPipe@inputStream_file@@SAXQAV1@@PBUfileHandle@@PAUmode_struct@stream@@@Z  (Idle)
01:00025BC4 ?newHandleFile@inputStream_file@@SAXQAV1@@PBUfileHandle@@PAUmode_struct@stream@@@Z  (Idle)
01:00025BF4 ?_halfBufferSize@inputStream_file@@SAXQAV1@@AAUbyteCount@@@Z  (Idle)
01:00025C0C ?commonPartOfConstructors@inputStream_file@@SAXQAV1@@PBUfileHandle@@PAUmode_struct@stream@@PAUboolean_struct@_builtIn@@@Z 
01:00025CD4 ?allocBuffer@inputStream_file@@SAXQAV1@@@Z 
01:00025D2C ?skipUnicodeSignature@inputStream_file@@SAXQAV1@@PAUmode_struct@stream@@@Z 
01:00025D90 ?skip@inputStream_file@@SAXQAV1@@HPBUbyteCount@@@Z 
01:00025E04 ?handlingMode@inputStream_file@@SAXQAV1@@PAUmode_struct@stream@@@Z 
01:00025ED0 ?checkBufferSize@inputStream_file@@SAXPBUbyteCount@@@Z 
01:00025F24 ?getPosition@inputStream_file@@SGPBUfileSize@fileSystem_api@@QAVstream@@@@Z 
01:00025FF8 ?_handlingFileMode@inputStream_file@@SAXQAV1@@PAUmode_struct@stream@@PBUbyteCount@@2AAU5@@Z 
01:00026098 ?_handleTextMode@inputStream_file@@SAXQAV1@@PAUmode_struct@stream@@PBUbyteCount@@IAAU5@@Z 
01:0002612C ?_getPassedConv@inputStream_file@@SAXPAU?$__packedList_struct@UbyteCount@@@@IIPBU2@PAI@Z 
01:000261CC ?setPosition@inputStream_file@@SGXQAVstream@@@PBUfileSize@fileSystem_api@@@Z 
01:00026310 ?_checkMovingIsInsideBuffer@inputStream_file@@SAXPAPBUfileSize@fileSystem_api@@0PBUbyteCount@@2AAU6@@Z 
01:000264BC ?close@inputStream_file@@SGXQAVstream@@@@Z 
01:000264E4 ?getCRLFconversion@inputStream_file@@SGPAUboolean_struct@_builtIn@@QAVstream@@@@Z 
01:0002652C ?setCRLFconversion@inputStream_file@@SGXQAVstream@@@PAUboolean_struct@_builtIn@@@Z 
01:000265F4 ?setMode@inputStream_file@@SGXQAVstream@@@PAUmode_struct@2@@Z 
01:000266A0 ?_checkModeAndPos@inputStream_file@@SAXQAV1@@PAUmode_struct@stream@@PAPBUfileSize@fileSystem_api@@PAAAU56@@Z 
01:000267D8 ?getBufferLocked@inputStream_file@@SGXQAVbufferSupport@@@PAPAXAAUbyteCount@@@Z 
01:00026804 ?getBuffer@inputStream_file@@SGXQAVbufferSupport@@@PAPAXAAUbyteCount@@@Z 
01:00026858 ?_fillBuffer@inputStream_file@@SAXQAV1@@PAUmode_struct@stream@@AAUbyteCount@@@Z 
01:000269A0 ?_getChar8sToSave@inputStream_file@@SAXPBUcodePage@@PAXPBUbyteCount@@AAU3@@Z 
01:00026A0C ?_getChar8sToSave_utf8@inputStream_file@@SAXPAXPBUbyteCount@@AAU2@@Z 
01:00026A90 ?_utf8CharLength@inputStream_file@@SAXPBUunsigned8@@AAUbyteCount@@@Z 
01:00026C6C ?_convertToUnicode@inputStream_file@@SAXQAV1@@PBUbyteCount@@PBUcodePage@@PAXAAUcharCount@@@Z 
01:00026CE4 ?convertCRLFtoLF_ifNeeded@inputStream_file@@SAXQAV1@@PAUmode_struct@stream@@PBUbyteCount@@PAPAXAAU5@@Z 
01:00026DAC ?handlingBufferLastChar@inputStream_file@@SAXQAV1@@PBUbyteCount@@PAPAXAAU3@@Z 
01:00026DF0 ?_readFromFile@inputStream_file@@SAXQAV1@@PAXPBUbyteCount@@AAU3@@Z 
01:00026E38 ?_openFile@inputStream_file@@SAXPB_WPAPAVinputStream@@@@Z  (Idle)
01:00026E60 ?_openFile@inputStream_file@@SAXPB_WPAUmode_struct@stream@@PAPAVinputStream@@@@Z  (Idle)
01:00026E8C ?_openFile@inputStream_file@@SAXPB_WPAUmode_struct@stream@@PAUaccessPermit_struct@fileSystem_api@@PAPAVinputStream@@@@Z 
01:00026EBC ?_openFile@inputStream_file@@SAXPB_WPAUmode_struct@stream@@PAUaccessPermit_struct@fileSystem_api@@PBUbyteCount@@PAPAVinputStream@@@@Z  (Idle)
01:00026EF0 ?_openFile8@inputStream_file@@SAXPB_WPAPAVinputStream@@@@Z  (Idle)
01:00026F18 ?_openFileUtf8@inputStream_file@@SAXPB_WPAPAVinputStream@@@@Z  (Idle)
01:00026F40 ?_newHandleFile@inputStream_file@@SAXPBUfileHandle@@PAUmode_struct@stream@@PAPAVinputStream@@@@Z  (Idle)
01:00026F6C ?_newHandle@inputStream_file@@SAXPBUfileHandle@@PAUmode_struct@stream@@PAPAVinputStream@@@@Z  (Idle)
01:00026F98 ?_newBlockedPipe@inputStream_file@@SAXPBUfileHandle@@PAUmode_struct@stream@@PAPAVinputStream@@@@Z  (Idle)
01:00026FC4 ?_object_facts_initializer@inputStream_file@@SGXQAV1@@@Z 
01:00026FEC ?_tryVerQueryValue@fileVersion@@SAXQAEPB_WPAPAX@Z  (Idle)
01:00027038 ?_getFileVersionInformation@fileVersion@@SAXQAEPB_W1PAPB_W@Z  (Idle)
01:000270D8 ?_loadVersionInfo@fileVersion@@SAXPB_WQAPAE@Z  (Idle)
01:00027210 ?_getLanguageAndCodePageKey@fileVersion@@SAXQAEPAPB_W@Z  (Idle)
01:000272A0 ?_getVersionInfo@fileVersion@@SAXPB_WPAPAUversionInformation_struct@1@@Z  (Idle)
01:00027370 ?_getVersionBuildTime@fileVersion@@SAXPB_WPAPB_W@Z  (Idle)
01:000273C8 ?_getProductVersion@fileVersion@@SAXPB_WPAPA_K@Z  (Idle)
01:0002742C ?_getRootKey@fileVersion@@SAXQAEPAPAUvs_fixedfileinfo_struct@1@@Z 
01:00027478 ?_getFileVersionInfo@fileVersion@@SAXPB_WPAPAUfileVersionInformation_struct@1@@Z  (Idle)
01:0002752C ?raise_fileAlreadyExists_explicit@fileSystem_exception@@SAXPAUprogramPoint_struct@core@@PB_W@Z  (Idle)
01:000275A0 ?raise_wrongAttribute_explicit@fileSystem_exception@@SAXPAUprogramPoint_struct@core@@I@Z  (Idle)
01:00027614 ?raise_fileTooBig_explicit@fileSystem_exception@@SAXPAUprogramPoint_struct@core@@PB_W@Z  (Idle)
01:00027688 ?checkFileReadResult_explicit@fileSystem_exception@@SAXPAUprogramPoint_struct@core@@H@Z  (Idle)
01:000276C4 ?_getPath@filename@@SAXPB_WPAPB_W@Z  (Idle)
01:000276E4 ?_getPosLastSlash@filename@@SAXPB_WAAUcharCount@@@Z  (Idle)
01:00027750 ?_getNameWithExtension@filename@@SAXPB_WPAPB_W@Z  (Idle)
01:00027784 ?getPathAndName@filename@@SAXPB_WPAPB_W1@Z 
01:000277CC ?_getName1@filename@@SAXPB_WPAPB_W@Z  (Idle)
01:00027800 ?_getLastDirectory@filename@@SAXPB_WPAPB_W1@Z  (Idle)
01:00027858 ?_removeLastSlash@filename@@SAXPB_WPAPB_W@Z 
01:000278D8 ?_getName@filename@@SAXPB_WPAPB_W@Z  (Idle)
01:00027900 ?_charGet@filename@@SAXPB_WPBUcharCountOptional@@AAU2@@Z  (Idle)
01:0002797C ?_getExtension@filename@@SAXPB_WPAPB_W@Z  (Idle)
01:000279D4 ?_getExtension@filename@@SAXPB_WPAPB_W1@Z  (Idle)
01:00027A4C ?_setPath@filename@@SAXPB_W0PAPB_W@Z  (Idle)
01:00027A78 ?_setName@filename@@SAXPB_W0PAPB_W@Z  (Idle)
01:00027AD4 ?_setExtension@filename@@SAXPB_W0PAPB_W@Z  (Idle)
01:00027BDC ?_reduce@filename@@SAXPB_W0PAPB_W@Z  (Idle)
01:00027CF0 ?_reduceToShort@filename@@SAXPB_W0PAPB_W@Z  (Idle)
01:00027D3C ?getFirstDirectory@filename@@SAXPB_WPAPB_W1@Z 
01:00027E24 ?getNetName@filename@@SAXPB_W0PAPB_W2@Z 
01:00027E7C ?_setTrailSlash@filename@@SAXPB_WPAPB_W@Z 
01:00027ECC ?_getSlashList@filename@@SAXPB_W_WPBUcharCount@@PAPAU?$__packedList_struct@U2@@@@Z  (Idle)
01:00027F5C ?_tail@filename@@SAXPB_WPBUcharCount@@PAPB_W@Z 
01:00027F7C ?_getOrderedList@filename@@SAXPAU?$__packedList_struct@UcharCount@@@@0PAPAU?$__packedList_struct@U2@@@@Z  (Idle)
01:00028034 ?splitPathString@filename@@SAXPB_WPAU?$__packedList_struct@UcharCount@@@@PBU2@PAPAU?$__packedList_struct@Ustring@@@@AAU2@@Z  (Idle)
01:000280C4 ?splitOntoPathAndName@filename@@SAXPB_WPAPAU?$__packedList_struct@Ustring@@@@PAPB_W@Z 
01:0002816C ?_splitFileExt@filename@@SAXPB_WPAPB_W@Z 
01:000281AC ?_splitFileName@filename@@SAXPB_WPAPB_W@Z 
01:000281F8 ?_directoryCompare@filename@@SAXPAU?$__packedList_struct@Ustring@@@@0PAPB_W@Z 
01:0002827C ?_glueRest@filename@@SAXPAU?$__packedList_struct@Ustring@@@@0PAPB_W@Z 
01:000282CC ?splitPath@filename@@SAXPB_WPAPAU?$__packedList_struct@Ustring@@@@AAUcharCount@@@Z 
01:0002833C ?_nameConcat@filename@@SAXPB_W00PAPB_W@Z 
01:000283D0 ?_createPath@filename@@SAXPB_W0PAPB_W@Z  (Idle)
01:00028440 ?_reducePath@filename@@SAXPB_WPAPB_W@Z  (Idle)
01:000284C0 ?_createPath@filename@@SAX_WPB_W11PAPB_W@Z 
01:00028580 ?_concatWithSlash@filename@@SAXPB_W0PAPB_W@Z 
01:00028618 ?_getTypeOfSlash@filename@@SAXPB_W0PAPB_W@Z 
01:000286C4 ?isSlash@filename@@SAX_W@Z 
01:000286E4 ?_checkSecondCharAfterSlash@filename@@SAXPB_W00PAPB_W@Z 
01:000287B0 ?_checkThirdCharAfterColon@filename@@SAXPB_W_W00PAPB_W@Z 
01:00028884 ?_reducePath@filename@@SAX_WPB_WPAPB_W@Z 
01:000288B4 ?_applyFileName@filename@@SAXPB_WPAU?$__packedList_struct@Ustring@@@@PAPAU?$__packedList_struct@U2@@@@Z 
01:000289C4 ?stay_dir@filename@@SAXPB_W@Z  (Idle)
01:00028A04 ?up_dir@filename@@SAXPB_W@Z 
01:00028A4C ?_reducePath_reversed@filename@@SAXPAU?$__packedList_struct@Ustring@@@@PAPAU?$__packedList_struct@U2@@@@Z 
01:00028B2C ?_upOneDir_reversed@filename@@SAXPAU?$__packedList_struct@Ustring@@@@PAPAU?$__packedList_struct@U2@@@@Z 
01:00028C4C ?notDriveOrNetworkVolume@filename@@SAXPB_W@Z 
01:00028D04 ?front_wc@filename@@SAXPB_WPBUcharCount@@PAPB_W2@Z 
01:00028D38 ?_normalize@filename@@SAXPB_WPAPB_W@Z  (Idle)
01:00028E14 ?_normalizeSl@filename@@SAXPB_WPAPB_W@Z 
01:00028E64 ?isAbsolutePath@filename@@SAXPB_W@Z  (Idle)
01:00028F04 ?up_dir@filename@@SAXPAPB_W@Z 
01:00028F18 ?copy@file@@SAXPB_W0@Z  (Idle)
01:00028F2C ?copy@file@@SAXPB_W0PAUoverwrite_struct@1@@Z 
01:00028F98 ?move@file@@SAXPB_W0@Z  (Idle)
01:00028FAC ?move@file@@SAXPB_W0PAUoverwrite_struct@1@@Z 
01:00029030 ?delete@file@@SAXPB_W@Z  (Idle)
01:000290C4 ?existExactFile@file@@SAXPB_W@Z  (Idle)
01:000290F8 ?existFile@file@@SAXPB_W@Z  (Idle)
01:00029230 ?tryGetFile@file@@SAXPBUsearchHandle@@PAUwin32_find_data_struct@fileSystem_native@@@Z 
01:000292D4 ?_createUniqueName@file@@SAXPB_W0PAPB_W@Z 
01:000293DC ?_getPhysicalName@file@@SAXPB_WPAPB_W@Z  (Idle)
01:000295E4 ?setAttributes@file@@SAXPB_WPAU?$__packedList_struct@UfileAttributeAtom@@@@PAUboolean_struct@_builtIn@@@Z  (Idle)
01:0002982C ?getFileProperties@file@@SAXPB_WPAPAU?$__packedList_struct@UfileAttributeAtom@@@@PAAAUfileSize@fileSystem_api@@PAAAUgmtTimeValue@@33@Z  (Idle)
01:000298F0 ?_tryGetLastChange@file@@SAXPB_WPAAAUgmtTimeValue@@@Z  (Idle)
01:00029954 ?setFileTime@file@@SAXPB_WPAPBUgmtTimeValue@@11@Z  (Idle)
01:00029B90 ?moveToRecycleBin@file@@SAXPB_W@Z  (Idle)
01:00029CCC ?_readBinary@file@@SAXPB_WQAPAE@Z  (Idle)
01:00029D90 ?_readFile@file@@SAXPBUfileHandle@@PAXPBUbyteCount@@AAU3@@Z 
01:00029D98 ?_readBinary@file@@SAXPB_WPAPBUfileSize@fileSystem_api@@PBUbyteCount@@QAPAE@Z  (Idle)
01:00029EE4 ?_readString@file@@SAXPB_WPAPB_W@Z  (Idle)
01:00029F04 ?_readString@file@@SAXPB_WPAPAUboolean_struct@_builtIn@@PAPB_W@Z 
01:00029F98 ?_readStringFromHandle@file@@SAXPBUfileHandle@@PAPAUboolean_struct@_builtIn@@PAPB_W@Z 
01:0002A088 ?isUnicode@file@@SAXPB_W@Z  (Idle)
01:0002A1A4 ?tryBOM@file@@SAXPAXPBUbyteCount@@PB_W1@Z  (Idle)
01:0002A1DC ?checkUnicode@file@@SAXPAXPBUbyteCount@@PAPAUmode_struct@stream@@AAU2@@Z 
01:0002A29C ?_getString@file@@SAXPBUbyteCount@@PAXPAUmode_struct@stream@@0PAPB_W@Z 
01:0002A2F8 ?_getString2@file@@SAXPBUbyteCount@@PAXPAUmode_struct@stream@@PAXPAPB_W@Z 
01:0002A3B8 ?_getFileSize@file@@SAXPBUfileHandle@@PB_WAAUbyteCount@@@Z 
01:0002A48C ?writeBinary@file@@SAXPB_WQAE@Z  (Idle)
01:0002A538 ?writeFile@file@@SAXPBUfileHandle@@PAXPBUbyteCount@@@Z 
01:0002A55C ?writeBinary@file@@SAXPB_WPAPBUfileSize@fileSystem_api@@QAE@Z  (Idle)
01:0002A620 ?appendString@file@@SAXPB_W0PAUboolean_struct@_builtIn@@@Z  (Idle)
01:0002A670 ?writeString@file@@SAXPB_W0@Z  (Idle)
01:0002A69C ?writeString@file@@SAXPB_W0PAUboolean_struct@_builtIn@@@Z  (Idle)
01:0002A6BC ?writeStringUtf8@file@@SAXPB_W0@Z  (Idle)
01:0002A6E4 ?writeStringUtf8_bom@file@@SAXPB_W0@Z  (Idle)
01:0002A70C ?writeString_codePage@file@@SAXPB_W0PBU2@@Z 
01:0002A74C ?writeStringAndClose@file@@SAXQAVoutputStream@@@PB_W@Z 
01:0002A7D8 ?checkResult@file@@SAXPBUhResult@@PB_W11PAUoverwrite_struct@1@@Z 
01:0002AB28 ?fileExists_errorCode@file@@SAXPBUhResult@@@Z 
01:0002AB48 ?hideUnicodeSignature@file@@SAXQAEPBUbyteCount@@PAPAXAAU2@@Z 
01:0002ABCC ?_setDestination@file@@SAXPB_W0PAPB_W@Z 
01:0002AC24 ?_toApiAttributes@file@@SAXPAU?$__packedList_struct@UfileAttributeAtom@@@@PAI@Z 
01:0002AC4C ?checkOnLegal@file@@SAXI@Z 
01:0002AC80 ?_mixAttributes@file@@SAXPAUboolean_struct@_builtIn@@IIPAI@Z 
01:0002ACCC ?checkFileHandle@file@@SAXPBUfileHandle@@PB_W@Z 
01:0002ACFC ?_getStreamCheckUnicode@file@@SAXPB_WPAUboolean_struct@_builtIn@@PAPAVoutputStream@@@@Z  (Idle)
01:0002AD24 ?save@file@@SAXPB_WPBUfactDB@@@Z  (Idle)
01:0002AD38 ?save@file@@SAXPB_WPBUfactDB@@PAUboolean_struct@_builtIn@@@Z 
01:0002ADC0 ?saveUtf8@file@@SAXPB_WPBUfactDB@@@Z  (Idle)
01:0002AE48 ?_checkSignature@file@@SAXQAVinputStream@@@PAPAUboolean_struct@_builtIn@@@Z  (Idle)
01:0002AFAC ?consult@file@@SAXPB_WPBUfactDB@@@Z  (Idle)
01:0002AFCC ?consult@file@@SAXPB_WPBUfactDB@@PAPAUboolean_struct@_builtIn@@@Z 
01:0002B068 ?reconsult@file@@SAXPB_WPBUfactDB@@@Z  (Idle)
01:0002B088 ?reconsult@file@@SAXPB_WPBUfactDB@@PAPAUboolean_struct@_builtIn@@@Z 
01:0002B09C ?_trySearchFileInPath@file@@SAXPB_WPAPB_W@Z  (Idle)
01:0002B0E0 ?writeCodedString@file@@SAXPB_W0PBUcodePage@@@Z  (Idle)
01:0002B0E8 ?deleteDirectory@directory@@SAXPB_W@Z  (Idle)
01:0002B0F0 ?makeDirectory@directory@@SAXPB_W@Z  (Idle)
01:0002B104 ?makeDirectoryPath@directory@@SAXPB_W@Z  (Idle)
01:0002B17C ?setCurrentDirectory@directory@@SAXPB_W@Z  (Idle)
01:0002B184 ?_getCurrentDirectory@directory@@SAXPAPB_W@Z 
01:0002B18C ?moveDirectory@directory@@SAXPB_W0@Z  (Idle)
01:0002B194 ?setVolumeLabel@directory@@SAXPB_W0@Z  (Idle)
01:0002B19C ?existDirectory@directory@@SAXPB_W@Z 
01:0002B2EC ?existExactDirectory@directory@@SAXPB_W@Z 
01:0002B31C ?isFirst@directory@@SAXPBUsearchHandle@fileSystem_native@@PAUwin32_find_data_struct@3@@Z  (Idle)
01:0002B3C0 ?isEmpty@directory@@SAXPB_W@Z  (Idle)
01:0002B5D8 ?_dirWithoutBackslash@directory@@SAXPB_WPAPB_W@Z 
01:0002B624 ?getDirectoryProperties@directory@@SAXPB_WPAPAU?$__packedList_struct@UfileAttributeAtom@@@@PAAAUgmtTimeValue@@22@Z  (Idle)
01:0002B64C ?getVolumeProperties@directory@@SAXPB_WPAPAUvolumeType_struct@1@PAAAUfileSize@fileSystem_api@@2PAPB_WPAI@Z  (Idle)
01:0002B6A4 ?_tryGetLogicalDirectory@directory@@SAXPBUdirectoryID@@PAPB_W@Z  (Idle)
01:0002B6C0 ?_getLogicalDirectory@directory@@SAXPBUdirectoryID@@PAPB_W@Z  (Idle)
01:0002B6DC ?_getTemporaryDirectory@directory@@SAXPAPB_W@Z  (Idle)
01:0002B6E4 ?_tryCreateLogicalDirectory@directory@@SAXPBUdirectoryID@@PAPB_W@Z  (Idle)
01:0002B700 ?_getFilesInDirectory_nd@directory@@SAXPB_WPAPB_W@Z  (Idle)
01:0002B720 ?_getFilesInDirectory_nd@directory@@SAXPB_W0PAPB_W@Z 
01:0002B73C ?_getFilesInDirectory_nd@directory@@SAXPB_W0PAUboolean_struct@_builtIn@@PAPB_W@Z 
01:0002B764 ?_getSubDirectories_nd@directory@@SAXPB_WPAPB_W@Z  (Idle)
01:0002B784 ?_getSubDirectories_nd@directory@@SAXPB_W0PAPB_W@Z 
01:0002B7A8 ?_getAllSubDirectories_nd@directory@@SAXPB_WPAPB_W@Z  (Idle)
01:0002B810 ?_getFilesInDirectoryAndSub_nd@directory@@SAXPB_WPAPB_W@Z  (Idle)
01:0002B830 ?_getFilesInDirectoryAndSub_nd@directory@@SAXPB_W0PAPB_W@Z 
01:0002B8BC ?_find@directory@@SAXPB_W0IPAUboolean_struct@_builtIn@@PAPB_W@Z 
01:0002BA24 ?_dirWithBackslash@directory@@SAXPB_WPAPB_W@Z 
01:0002BAA0 ?checkHiddenOrSystem@directory@@SAXPB_WPAUboolean_struct@_builtIn@@@Z 
01:0002BAB8 ?isNotHiddenOrSystem@directory@@SAXPB_W@Z 
01:0002BAE0 ?isSlash@directory@@SAX_W@Z 
01:0002BB00 ?findNext@directory@@SAXPBUsearchHandle@fileSystem_native@@PAUwin32_find_data_struct@3@I@Z 
01:0002BB88 ?_findNext_nd@directory@@SAXPBUsearchHandle@fileSystem_native@@PAUwin32_find_data_struct@3@IPAPB_W@Z 
01:0002BC90 ?_createFullName@directory@@SAXPB_W0PAPB_W@Z 
01:0002BD3C ?_tryLogicalDirectoryBuff@directory@@SAXPBUdirectoryId@1@PAUboolean_struct@_builtIn@@PB_WPAPB_W@Z  (Idle)
01:0002BE94 ?_logicalDirectoryBuff@directory@@SAXPBUdirectoryId@1@PAUboolean_struct@_builtIn@@PB_WPAPB_W@Z  (Idle)
01:0002C0A8 ?_tryLogicalDirectory@directory@@SAXPBUdirectoryId@1@PAUboolean_struct@_builtIn@@PAPB_W@Z 
01:0002C0E0 ?_logicalDirectory@directory@@SAXPBUdirectoryId@1@PAUboolean_struct@_builtIn@@PAPB_W@Z 
01:0002C118 ?_addNeedCreateIfNecessary@directory@@SAXPBUdirectoryId@1@PAUboolean_struct@_builtIn@@AAU21@@Z 
01:0002C148 ?_convertToVolumeType@directory@@SAXHPAPAUvolumeType_struct@1@@Z 
01:0002C1C8 ?_browseForFolder@directory@@SAXPBUhwnd@@PB_W1PAUboolean_struct@_builtIn@@PAPB_W@Z  (Idle)
01:0002C26C ?_getBrowseForFolderFlags@directory@@SAXPAUboolean_struct@_builtIn@@PAI@Z 
01:0002C290 ?browseForFolderCallback@directory@@SGHPBUhwnd@@IPBUlParam@@2@Z 
01:0002C2C8 ?copyDirectory@directory@@SAXPB_W0PAUboolean_struct@_builtIn@@@Z  (Idle)
01:0002C31C ?copyDir@directory@@SAXPB_W0PAUboolean_struct@_builtIn@@@Z 
01:0002C440 ?forAllFiles@directory@@SAXPB_WX@Z  (Idle)
01:0002C460 ?forAllFiles@directory@@SAXPB_WX0PAUboolean_struct@_builtIn@@@Z 
01:0002C704 outputStream_file?_initObject@@@QAGXQAV1@H@Z 
01:0002C738 ?@create_object@outputStream_file@@SGQAV1@@XZ 
01:0002C754 outputStream_file?_InternalFinalizer@@@QAGXQAV1@@Z 
01:0002C76C messageFile?_initObject@@@QAGXQAV1@H@Z 
01:0002C78C ?@create_object@messageFile@@SGQAV1@@XZ 
01:0002C7A8 messageFile?_InternalFinalizer@@@QAGXQAV1@@Z 
01:0002CA40 inputStream_file?_initObject@@@QAGXQAV1@H@Z 
01:0002CA74 ?@create_object@inputStream_file@@SGQAV1@@XZ 
01:0002CA90 inputStream_file?_InternalFinalizer@@@QAGXQAV1@@Z 
--- From 'Obj\list.1520BD2B.obj'
01:0002CAA0 ?_anonymous$c0$1$comparelexically/1nf$list@1@SAXPAUanonymous$c0$1$comparelexically/1nf$listc_struct@1@PAU?$__packedList_struct@PAX@@1PAPAUcompareResult_struct@_builtIn@@@Z 
01:0002CAF8 ?_compareLexically@list@@SAXQAVrTypeLibrary@TypeLibraries@RunTime@VIP@@0XPAX@Z  (Idle)
01:0002CB38 ?_compareLexically@list@@SAXQAVrTypeLibrary@TypeLibraries@RunTime@VIP@@0XPAU?$__packedList_struct@PAX@@3PAPAUcompareResult_struct@_builtIn@@@Z 
01:0002CBDC ?_length2@list@@SAXQAVrTypeLibrary@TypeLibraries@RunTime@VIP@@PAU?$__packedList_struct@PAX@@PBUpositive@@AAU2@@Z  (Idle)
--- From 'Obj\arraym_inline.5CB777DB.obj'
01:0002CC14 ?_length@list@@SAXQAVrTypeLibrary@TypeLibraries@RunTime@VIP@@PAU?$__packedList_struct@PAX@@AAUpositive@@@Z 
--- From 'Obj\list.1520BD2B.obj'
01:0002CC2C ?isMember@list@@SAXQAVrTypeLibrary@TypeLibraries@RunTime@VIP@@PAXPAU?$__packedList_struct@PAX@@@Z  (Idle)
01:0002CC80 ?isMemberEq@list@@SAXQAVrTypeLibrary@TypeLibraries@RunTime@VIP@@0XPAXPAU?$__packedList_struct@PAX@@@Z  (Idle)
01:0002CCE4 ?isMemberBy@list@@SAXQAVrTypeLibrary@TypeLibraries@RunTime@VIP@@0XPAXPAU?$__packedList_struct@PAX@@@Z  (Idle)
01:0002CD10 ?anonymous$c0$1$comp2eq/1nf$list@1@SAXPAUanonymous$c0$1$comp2eq/1nf$listc_struct@1@PAXPAX@Z 
01:0002CD50 ?_comp2eq@list@@SAXQAVrTypeLibrary@TypeLibraries@RunTime@VIP@@0XPAX@Z 
01:0002CD90 ?_tryGetMemberBy@list@@SAXQAVrTypeLibrary@TypeLibraries@RunTime@VIP@@0XPAXPAU?$__packedList_struct@PAX@@PAPAX@Z  (Idle)
01:0002CDB8 ?_tryGetMemberEq@list@@SAXQAVrTypeLibrary@TypeLibraries@RunTime@VIP@@0XPAXPAU?$__packedList_struct@PAX@@PAPAX@Z 
01:0002CE20 ?_getMember_nd@list@@SAXQAVrTypeLibrary@TypeLibraries@RunTime@VIP@@PAU?$__packedList_struct@PAX@@PAPAX@Z  (Idle)
01:0002CE64 ?_getTupleMember_nd@list@@SAXQAVrTypeLibrary@TypeLibraries@RunTime@VIP@@0PAUtuple_struct@core@@PAU?$__packedList_struct@PAX@@PAU?$__packedList_struct@PAX@@PAPAU23@PAPAXPAPAX@Z  (Idle)
01:0002CE98 ?memberIndexAcc_nd@list@@SAXQAVrTypeLibrary@TypeLibraries@RunTime@VIP@@PAPAXAAUpositive@@PAU?$__packedList_struct@PAX@@PBU2@@Z  (Idle)
01:0002CEF8 ?memberIndex_nd@list@@SAXQAVrTypeLibrary@TypeLibraries@RunTime@VIP@@PAPAXAAUpositive@@PAU?$__packedList_struct@PAX@@@Z  (Idle)
01:0002CF08 ?_zipHead_nd@list@@SAXQAVrTypeLibrary@TypeLibraries@RunTime@VIP@@0PAU?$__packedList_struct@PAX@@2PAPAUtuple_struct@core@@PAPAXPAPAX@Z  (Idle)
01:0002CF94 ?_zip_nd@list@@SAXQAVrTypeLibrary@TypeLibraries@RunTime@VIP@@0PAU?$__packedList_struct@PAX@@2PAPAUtuple_struct@core@@PAPAXPAPAX@Z 
01:0002D044 ?_zip_nd@list@@SAXQAVrTypeLibrary@TypeLibraries@RunTime@VIP@@00PAU?$__packedList_struct@PAX@@33PAPAUtuple_struct@core@@PAPAXPAPAXPAPAX@Z  (Idle)
01:0002D17C ?_zip_nd@list@@SAXQAVrTypeLibrary@TypeLibraries@RunTime@VIP@@000PAU?$__packedList_struct@PAX@@444PAPAUtuple_struct@core@@PAPAXPAPAXPAPAXPAPAX@Z  (Idle)
01:0002D3A8 ?_zip_nd@list@@SAXQAVrTypeLibrary@TypeLibraries@RunTime@VIP@@0000PAU?$__packedList_struct@PAX@@5555PAPAUtuple_struct@core@@PAPAXPAPAXPAPAXPAPAXPAPAX@Z  (Idle)
01:0002D64C ?_zip_nd@list@@SAXQAVrTypeLibrary@TypeLibraries@RunTime@VIP@@00000PAU?$__packedList_struct@PAX@@66666PAPAUtuple_struct@core@@PAPAXPAPAXPAPAXPAPAXPAPAXPAPAX@Z  (Idle)
01:0002D964 ?_zip_nd@list@@SAXQAVrTypeLibrary@TypeLibraries@RunTime@VIP@@000000PAU?$__packedList_struct@PAX@@777777PAPAUtuple_struct@core@@PAPAXPAPAXPAPAXPAPAXPAPAXPAPAXPAPAX@Z  (Idle)
01:0002DCF4 ?_zip_nd@list@@SAXQAVrTypeLibrary@TypeLibraries@RunTime@VIP@@0000000PAU?$__packedList_struct@PAX@@8888888PAPAUtuple_struct@core@@PAPAXPAPAXPAPAXPAPAXPAPAXPAPAXPAPAXPAPAX@Z  (Idle)
01:0002E118 ?_zip_nd@list@@SAXQAVrTypeLibrary@TypeLibraries@RunTime@VIP@@00000000PAU?$__packedList_struct@PAX@@99999999PAPAUtuple_struct@core@@PAPAXPAPAXPAPAXPAPAXPAPAXPAPAXPAPAXPAPAXPAPAX@Z  (Idle)
01:0002E5C8 ?_zip_nd@list@@SAXQAVrTypeLibrary@TypeLibraries@RunTime@VIP@@000000000PAU?$__packedList_struct@PAX@@101010101010101010PAPAUtuple_struct@core@@PAPAXPAPAXPAPAXPAPAXPAPAXPAPAXPAPAXPAPAXPAPAXPAPAX@Z  (Idle)
01:0002EB08 ?_zip_nd@list@@SAXQAVrTypeLibrary@TypeLibraries@RunTime@VIP@@0000000000PAU?$__packedList_struct@PAX@@11111111111111111111PAPAUtuple_struct@core@@PAPAXPAPAXPAPAXPAPAXPAPAXPAPAXPAPAXPAPAXPAPAXPAPAXPAPAX@Z  (Idle)
01:0002F0DC ?_zip_nd@list@@SAXQAVrTypeLibrary@TypeLibraries@RunTime@VIP@@00000000000PAU?$__packedList_struct@PAX@@1212121212121212121212PAPAUtuple_struct@core@@PAPAXPAPAXPAPAXPAPAXPAPAXPAPAXPAPAXPAPAXPAPAXPAPAXPAPAXPAPAX@Z  (Idle)
01:0002F750 ?_zipWith@list@@SAXQAVrTypeLibrary@TypeLibraries@RunTime@VIP@@00XPAU?$__packedList_struct@PAX@@4PAPAU?$__packedList_struct@PAPAX@@@Z  (Idle)
01:0002F7E4 ?_zip@list@@SAXQAVrTypeLibrary@TypeLibraries@RunTime@VIP@@0PAU?$__packedList_struct@PAX@@2PAPAU?$__packedList_struct@PAPAUtuple_struct@core@@PAPAXPAPAX@@@Z  (Idle)
01:0002F850 ?_zip@list@@SAXQAVrTypeLibrary@TypeLibraries@RunTime@VIP@@00PAU?$__packedList_struct@PAX@@33PAPAU?$__packedList_struct@PAPAUtuple_struct@core@@PAPAXPAPAXPAPAX@@@Z  (Idle)
01:0002F8C4 ?_zip@list@@SAXQAVrTypeLibrary@TypeLibraries@RunTime@VIP@@000PAU?$__packedList_struct@PAX@@444PAPAU?$__packedList_struct@PAPAUtuple_struct@core@@PAPAXPAPAXPAPAXPAPAX@@@Z  (Idle)
01:0002F93C ?_zip@list@@SAXQAVrTypeLibrary@TypeLibraries@RunTime@VIP@@0000PAU?$__packedList_struct@PAX@@5555PAPAU?$__packedList_struct@PAPAUtuple_struct@core@@PAPAXPAPAXPAPAXPAPAXPAPAX@@@Z  (Idle)
01:0002F9BC ?_zip@list@@SAXQAVrTypeLibrary@TypeLibraries@RunTime@VIP@@00000PAU?$__packedList_struct@PAX@@66666PAPAU?$__packedList_struct@PAPAUtuple_struct@core@@PAPAXPAPAXPAPAXPAPAXPAPAXPAPAX@@@Z  (Idle)
01:0002FA40 ?_zip@list@@SAXQAVrTypeLibrary@TypeLibraries@RunTime@VIP@@000000PAU?$__packedList_struct@PAX@@777777PAPAU?$__packedList_struct@PAPAUtuple_struct@core@@PAPAXPAPAXPAPAXPAPAXPAPAXPAPAXPAPAX@@@Z  (Idle)
01:0002FACC ?_zip@list@@SAXQAVrTypeLibrary@TypeLibraries@RunTime@VIP@@0000000PAU?$__packedList_struct@PAX@@8888888PAPAU?$__packedList_struct@PAPAUtuple_struct@core@@PAPAXPAPAXPAPAXPAPAXPAPAXPAPAXPAPAXPAPAX@@@Z  (Idle)
01:0002FB5C ?_zip@list@@SAXQAVrTypeLibrary@TypeLibraries@RunTime@VIP@@00000000PAU?$__packedList_struct@PAX@@99999999PAPAU?$__packedList_struct@PAPAUtuple_struct@core@@PAPAXPAPAXPAPAXPAPAXPAPAXPAPAXPAPAXPAPAXPAPAX@@@Z  (Idle)
01:0002FBF4 ?_zip@list@@SAXQAVrTypeLibrary@TypeLibraries@RunTime@VIP@@000000000PAU?$__packedList_struct@PAX@@101010101010101010PAPAU?$__packedList_struct@PAPAUtuple_struct@core@@PAPAXPAPAXPAPAXPAPAXPAPAXPAPAXPAPAXPAPAXPAPAXPAPAX@@@Z  (Idle)
01:0002FC90 ?_zip@list@@SAXQAVrTypeLibrary@TypeLibraries@RunTime@VIP@@0000000000PAU?$__packedList_struct@PAX@@11111111111111111111PAPAU?$__packedList_struct@PAPAUtuple_struct@core@@PAPAXPAPAXPAPAXPAPAXPAPAXPAPAXPAPAXPAPAXPAPAXPAPAXPAPAX@@@Z  (Idle)
01:0002FD34 ?_zip@list@@SAXQAVrTypeLibrary@TypeLibraries@RunTime@VIP@@00000000000PAU?$__packedList_struct@PAX@@1212121212121212121212PAPAU?$__packedList_struct@PAPAUtuple_struct@core@@PAPAXPAPAXPAPAXPAPAXPAPAXPAPAXPAPAXPAPAXPAPAXPAPAXPAPAXPAPAX@@@Z  (Idle)
01:0002FDDC ?unzip@list@@SAXQAVrTypeLibrary@TypeLibraries@RunTime@VIP@@0PAU?$__packedList_struct@PAUtuple_struct@core@@PAXPAX@@PAPAU?$__packedList_struct@PAPAX@@3@Z  (Idle)
01:0002FE6C ?unzip@list@@SAXQAVrTypeLibrary@TypeLibraries@RunTime@VIP@@00PAU?$__packedList_struct@PAUtuple_struct@core@@PAXPAXPAX@@PAPAU?$__packedList_struct@PAPAX@@44@Z  (Idle)
01:0002FF34 ?unzip@list@@SAXQAVrTypeLibrary@TypeLibraries@RunTime@VIP@@000PAU?$__packedList_struct@PAUtuple_struct@core@@PAXPAXPAXPAX@@PAPAU?$__packedList_struct@PAPAX@@555@Z  (Idle)
01:00030030 ?unzip@list@@SAXQAVrTypeLibrary@TypeLibraries@RunTime@VIP@@0000PAU?$__packedList_struct@PAUtuple_struct@core@@PAXPAXPAXPAXPAX@@PAPAU?$__packedList_struct@PAPAX@@6666@Z  (Idle)
01:00030164 ?unzip@list@@SAXQAVrTypeLibrary@TypeLibraries@RunTime@VIP@@00000PAU?$__packedList_struct@PAUtuple_struct@core@@PAXPAXPAXPAXPAXPAX@@PAPAU?$__packedList_struct@PAPAX@@77777@Z  (Idle)
01:000302CC ?unzip@list@@SAXQAVrTypeLibrary@TypeLibraries@RunTime@VIP@@000000PAU?$__packedList_struct@PAUtuple_struct@core@@PAXPAXPAXPAXPAXPAXPAX@@PAPAU?$__packedList_struct@PAPAX@@888888@Z  (Idle)
01:0003046C ?unzip@list@@SAXQAVrTypeLibrary@TypeLibraries@RunTime@VIP@@0000000PAU?$__packedList_struct@PAUtuple_struct@core@@PAXPAXPAXPAXPAXPAXPAXPAX@@PAPAU?$__packedList_struct@PAPAX@@9999999@Z  (Idle)
01:0003064C ?unzip@list@@SAXQAVrTypeLibrary@TypeLibraries@RunTime@VIP@@00000000PAU?$__packedList_struct@PAUtuple_struct@core@@PAXPAXPAXPAXPAXPAXPAXPAXPAX@@PAPAU?$__packedList_struct@PAPAX@@1010101010101010@Z  (Idle)
01:0003087C ?unzip@list@@SAXQAVrTypeLibrary@TypeLibraries@RunTime@VIP@@000000000PAU?$__packedList_struct@PAUtuple_struct@core@@PAXPAXPAXPAXPAXPAXPAXPAXPAXPAX@@PAPAU?$__packedList_struct@PAPAX@@111111111111111111@Z  (Idle)
01:00030B18 ?unzip@list@@SAXQAVrTypeLibrary@TypeLibraries@RunTime@VIP@@0000000000PAU?$__packedList_struct@PAUtuple_struct@core@@PAXPAXPAXPAXPAXPAXPAXPAXPAXPAXPAX@@PAPAU?$__packedList_struct@PAPAX@@12121212121212121212@Z  (Idle)
01:00030E04 ?unzip@list@@SAXQAVrTypeLibrary@TypeLibraries@RunTime@VIP@@00000000000PAU?$__packedList_struct@PAUtuple_struct@core@@PAXPAXPAXPAXPAXPAXPAXPAXPAXPAXPAXPAX@@PAPAU?$__packedList_struct@PAPAX@@1313131313131313131313@Z  (Idle)
01:00031140 ?_anonymous$c0$1$sortby/3nf$list@1@SAXPAUanonymous$c0$1$sortby/3nf$listc_struct@1@PAXPAXPAPAUcompareResult_struct@_builtIn@@@Z 
01:00031170 ?_sortBy@list@@SAXQAVrTypeLibrary@TypeLibraries@RunTime@VIP@@XPAU?$__packedList_struct@PAX@@PAUsortOrder_struct@core@@PAPAU?$__packedList_struct@PAPAX@@@Z  (Idle)
01:000311CC ?_sortBy@list@@SAXQAVrTypeLibrary@TypeLibraries@RunTime@VIP@@XPAU?$__packedList_struct@PAX@@PAPAU?$__packedList_struct@PAPAX@@@Z 
01:000311F8 ?_anonymous$c0$1$sort/1$list@1@SAXPAUanonymous$c0$1$sort/1$listc_struct@1@PAXPAXPAPAUcompareResult_struct@_builtIn@@@Z 
01:00031210 ?_sort@list@@SAXQAVrTypeLibrary@TypeLibraries@RunTime@VIP@@PAU?$__packedList_struct@PAX@@PAPAU?$__packedList_struct@PAPAX@@@Z  (Idle)
01:0003125C ?_anonymous$c0$1$sort/2nf$list@1@SAXPAUanonymous$c0$1$sort/2nf$listc_struct@1@PAXPAXPAPAUcompareResult_struct@_builtIn@@@Z 
01:00031290 ?_sort@list@@SAXQAVrTypeLibrary@TypeLibraries@RunTime@VIP@@PAU?$__packedList_struct@PAX@@PAUsortOrder_struct@core@@PAPAU?$__packedList_struct@PAPAX@@@Z  (Idle)
01:000312F8 ?_merge@list@@SAXQAVrTypeLibrary@TypeLibraries@RunTime@VIP@@XPAU?$__packedList_struct@PAU?$__packedList_struct@PAX@@@@PAPAU?$__packedList_struct@PAPAX@@@Z 
01:00031374 ?mergeL@list@@SAXQAVrTypeLibrary@TypeLibraries@RunTime@VIP@@XPAU?$__packedList_struct@PAU?$__packedList_struct@PAX@@@@PAPAU?$__packedList_struct@PAPAU?$__packedList_struct@PAPAX@@@@@Z 
01:000313FC ?_merge2@list@@SAXQAVrTypeLibrary@TypeLibraries@RunTime@VIP@@XPAU?$__packedList_struct@PAX@@2PAPAU?$__packedList_struct@PAPAX@@@Z 
01:000314E4 ?_mkRuns@list@@SAXQAVrTypeLibrary@TypeLibraries@RunTime@VIP@@XPAU?$__packedList_struct@PAX@@PAPAU?$__packedList_struct@PAPAU?$__packedList_struct@PAPAX@@@@@Z 
01:000315F4 ?takeRun@list@@SAXQAVrTypeLibrary@TypeLibraries@RunTime@VIP@@XPAXPAU?$__packedList_struct@PAX@@PAPAU?$__packedList_struct@PAPAX@@4@Z 
01:000316D0 ?takeRunDown@list@@SAXQAVrTypeLibrary@TypeLibraries@RunTime@VIP@@XPAXPAU?$__packedList_struct@PAX@@3PAPAU?$__packedList_struct@PAPAX@@5@Z 
01:0003179C ?_append@list@@SAXQAVrTypeLibrary@TypeLibraries@RunTime@VIP@@PAU?$__packedList_struct@PAX@@1PAPAU?$__packedList_struct@PAPAX@@@Z  (Idle)
01:000317BC ?_append1@list@@SAXQAVrTypeLibrary@TypeLibraries@RunTime@VIP@@PAU?$__packedList_struct@PAX@@1PAPAU?$__packedList_struct@PAPAX@@@Z 
01:0003181C ?_append@list@@SAXQAVrTypeLibrary@TypeLibraries@RunTime@VIP@@PAU?$__packedList_struct@PAX@@11PAPAU?$__packedList_struct@PAPAX@@@Z  (Idle)
01:00031850 ?_append@list@@SAXQAVrTypeLibrary@TypeLibraries@RunTime@VIP@@PAU?$__packedList_struct@PAX@@111PAPAU?$__packedList_struct@PAPAX@@@Z  (Idle)
01:00031880 ?_append@list@@SAXQAVrTypeLibrary@TypeLibraries@RunTime@VIP@@PAU?$__packedList_struct@PAX@@1111PAPAU?$__packedList_struct@PAPAX@@@Z  (Idle)
01:000318B0 ?_appendList@list@@SAXQAVrTypeLibrary@TypeLibraries@RunTime@VIP@@PAU?$__packedList_struct@PAU?$__packedList_struct@PAX@@@@PAPAU?$__packedList_struct@PAPAX@@@Z  (Idle)
01:00031924 ?_reverse@list@@SAXQAVrTypeLibrary@TypeLibraries@RunTime@VIP@@PAU?$__packedList_struct@PAX@@PAPAU?$__packedList_struct@PAPAX@@@Z 
01:0003194C ?_reverse1@list@@SAXQAVrTypeLibrary@TypeLibraries@RunTime@VIP@@PAU?$__packedList_struct@PAX@@1PAPAU?$__packedList_struct@PAPAX@@@Z 
01:0003199C ?_remove@list@@SAXQAVrTypeLibrary@TypeLibraries@RunTime@VIP@@PAU?$__packedList_struct@PAX@@PAXPAPAU?$__packedList_struct@PAPAX@@@Z  (Idle)
01:00031A2C ?_removeBy@list@@SAXQAVrTypeLibrary@TypeLibraries@RunTime@VIP@@0XPAU?$__packedList_struct@PAX@@PAXPAPAU?$__packedList_struct@PAPAX@@@Z  (Idle)
01:00031A58 ?_removeEq@list@@SAXQAVrTypeLibrary@TypeLibraries@RunTime@VIP@@0XPAU?$__packedList_struct@PAX@@PAXPAPAU?$__packedList_struct@PAPAX@@@Z 
01:00031AFC ?_removeAll@list@@SAXQAVrTypeLibrary@TypeLibraries@RunTime@VIP@@PAU?$__packedList_struct@PAX@@PAXPAPAU?$__packedList_struct@PAPAX@@@Z  (Idle)
01:00031B98 ?_removeAllBy@list@@SAXQAVrTypeLibrary@TypeLibraries@RunTime@VIP@@0XPAU?$__packedList_struct@PAX@@PAXPAPAU?$__packedList_struct@PAPAX@@@Z  (Idle)
01:00031BC4 ?_removeAllEq@list@@SAXQAVrTypeLibrary@TypeLibraries@RunTime@VIP@@0XPAU?$__packedList_struct@PAX@@PAXPAPAU?$__packedList_struct@PAPAX@@@Z 
01:00031C68 ?_removeDuplicates@list@@SAXQAVrTypeLibrary@TypeLibraries@RunTime@VIP@@PAU?$__packedList_struct@PAX@@PAPAU?$__packedList_struct@PAPAX@@@Z  (Idle)
01:00031C9C ?_removeDuplicatesBy@list@@SAXQAVrTypeLibrary@TypeLibraries@RunTime@VIP@@XPAU?$__packedList_struct@PAX@@PAPAU?$__packedList_struct@PAPAX@@@Z  (Idle)
01:00031CD0 ?_removeDuplicates1@list@@SAXQAVrTypeLibrary@TypeLibraries@RunTime@VIP@@PAU?$__packedList_struct@PAX@@QAVsetM@@@PAXPAPAU?$__packedList_struct@PAPAX@@@Z 
01:00031DA4 ?_removeDuplicatesEq@list@@SAXQAVrTypeLibrary@TypeLibraries@RunTime@VIP@@XPAU?$__packedList_struct@PAX@@PAPAU?$__packedList_struct@PAPAX@@@Z  (Idle)
01:00031E44 ?_anonymous$c0$1$removeConsecutiveDuplicates/1$list@1@SAXPAUanonymous$c0$1$removeConsecutiveDuplicates/1$listc_struct@1@PAXPAXPAPAUcompareResult_struct@_builtIn@@@Z 
01:00031E5C ?_removeConsecutiveDuplicates@list@@SAXQAVrTypeLibrary@TypeLibraries@RunTime@VIP@@PAU?$__packedList_struct@PAX@@PAPAU?$__packedList_struct@PAPAX@@@Z  (Idle)
01:00031EA8 ?_removeConsecutiveDuplicatesEq@list@@SAXQAVrTypeLibrary@TypeLibraries@RunTime@VIP@@XPAU?$__packedList_struct@PAX@@PAPAU?$__packedList_struct@PAPAX@@@Z  (Idle)
01:00031F74 ?_removeConsecutiveDuplicatesBy@list@@SAXQAVrTypeLibrary@TypeLibraries@RunTime@VIP@@XPAU?$__packedList_struct@PAX@@PAPAU?$__packedList_struct@PAPAX@@@Z 
01:0003203C ?_difference@list@@SAXQAVrTypeLibrary@TypeLibraries@RunTime@VIP@@PAU?$__packedList_struct@PAX@@1PAPAU?$__packedList_struct@PAPAX@@@Z  (Idle)
01:000320E0 ?_differenceBy@list@@SAXQAVrTypeLibrary@TypeLibraries@RunTime@VIP@@0XPAU?$__packedList_struct@PAX@@3PAPAU?$__packedList_struct@PAPAX@@@Z  (Idle)
01:0003210C ?_differenceEq@list@@SAXQAVrTypeLibrary@TypeLibraries@RunTime@VIP@@0XPAU?$__packedList_struct@PAX@@3PAPAU?$__packedList_struct@PAPAX@@@Z 
01:000321B8 ?_nDuplicates@list@@SAXQAVrTypeLibrary@TypeLibraries@RunTime@VIP@@PAXPBUpositive@@PAPAU?$__packedList_struct@PAPAX@@@Z  (Idle)
01:00032208 ?_tryGetIndex@list@@SAXQAVrTypeLibrary@TypeLibraries@RunTime@VIP@@PAXPAU?$__packedList_struct@PAX@@AAUpositive@@@Z  (Idle)
01:00032224 ?_tryGetIndex@list@@SAXQAVrTypeLibrary@TypeLibraries@RunTime@VIP@@PAXPAU?$__packedList_struct@PAX@@PBUpositive@@AAU2@@Z 
01:0003228C ?_tryGetIndexBy@list@@SAXQAVrTypeLibrary@TypeLibraries@RunTime@VIP@@0XPAXPAU?$__packedList_struct@PAX@@AAUpositive@@@Z  (Idle)
01:000322DC ?_tryGetIndexEq@list@@SAXQAVrTypeLibrary@TypeLibraries@RunTime@VIP@@0XPAXPAU?$__packedList_struct@PAX@@AAUpositive@@@Z  (Idle)
01:000322F8 ?_tryGetIndexEq@list@@SAXQAVrTypeLibrary@TypeLibraries@RunTime@VIP@@0XPAXPAU?$__packedList_struct@PAX@@PBUpositive@@AAU2@@Z 
01:00032374 ?_tryGetLast@list@@SAXQAVrTypeLibrary@TypeLibraries@RunTime@VIP@@PAU?$__packedList_struct@PAX@@PAPAX@Z  (Idle)
01:000323B4 ?_nth@list@@SAXQAVrTypeLibrary@TypeLibraries@RunTime@VIP@@PBUpositive@@PAU?$__packedList_struct@PAX@@PAPAX@Z 
01:00032424 ?_tryGetNth@list@@SAXQAVrTypeLibrary@TypeLibraries@RunTime@VIP@@PBUpositive@@PAU?$__packedList_struct@PAX@@PAPAX@Z 
01:00032488 ?setNth@list@@SAXQAVrTypeLibrary@TypeLibraries@RunTime@VIP@@PBUpositive@@PAU?$__packedList_struct@PAX@@PAXPAPAU?$__packedList_struct@PAPAX@@@Z  (Idle)
01:0003257C ?split@list@@SAXQAVrTypeLibrary@TypeLibraries@RunTime@VIP@@PBUpositive@@PAU?$__packedList_struct@PAX@@PAPAU?$__packedList_struct@PAPAX@@3@Z  (Idle)
01:00032624 ?_take@list@@SAXQAVrTypeLibrary@TypeLibraries@RunTime@VIP@@PBUpositive@@PAU?$__packedList_struct@PAX@@PAPAU?$__packedList_struct@PAPAX@@@Z  (Idle)
01:00032648 ?_drop@list@@SAXQAVrTypeLibrary@TypeLibraries@RunTime@VIP@@PBUpositive@@PAU?$__packedList_struct@PAX@@PAPAU?$__packedList_struct@PAPAX@@@Z  (Idle)
01:000326A0 ?splitAfter@list@@SAXQAVrTypeLibrary@TypeLibraries@RunTime@VIP@@XPAU?$__packedList_struct@PAX@@PAPAU?$__packedList_struct@PAPAX@@3@Z  (Idle)
01:00032770 ?_anonymous$c0$1$splitafter/2nf$list@1@SAXPAUanonymous$c0$1$splitafter/2nf$listc_struct@1@PAU?$__packedList_struct@PAX@@PAPAUtuple_struct@core@@PAPAU?$__packedList_struct@PAPAX@@PAPAU?$__packedList_struct@PAPAX@@@Z 
01:000327F0 ?_splitAfter@list@@SAXQAVrTypeLibrary@TypeLibraries@RunTime@VIP@@XPAU?$__packedList_struct@PAX@@PAPAU?$__packedList_struct@PAPAU?$__packedList_struct@PAPAX@@@@@Z  (Idle)
01:0003287C ?_maximumBy@list@@SAXQAVrTypeLibrary@TypeLibraries@RunTime@VIP@@XPAU?$__packedList_struct@PAX@@PAPAX@Z  (Idle)
01:000328C8 ?_anonymous$c0$1$maximum/1$list@1@SAXPAUanonymous$c0$1$maximum/1$listc_struct@1@PAXPAXPAPAUcompareResult_struct@_builtIn@@@Z 
01:000328E0 ?_maximum@list@@SAXQAVrTypeLibrary@TypeLibraries@RunTime@VIP@@PAU?$__packedList_struct@PAX@@PAPAX@Z  (Idle)
01:0003292C ?_anonymous$c0$1$minimumby/2nf$list@1@SAXPAUanonymous$c0$1$minimumby/2nf$listc_struct@1@PAXPAXPAPAUcompareResult_struct@_builtIn@@@Z 
01:0003295C ?_minimumBy@list@@SAXQAVrTypeLibrary@TypeLibraries@RunTime@VIP@@XPAU?$__packedList_struct@PAX@@PAPAX@Z  (Idle)
01:000329E0 ?_anonymous$c0$1$minimum/1$list@1@SAXPAUanonymous$c0$1$minimum/1$listc_struct@1@PAXPAXPAPAUcompareResult_struct@_builtIn@@@Z 
01:000329F8 ?_minimum@list@@SAXQAVrTypeLibrary@TypeLibraries@RunTime@VIP@@PAU?$__packedList_struct@PAX@@PAPAX@Z  (Idle)
01:00032A44 ?_extremum@list@@SAXQAVrTypeLibrary@TypeLibraries@RunTime@VIP@@XPAXPAU?$__packedList_struct@PAX@@PAPAX@Z 
01:00032AB8 ?_union@list@@SAXQAVrTypeLibrary@TypeLibraries@RunTime@VIP@@PAU?$__packedList_struct@PAX@@1PAPAU?$__packedList_struct@PAPAX@@@Z  (Idle)
01:00032B5C ?_unionBy@list@@SAXQAVrTypeLibrary@TypeLibraries@RunTime@VIP@@XPAU?$__packedList_struct@PAX@@2PAPAU?$__packedList_struct@PAPAX@@@Z  (Idle)
01:00032B88 ?_unionEq@list@@SAXQAVrTypeLibrary@TypeLibraries@RunTime@VIP@@XPAU?$__packedList_struct@PAX@@2PAPAU?$__packedList_struct@PAPAX@@@Z 
01:00032C30 ?_intersection@list@@SAXQAVrTypeLibrary@TypeLibraries@RunTime@VIP@@PAU?$__packedList_struct@PAX@@1PAPAU?$__packedList_struct@PAPAX@@@Z  (Idle)
01:00032CCC ?_intersectionBy@list@@SAXQAVrTypeLibrary@TypeLibraries@RunTime@VIP@@XPAU?$__packedList_struct@PAX@@2PAPAU?$__packedList_struct@PAPAX@@@Z  (Idle)
01:00032CF8 ?_intersectionEq@list@@SAXQAVrTypeLibrary@TypeLibraries@RunTime@VIP@@XPAU?$__packedList_struct@PAX@@2PAPAU?$__packedList_struct@PAPAX@@@Z 
01:00032D9C ?_filter@list@@SAXQAVrTypeLibrary@TypeLibraries@RunTime@VIP@@PAU?$__packedList_struct@PAX@@XPAPAU?$__packedList_struct@PAPAX@@@Z  (Idle)
01:00032E14 ?filter@list@@SAXQAVrTypeLibrary@TypeLibraries@RunTime@VIP@@PAU?$__packedList_struct@PAX@@XPAPAU?$__packedList_struct@PAPAX@@3@Z  (Idle)
01:00032EF0 ?_decompose@list@@SAXQAVrTypeLibrary@TypeLibraries@RunTime@VIP@@0PAU?$__packedList_struct@PAX@@XPAPAU?$__packedList_struct@PAPAUtuple_struct@core@@PAPAXPAPAU?$__packedList_struct@PAPAX@@@@@Z  (Idle)
01:00033088 ?_interleave@list@@SAXQAVrTypeLibrary@TypeLibraries@RunTime@VIP@@PAU?$__packedList_struct@PAX@@PAXPAPAU?$__packedList_struct@PAPAX@@@Z  (Idle)
01:00033124 ?anonymous$c0$1$groupbyeq/2nf$list@1@SAXPAUanonymous$c0$1$groupbyeq/2nf$listc_struct@1@PAX@Z 
01:00033158 ?_groupByEq@list@@SAXQAVrTypeLibrary@TypeLibraries@RunTime@VIP@@XPAU?$__packedList_struct@PAX@@PAPAU?$__packedList_struct@PAPAU?$__packedList_struct@PAPAX@@@@@Z  (Idle)
01:00033214 ?_map@list@@SAXQAVrTypeLibrary@TypeLibraries@RunTime@VIP@@0PAU?$__packedList_struct@PAX@@XPAPAU?$__packedList_struct@PAPAX@@@Z  (Idle)
01:00033290 ?_filteredMap@list@@SAXQAVrTypeLibrary@TypeLibraries@RunTime@VIP@@0PAU?$__packedList_struct@PAX@@XPAPAU?$__packedList_struct@PAPAX@@@Z  (Idle)
01:00033314 ?_fold@list@@SAXQAVrTypeLibrary@TypeLibraries@RunTime@VIP@@0PAU?$__packedList_struct@PAX@@XPAXPAPAX@Z  (Idle)
01:00033378 ?_foldl@list@@SAXQAVrTypeLibrary@TypeLibraries@RunTime@VIP@@0PAU?$__packedList_struct@PAX@@XPAXPAPAX@Z  (Idle)
01:000333D4 ?_anonymous$c0$1$foldr/3nf$list@1@SAXPAUanonymous$c0$1$foldr/3nf$listc_struct@1@PAXPAXPAPAX@Z 
01:00033404 ?_foldr@list@@SAXQAVrTypeLibrary@TypeLibraries@RunTime@VIP@@0PAU?$__packedList_struct@PAX@@XPAXPAPAX@Z  (Idle)
01:00033464 ?_unfold@list@@SAXQAVrTypeLibrary@TypeLibraries@RunTime@VIP@@0PAXXPAPAU?$__packedList_struct@PAPAX@@@Z 
01:000334E4 ?forAll@list@@SAXQAVrTypeLibrary@TypeLibraries@RunTime@VIP@@PAU?$__packedList_struct@PAX@@X@Z  (Idle)
01:00033528 ?_exists@list@@SAXQAVrTypeLibrary@TypeLibraries@RunTime@VIP@@PAU?$__packedList_struct@PAX@@XPAPAX@Z  (Idle)
01:00033590 ?exists@list@@SAXQAVrTypeLibrary@TypeLibraries@RunTime@VIP@@PAU?$__packedList_struct@PAX@@X@Z  (Idle)
01:000335B4 ?all@list@@SAXQAVrTypeLibrary@TypeLibraries@RunTime@VIP@@PAU?$__packedList_struct@PAX@@X@Z  (Idle)
01:000335F8 ?exceptionDifferentLength_explicit@list@@SAXPAUprogramPoint_struct@core@@@Z 
01:0003362C ?exceptionEmpty_explicit@list@@SAXPAUprogramPoint_struct@core@@@Z 
--- From 'Obj\math.724D21D5.obj'
01:00033660 ?raise_asinOutOfBounds_explicit@math_exception@@SAXPAUprogramPoint_struct@core@@PAN@Z  (Idle)
01:000336D4 ?raise_acoshOutOfBounds_explicit@math_exception@@SAXPAUprogramPoint_struct@core@@PAN@Z  (Idle)
01:00033748 ?raise_atanhOutOfBounds_explicit@math_exception@@SAXPAUprogramPoint_struct@core@@PAN@Z  (Idle)
01:000337BC ?raise_acotanhOutOfBounds_explicit@math_exception@@SAXPAUprogramPoint_struct@core@@PAN@Z  (Idle)
01:00033830 ?raise_cotanhInfinityResult_explicit@math_exception@@SAXPAUprogramPoint_struct@core@@PAN@Z  (Idle)
01:000338A4 ?isNaN@math@@SAXPAN@Z  (Idle)
01:00033928 ?check_asin_nearBounds@math@@SAXPAPBUinCircle@@@Z  (Idle)
01:0003396C ?_getBoundsForValue@math@@SAXPAPBUinCircle@@PAPAN@Z  (Idle)
01:000339A0 ?_arcsin@math@@SAXPAPBUinCircle@@PAPAN@Z  (Idle)
01:00033B0C ?_sinh@math@@SAXPANPAPAN@Z  (Idle)
01:00033B88 ?_prepareResultForBigValue@math@@SAXPANPAAAUuReal@@@Z  (Idle)
01:00033D0C ?_arcsinh@math@@SAXPANPAPAN@Z  (Idle)
01:00033D60 ?_arccos@math@@SAXPAPBUinCircle@@PAPAN@Z  (Idle)
01:00033DAC ?_cosh@math@@SAXPANPAAAUuReal@@@Z  (Idle)
01:00033E40 ?_prepareResultForValue@math@@SAXPAPBUuReal@@PAAAU2@@Z  (Idle)
01:00033F74 ?_arccosh@math@@SAXPAPBUuReal@@PAPAN@Z  (Idle)
01:00033FEC ?_get_tanhBoundsForValue@math@@SAXPANPAAAUinCircle@@@Z  (Idle)
01:00034020 ?_tanh@math@@SAXPANPAAAUinCircle@@@Z  (Idle)
01:000340E4 ?_arctanh@math@@SAXPAPBUinCircle@@PAPAN@Z  (Idle)
01:000341A8 ?_cotanh@math@@SAXPANPAPAN@Z  (Idle)
01:00034274 ?_arccotanh@math@@SAXPANPAPAN@Z  (Idle)
01:0003433C ?_sqr@math@@SAXPANPAAAUuReal@@@Z 
01:00034378 ?_round@math@@SAXPANPAH@Z  (Idle)
01:000343B4 ?_roundToUnsigned@math@@SAXPANPAI@Z 
01:000343F0 ?_roundToInteger64@math@@SAXPANPAPA_J@Z  (Idle)
01:0003444C ?_roundToUnsigned64@math@@SAXPANPAPA_K@Z  (Idle)
01:000344A8 ?_trunc@math@@SAXPANPAH@Z  (Idle)
01:000344E4 ?_fraction@math@@SAXPANPAPAN@Z  (Idle)
01:00034534 ?_ceil@math@@SAXPANPAH@Z 
01:0003456C ?_ceilToReal@math@@SAXPANPAPAN@Z 
01:0003461C ?_floor@math@@SAXPANPAH@Z  (Idle)
01:00034668 ?_floorToReal@math@@SAXPANPAPAN@Z  (Idle)
--- From 'Obj\varm.17B5C45B.obj'
01:000346D0 ?_max@math@@SAXHHPAH@Z 
--- From 'Obj\math.724D21D5.obj'
01:000346F4 ?_max@math@@SAXHHHPAH@Z  (Idle)
--- From 'Obj\varm.17B5C45B.obj'
01:0003471C ?_min@math@@SAXHHPAH@Z 
--- From 'Obj\math.724D21D5.obj'
01:00034740 ?_min@math@@SAXHHHPAH@Z  (Idle)
01:00034768 ?_restrict@math@@SAXHHHPAH@Z  (Idle)
01:0003479C ?divides_dt@math@@SAXHH@Z  (Idle)
--- From 'Obj\varm.17B5C45B.obj'
01:000347D8 ?_max@math@@SAXIIPAI@Z 
--- From 'Obj\math.724D21D5.obj'
01:000347FC ?_max@math@@SAXPANPANPAPAN@Z  (Idle)
01:00034834 ?_max@math@@SAXMMPAM@Z  (Idle)
01:0003489C ?_max@math@@SAXPA_J0PAPA_J@Z  (Idle)
01:000348EC ?_max@math@@SAXPBUintegerNative@@0AAU2@@Z  (Idle)
01:00034910 ?_max@math@@SAXPA_K0PAPA_K@Z  (Idle)
01:00034960 ?_max@math@@SAXPBUunsignedNative@@0AAU2@@Z  (Idle)
01:00034984 ?_max@math@@SAXIIIPAI@Z  (Idle)
01:000349B4 ?_max@math@@SAXPANPANPANPAPAN@Z  (Idle)
01:000349E4 ?_max@math@@SAXMMMPAM@Z  (Idle)
--- From 'Obj\varm.17B5C45B.obj'
01:00034A20 ?_min@math@@SAXIIPAI@Z 
--- From 'Obj\math.724D21D5.obj'
01:00034A44 ?_min@math@@SAXPANPANPAPAN@Z  (Idle)
01:00034A7C ?_min@math@@SAXMMPAM@Z  (Idle)
01:00034AE4 ?_min@math@@SAXPA_J0PAPA_J@Z  (Idle)
01:00034B34 ?_min@math@@SAXPBUintegerNative@@0AAU2@@Z  (Idle)
01:00034B58 ?_min@math@@SAXPA_K0PAPA_K@Z  (Idle)
01:00034BA8 ?_min@math@@SAXPBUunsignedNative@@0AAU2@@Z  (Idle)
01:00034BCC ?_min@math@@SAXIIIPAI@Z  (Idle)
01:00034BFC ?_min@math@@SAXPANPANPANPAPAN@Z  (Idle)
01:00034C2C ?_min@math@@SAXMMMPAM@Z  (Idle)
01:00034C68 ?_restrict@math@@SAXIIIPAI@Z  (Idle)
01:00034C9C ?_restrict@math@@SAXPANPANPANPAPAN@Z  (Idle)
01:00034CD0 ?divides_dt@math@@SAXII@Z  (Idle)
--- From 'Obj\memory.9BD3BF38.obj'
01:00034CF0 ?new@weakReference@@SAXQAV1@@PAXQAVrTypeLibrary@TypeLibraries@RunTime@VIP@@PAX@Z  (Idle)
01:00034D28 ?_tryDeref@weakReference@@SAXQAV1@@PAXPAPAX@Z 
01:00034DAC ?doIfExist@weakReference@@SAXQAV1@@PAXX@Z 
01:00034E0C ?released@weakReference@@SGQAVevent0@@@PBUhandle@@QAV1@@PAX@Z 
01:00034E54 ?finalize@weakReference@@SGXQAV1@@PAX@Z 
--- From 'Obj\varm.17B5C45B.obj'
01:00034EB0 ?_new@weakReference@@SAXQAVrTypeLibrary@TypeLibraries@RunTime@VIP@@PAXPAPAV1@@PAPAX@Z 
--- From 'Obj\memory.9BD3BF38.obj'
01:00034EE0 ?_object_typelib_initializer@weakReference@@SGXQAV1@@PAXQAVrTypeLibrary@TypeLibraries@RunTime@VIP@@@Z 
01:00034EF8 ?_object_facts_initializer@weakReference@@SGXQAV1@@PAX@Z 
01:00034F10 ?new@weakPointer@@SAXQAV1@@PAX@Z  (Idle)
01:00034F48 ?newPredicate@weakPointer@@SAXQAV1@@PAX@Z  (Idle)
01:00034FD4 ?_tryDeref@weakPointer@@SAXQAV1@@PAPAX@Z 
01:00035080 ?finalize@weakPointer@@SGXQAV1@@@Z 
01:000350F8 ?_new@weakPointer@@SAXPAXPAPAV1@@@Z  (Idle)
01:00035120 ?_newPredicate@weakPointer@@SAXPAXPAPAV1@@@Z  (Idle)
01:00035148 ?_object_facts_initializer@weakPointer@@SGXQAV1@@@Z 
01:00035160 ?_alloc_kind@memory@@SAXQAVrTypeLibrary@TypeLibraries@RunTime@VIP@@PAUmemoryKind_struct@1@PAPAX@Z  (Idle)
01:00035184 ?_alloc_kind@memory@@SAXQAVrTypeLibrary@TypeLibraries@RunTime@VIP@@PAUmemoryKind_struct@1@PBUcontext@@PAPAX@Z  (Idle)
01:000351AC ?_alloc@memory@@SAXQAVrTypeLibrary@TypeLibraries@RunTime@VIP@@PAPAX@Z 
01:000351D8 ?_alloc@memory@@SAXQAVrTypeLibrary@TypeLibraries@RunTime@VIP@@PBUcontext@@PAPAX@Z  (Idle)
01:00035208 ?_alloc_atomic@memory@@SAXQAVrTypeLibrary@TypeLibraries@RunTime@VIP@@PAPAX@Z 
01:00035234 ?_alloc_atomic@memory@@SAXQAVrTypeLibrary@TypeLibraries@RunTime@VIP@@PBUcontext@@PAPAX@Z 
01:00035264 ?_alloc_uncollectable@memory@@SAXQAVrTypeLibrary@TypeLibraries@RunTime@VIP@@PAPAX@Z  (Idle)
01:00035290 ?_alloc_uncollectable@memory@@SAXQAVrTypeLibrary@TypeLibraries@RunTime@VIP@@PBUcontext@@PAPAX@Z  (Idle)
01:000352C0 ?_alloc_kind_array@memory@@SAXQAVrTypeLibrary@TypeLibraries@RunTime@VIP@@PAUmemoryKind_struct@1@PBUpositive@@PAPAX@Z  (Idle)
01:000352DC ?_alloc_kind_array@memory@@SAXQAVrTypeLibrary@TypeLibraries@RunTime@VIP@@PAUmemoryKind_struct@1@PBUpositive@@PBUcontext@@PAPAX@Z  (Idle)
01:000352E4 ?_alloc_array@memory@@SAXQAVrTypeLibrary@TypeLibraries@RunTime@VIP@@PBUpositive@@PAPAX@Z  (Idle)
01:00035314 ?_alloc_array@memory@@SAXQAVrTypeLibrary@TypeLibraries@RunTime@VIP@@PBUpositive@@PBUcontext@@PAPAX@Z  (Idle)
01:00035348 ?_alloc_atomic_array@memory@@SAXQAVrTypeLibrary@TypeLibraries@RunTime@VIP@@PBUpositive@@PAPAX@Z  (Idle)
01:00035378 ?_alloc_atomic_array@memory@@SAXQAVrTypeLibrary@TypeLibraries@RunTime@VIP@@PBUpositive@@PBUcontext@@PAPAX@Z  (Idle)
01:000353AC ?_alloc_uncollectable_array@memory@@SAXQAVrTypeLibrary@TypeLibraries@RunTime@VIP@@PBUpositive@@PAPAX@Z  (Idle)
01:000353DC ?_alloc_uncollectable_array@memory@@SAXQAVrTypeLibrary@TypeLibraries@RunTime@VIP@@PBUpositive@@PBUcontext@@PAPAX@Z  (Idle)
01:00035410 ?_doAllocate@memory@@SAXQAVrTypeLibrary@TypeLibraries@RunTime@VIP@@PAUmemoryKind_struct@1@PBUpositive@@PBUcontext@@PAPAX@Z 
01:00035498 ?_doAllocate2@memory@@SAXPAUmemoryKind_struct@1@PBUbyteCount@@PAPAX@Z 
01:000354E0 uncheckedFromPointer@memory@pfc 
01:000354F0 ?copyTo@memory@@SAXQAVrTypeLibrary@TypeLibraries@RunTime@VIP@@PAXPAX@Z  (Idle)
01:00035514 ?_copyTo@memory@@SAXQAVrTypeLibrary@TypeLibraries@RunTime@VIP@@PAXPAXPAPAX@Z 
01:00035554 ?_mkArray_kind@memory@@SAXQAVrTypeLibrary@TypeLibraries@RunTime@VIP@@PAUmemoryKind_struct@1@PAU?$__packedList_struct@PAX@@PAPAUtuple_struct@core@@PAPAXAAUpositive@@@Z  (Idle)
01:000355EC ?fillArray_list@memory@@SAXQAVrTypeLibrary@TypeLibraries@RunTime@VIP@@PAXPAU?$__packedList_struct@PAX@@@Z 
01:00035638 ?_mkList_kind@memory@@SAXQAVrTypeLibrary@TypeLibraries@RunTime@VIP@@PAUmemoryKind_struct@1@PAXPBUpositive@@PAPAU?$__packedList_struct@PAPAX@@@Z  (Idle)
01:000356F4 ?_append@memory@@SAXPAXPAXPBUbyteCount@@PAPAX@Z 
01:0003571C ?isReadable@memory@@SAXPAX@Z 
01:00035730 ?isReadable@memory@@SAXPAXPBUbyteCount@@@Z 
01:00035750 ?isWritable@memory@@SAXPAX@Z  (Idle)
01:00035764 ?isWritable@memory@@SAXPAXPBUbyteCount@@@Z 
01:00035784 ?_allocHeap@memory@@SAXPBUbyteCount@@PAPAX@Z 
--- From 'Obj\arraym_inline.5CB777DB.obj'
01:000357A0 ?_allocHeap@memory@@SAXPBUbyteCount@@PAUboolean_struct@_builtIn@@PAPAX@Z 
--- From 'Obj\memory.9BD3BF38.obj'
01:000357C8 ?_allocHeapProfile@memory@@SAXPBUbyteCount@@PBUcontext@@PAPAX@Z 
01:000357F4 ?_allocHeapProfile@memory@@SAXPBUbyteCount@@PBUcontext@@PAUboolean_struct@_builtIn@@PAPAX@Z 
01:0003581C ?_allocAtomicHeap@memory@@SAXPBUbyteCount@@PAPAX@Z 
01:00035838 ?_allocAtomicHeapProfile@memory@@SAXPBUbyteCount@@PBUcontext@@PAPAX@Z 
01:00035864 ?_allocUncollectableHeap@memory@@SAXPBUbyteCount@@PAPAX@Z  (Idle)
01:00035880 ?_allocAtomicHeap_array@memory@@SAXQAVrTypeLibrary@TypeLibraries@RunTime@VIP@@PBUpositive@@PAPAX@Z  (Idle)
01:00035884 ?_allocUncollectableHeap_array@memory@@SAXQAVrTypeLibrary@TypeLibraries@RunTime@VIP@@PBUpositive@@PAPAX@Z  (Idle)
01:000358EC ?sameType@memory@@SAXQAVrTypeLibrary@TypeLibraries@RunTime@VIP@@PAXPAX@Z 
01:000358F4 ?_allocUncollectableHeapProfile@memory@@SAXPBUbyteCount@@PBUcontext@@PAPAX@Z 
01:00035920 ?_allocString@memory@@SAXPBUcharCount@@PAPB_W@Z 
01:00035938 ?_allocStringProfile@memory@@SAXPBUcharCount@@PBUcontext@@PAPB_W@Z  (Idle)
01:00035978 ?_allocStringBuffer@memory@@SAXPBUcharCount@@PAPB_W@Z 
01:00035994 ?_allocStringBufferProfile@memory@@SAXPBUcharCount@@PBUcontext@@PAPB_W@Z 
01:000359C4 ?releaseHeap@memory@@SAXQAVrTypeLibrary@TypeLibraries@RunTime@VIP@@PAX@Z 
01:000359D4 ?listToArray@memory@@SAXQAVrTypeLibrary@TypeLibraries@RunTime@VIP@@PAU?$__packedList_struct@PAX@@PBUbyteCount@@XPAPAXAAUpositive@@@Z  (Idle)
01:00035A3C ?listToArray_nonatomic@memory@@SAXQAVrTypeLibrary@TypeLibraries@RunTime@VIP@@PAU?$__packedList_struct@PAX@@PBUbyteCount@@XPAPAXAAUpositive@@@Z 
01:00035AA4 ?fillArray@memory@@SAXQAVrTypeLibrary@TypeLibraries@RunTime@VIP@@PAXPAU?$__packedList_struct@PAX@@PBUbyteCount@@X@Z 
--- From 'Obj\reflection.0F000252.obj'
01:00035B10 ?_pointerAdd@memory@@SAXQAVrTypeLibrary@TypeLibraries@RunTime@VIP@@PAXPBUbyteOffset@@PAPAX@Z 
--- From 'Obj\memory.9BD3BF38.obj'
01:00035B24 ?_getOffset@memory@@SAXQAVrTypeLibrary@TypeLibraries@RunTime@VIP@@PAXPAXAAUbyteOffset@@@Z 
--- From 'Obj\reflection.0F000252.obj'
01:00035B3C ?isNull@memory@@SAXQAVrTypeLibrary@TypeLibraries@RunTime@VIP@@PAX@Z 
01:00035B50 getp@memory@pfc 
--- From 'Obj\memory.9BD3BF38.obj'
01:00035B64 get1@memory@pfc 
01:00035B78 get2@memory@pfc 
01:00035B8C get4@memory@pfc 
01:00035BA0 get8@memory@pfc 
01:00035BD8 getAp@memory@pfc  (Idle)
01:00035C14 getA1@memory@pfc 
01:00035C50 getA2@memory@pfc  (Idle)
01:00035C90 getA4@memory@pfc  (Idle)
01:00035CCC getA8@memory@pfc  (Idle)
01:00035D1C setp@memory@pfc 
01:00035D4C set1@memory@pfc 
01:00035D7C set2@memory@pfc 
01:00035DB0 set4@memory@pfc 
01:00035DE0 set8@memory@pfc 
01:00035DF8 setAp@memory@pfc  (Idle)
01:00035E54 setA1@memory@pfc  (Idle)
01:00035EB0 setA2@memory@pfc  (Idle)
01:00035F10 setA4@memory@pfc 
01:00035F6C setA8@memory@pfc  (Idle)
01:00035FB4 mkp@memory@pfc  (Idle)
01:00035FD8 mk1@memory@pfc  (Idle)
01:00035FFC mk2@memory@pfc 
01:00036024 mk4@memory@pfc 
01:00036048 mk8@memory@pfc  (Idle)
01:00036084 ?_bitOr@bit@@SAXIIIPAI@Z  (Idle)
01:000360AC ?_bitOr@bit@@SAXIIIIPAI@Z  (Idle)
01:000360E4 ?_bitOr@bit@@SAXIIIIIPAI@Z  (Idle)
01:00036128 ?_bitOrList@bit@@SAXPAU?$__packedList_struct@Uunsigned@@@@PAI@Z  (Idle)
01:00036144 ?_bitOrList_Tail@bit@@SAXPAU?$__packedList_struct@Uunsigned@@@@IPAI@Z 
01:0003618C ?isSet@bit@@SAXII@Z 
01:000361B4 ?_clear@bit@@SAXIIPAI@Z  (Idle)
01:000361DC ?_bit2boolean@bit@@SAXIIPAPAUboolean_struct@_builtIn@@@Z  (Idle)
01:00036214 ?_getLow4of8@bit@@SAXPBUunsigned8@@AAUunsigned4@@@Z  (Idle)
01:00036238 ?_setLow4of8@bit@@SAXPBUunsigned8@@PBUunsigned4@@AAU2@@Z  (Idle)
01:00036288 ?_getHigh4of8@bit@@SAXPBUunsigned8@@AAUunsigned4@@@Z  (Idle)
01:000362C0 ?_setHigh4of8@bit@@SAXPBUunsigned8@@PBUunsigned4@@AAU2@@Z  (Idle)
01:00036324 ?_swap4of8@bit@@SAXPBUunsigned8@@AAU2@@Z  (Idle)
01:00036384 ?_getLow8of16@bit@@SAXPBUunsigned16@@AAUunsigned8@@@Z  (Idle)
01:000363AC ?_setLow8of16@bit@@SAXPBUunsigned16@@PBUunsigned8@@AAU2@@Z  (Idle)
01:000363EC ?_getHigh8of16@bit@@SAXPBUunsigned16@@AAUunsigned8@@@Z  (Idle)
01:00036424 ?_setHigh8of16@bit@@SAXPBUunsigned16@@PBUunsigned8@@AAU2@@Z  (Idle)
01:00036474 ?_swap8of16@bit@@SAXPBUunsigned16@@AAU2@@Z  (Idle)
01:000364D8 ?_getLow16of32@bit@@SAXIAAUunsigned16@@@Z 
01:000364F8 ?_setLow16of32@bit@@SAXIPBUunsigned16@@PAI@Z 
01:00036530 ?_getHigh16of32@bit@@SAXIAAUunsigned16@@@Z 
01:00036560 ?_setHigh16of32@bit@@SAXIPBUunsigned16@@PAI@Z 
01:000365B0 ?_swap16of32@bit@@SAXIPAI@Z 
01:00036610 ?_toBigEndian@bit@@SAXIPAI@Z  (Idle)
01:000366C4 ?_bitSplit@bit@@SAXIPAPAU?$__packedList_struct@Uunsigned@@@@@Z  (Idle)
01:0003672C ?getUnsigned32bytes@bit@@SAXIAAUunsigned16@@1@Z  (Idle)
01:00036764 ?getInteger32bytes@bit@@SAXIAAUunsigned16@@AAUinteger16@@@Z  (Idle)
01:0003679C ?getUnsigned64bytes@bit@@SAXPA_KPAIPAI@Z  (Idle)
01:000367BC ?getInteger64bytes@bit@@SAXPA_JPAIPAH@Z  (Idle)
01:000367DC ?_mkUnsigned32@bit@@SAXPBUunsigned16@@0PAI@Z  (Idle)
01:00036810 ?_mkInteger32@bit@@SAXPBUunsigned16@@PBUinteger16@@PAH@Z  (Idle)
01:00036844 ?_mkUnsigned64@bit@@SAXIIPAPA_K@Z  (Idle)
01:00036894 ?_mkInteger64@bit@@SAXIHPAPA_J@Z  (Idle)
01:000368E4 ?_reset@bit@@SAXIIPAI@Z  (Idle)
01:000368EC ?_getLow16@bit@@SAXPBUunsignedNative@@AAUunsigned16@@@Z  (Idle)
01:00036914 ?_bitOr@bit@@SAXPA_K00PAPA_K@Z  (Idle)
01:0003699C ?_bitOr@bit@@SAXPBUunsignedNative@@00AAU2@@Z  (Idle)
01:000369C4 ?_bitOr@bit@@SAXPA_K000PAPA_K@Z  (Idle)
01:00036A74 ?_bitOr@bit@@SAXPBUunsignedNative@@000AAU2@@Z  (Idle)
01:00036AAC ?_bitOr@bit@@SAXPA_K0000PAPA_K@Z  (Idle)
01:00036B84 ?_bitOr@bit@@SAXPBUunsignedNative@@0000AAU2@@Z  (Idle)
01:00036BC8 ?isSet@bit@@SAXPA_K0@Z  (Idle)
01:00036C40 ?isSet@bit@@SAXPBUunsignedNative@@0@Z  (Idle)
01:00036C68 ?_clear@bit@@SAXPA_K0PAPA_K@Z  (Idle)
01:00036CDC ?_clear@bit@@SAXPBUunsignedNative@@0AAU2@@Z  (Idle)
01:00036D0C weakReference{@Type}?_initObject@@@QAGXQAV1@H@Z 
01:00036D3C ?@create_object@weakReference@@SGQAV1@@PAXQAVrTypeLibrary@TypeLibraries@RunTime@VIP@@@Z 
01:00036D60 weakReference{@Type}?_InternalFinalizer@@@QAGXQAV1@@Z 
01:00036DB0 weakPointer?_initObject@@@QAGXQAV1@H@Z 
01:00036DD0 ?@create_object@weakPointer@@SGQAV1@@XZ 
01:00036DEC weakPointer?_InternalFinalizer@@@QAGXQAV1@@Z 
--- From 'Obj\namedvalue.187E0B91.obj'
01:00036E40 ?_tryMapLookUp@namedValue@@SAXPAU?$__packedList_struct@U1@@@PB_WPAPAUvalue_struct@core@@@Z 
01:00036E9C ?_tryMapLookUpIgnoreCase@namedValue@@SAXPAU?$__packedList_struct@U1@@@PB_WPAPAUvalue_struct@core@@@Z  (Idle)
01:00036F00 ?_mapLookUp@namedValue@@SAXPAU?$__packedList_struct@U1@@@PB_WPAPAUvalue_struct@core@@@Z  (Idle)
01:00037008 ?_mapLookUp@namedValue@@SAXPAU?$__packedList_struct@U1@@@PB_WPAUvalue_struct@core@@PAPAU34@@Z  (Idle)
01:00037044 ?_lookUp_nd@namedValue@@SAXPAU?$__packedList_struct@U1@@@PB_WPAPAUvalue_struct@core@@@Z  (Idle)
01:000370B0 ?_getNamed_integer@namedValue@@SAXPAU?$__packedList_struct@U1@@@PB_WPAH@Z  (Idle)
01:00037138 ?_tryGetNamed_integer@namedValue@@SAXPAU?$__packedList_struct@U1@@@PB_WPAH@Z  (Idle)
01:00037194 ?_getNamedDefault_integer@namedValue@@SAXPAU?$__packedList_struct@U1@@@PB_WHPAH@Z  (Idle)
01:0003720C ?_getNamed_unsigned@namedValue@@SAXPAU?$__packedList_struct@U1@@@PB_WPAI@Z  (Idle)
01:00037294 ?_tryGetNamed_unsigned@namedValue@@SAXPAU?$__packedList_struct@U1@@@PB_WPAI@Z  (Idle)
01:000372F0 ?_getNamedDefault_unsigned@namedValue@@SAXPAU?$__packedList_struct@U1@@@PB_WIPAI@Z  (Idle)
01:00037368 ?_getNamed_real@namedValue@@SAXPAU?$__packedList_struct@U1@@@PB_WPAPAN@Z  (Idle)
01:000373F0 ?_tryGetNamed_real@namedValue@@SAXPAU?$__packedList_struct@U1@@@PB_WPAPAN@Z  (Idle)
01:0003744C ?_getNamedDefault_real@namedValue@@SAXPAU?$__packedList_struct@U1@@@PB_WPANPAPAN@Z  (Idle)
01:000374C4 ?_getNamed_char@namedValue@@SAXPAU?$__packedList_struct@U1@@@PB_WPA_W@Z  (Idle)
01:0003754C ?_tryGetNamed_char@namedValue@@SAXPAU?$__packedList_struct@U1@@@PB_WPA_W@Z  (Idle)
01:000375A8 ?_getNamedDefault_char@namedValue@@SAXPAU?$__packedList_struct@U1@@@PB_W_WPA_W@Z  (Idle)
01:00037624 ?_getNamed_string@namedValue@@SAXPAU?$__packedList_struct@U1@@@PB_WPAPB_W@Z  (Idle)
01:000376AC ?_tryGetNamed_string@namedValue@@SAXPAU?$__packedList_struct@U1@@@PB_WPAPB_W@Z 
01:00037708 ?_getNamedDefault_string@namedValue@@SAXPAU?$__packedList_struct@U1@@@PB_W1PAPB_W@Z  (Idle)
01:00037780 ?_getNamed_boolean@namedValue@@SAXPAU?$__packedList_struct@U1@@@PB_WPAPAUboolean_struct@_builtIn@@@Z  (Idle)
01:000377F4 ?_tryGetNamed_boolean@namedValue@@SAXPAU?$__packedList_struct@U1@@@PB_WPAPAUboolean_struct@_builtIn@@@Z  (Idle)
01:0003783C ?_getNamedDefault_boolean@namedValue@@SAXPAU?$__packedList_struct@U1@@@PB_WPAUboolean_struct@_builtIn@@PAPAU34@@Z  (Idle)
01:000378A4 ?_getNamed_binary@namedValue@@SAXPAU?$__packedList_struct@U1@@@PB_WQAPAE@Z  (Idle)
01:00037940 ?_tryGetNamed_binary@namedValue@@SAXPAU?$__packedList_struct@U1@@@PB_WQAPAE@Z  (Idle)
01:0003799C ?_getNamedDefault_binary@namedValue@@SAXPAU?$__packedList_struct@U1@@@PB_WQAEQAPAE@Z  (Idle)
01:00037A24 ?_getNamed_object@namedValue@@SAXPAU?$__packedList_struct@U1@@@PB_WPAPAV3@@@Z  (Idle)
01:00037AC0 ?_tryGetNamed_object@namedValue@@SAXPAU?$__packedList_struct@U1@@@PB_WPAPAV3@@@Z  (Idle)
01:00037B1C ?_getNamedDefault_object@namedValue@@SAXPAU?$__packedList_struct@U1@@@PB_WQAV3@@PAPAV3@@@Z  (Idle)
01:00037BA4 ?_getNamed_pointer@namedValue@@SAXPAU?$__packedList_struct@U1@@@PB_WPAPAX@Z  (Idle)
01:00037C40 ?_tryGetNamed_pointer@namedValue@@SAXPAU?$__packedList_struct@U1@@@PB_WPAPAX@Z  (Idle)
01:00037C9C ?_getNamedDefault_pointer@namedValue@@SAXPAU?$__packedList_struct@U1@@@PB_WPAXPAPAX@Z  (Idle)
01:00037D14 ?_getNamed_handle@namedValue@@SAXPAU?$__packedList_struct@U1@@@PB_WAAU3@@Z  (Idle)
01:00037DB0 ?_tryGetNamed_handle@namedValue@@SAXPAU?$__packedList_struct@U1@@@PB_WAAU3@@Z  (Idle)
01:00037E0C ?_getNamedDefault_handle@namedValue@@SAXPAU?$__packedList_struct@U1@@@PB_WPBU3@AAU3@@Z  (Idle)
01:00037E84 ?_getNamed_gmtTimeValue@namedValue@@SAXPAU?$__packedList_struct@U1@@@PB_WPAAAU3@@Z  (Idle)
01:00037F0C ?_tryGetNamed_gmtTimeValue@namedValue@@SAXPAU?$__packedList_struct@U1@@@PB_WPAAAU3@@Z  (Idle)
01:00037F68 ?_getNamedDefault_gmtTimeValue@namedValue@@SAXPAU?$__packedList_struct@U1@@@PB_WPAPBU3@PAAAU3@@Z  (Idle)
01:00037FE0 ?_getNamed_integer64@namedValue@@SAXPAU?$__packedList_struct@U1@@@PB_WPAPA_J@Z  (Idle)
01:00038070 ?_tryGetNamed_integer64@namedValue@@SAXPAU?$__packedList_struct@U1@@@PB_WPAPA_J@Z  (Idle)
01:000380BC ?_getNamedDefault_integer64@namedValue@@SAXPAU?$__packedList_struct@U1@@@PB_WPA_JPAPA_J@Z  (Idle)
01:00038134 ?_getNamed_unsigned64@namedValue@@SAXPAU?$__packedList_struct@U1@@@PB_WPAPA_K@Z  (Idle)
01:000381C4 ?_tryGetNamed_unsigned64@namedValue@@SAXPAU?$__packedList_struct@U1@@@PB_WPAPA_K@Z  (Idle)
01:00038210 ?_getNamedDefault_unsigned64@namedValue@@SAXPAU?$__packedList_struct@U1@@@PB_WPA_KPAPA_K@Z  (Idle)
--- From 'Obj\programcontrol.5D08C78A.obj'
01:00038290 ?_setRuntimeExceptionRaiser@programControl@@SAXXPAX@Z 
01:000382CC ?setRuntimeExceptionRaiser@programControl@@SAXXPAX@Z  (Idle)
--- From 'Obj\registry.88C8A89A.obj'
01:000382D0 ?raise_wrongValue_explicit@registry_exception@@SAXPAUprogramPoint_struct@core@@PBUhResult@@PAUrootKey_struct@registry@@PB_W3@Z  (Idle)
01:00038464 ?raise_noPath_explicit@registry_exception@@SAXPAUprogramPoint_struct@core@@PBUhResult@@PAUrootKey_struct@registry@@PB_W3@Z  (Idle)
01:000385F8 ?raise_cannotCreateKey_explicit@registry_exception@@SAXPAUprogramPoint_struct@core@@PBUhResult@@PAUrootKey_struct@registry@@PB_W@Z  (Idle)
01:00038738 ?_getSystemDescription@registry_exception@@SAXPBUhResult@@PAPB_W@Z 
01:00038774 ?_getRootKeyName@registry_exception@@SAXPAUrootKey_struct@registry@@PAPB_W@Z 
01:000387E0 ?createKey@registry@@SAXPAUrootKey_struct@1@PB_W@Z  (Idle)
01:000387F4 ?createKey@registry@@SAXPAUrootKey_struct@1@PB_WPAUregistryView_struct@1@@Z 
01:00038850 ?existKey@registry@@SAXPAUrootKey_struct@1@PB_W@Z  (Idle)
01:00038864 ?existKey@registry@@SAXPAUrootKey_struct@1@PB_WPAUregistryView_struct@1@@Z 
01:000388B8 ?deleteKey@registry@@SAXPAUrootKey_struct@1@PB_W@Z  (Idle)
01:000388CC ?deleteKey@registry@@SAXPAUrootKey_struct@1@PB_WPAUregistryView_struct@1@@Z 
01:000389C4 ?is32on32@registry@@SAXI@Z 
01:00038A18 ?deleteKeyList@registry@@SAXPAUrootKey_struct@1@PB_WPAU?$__packedList_struct@Ustring@@@@PAUregistryView_struct@1@@Z 
01:00038A74 ?setValue@registry@@SAXPAUrootKey_struct@1@PB_WPAU?$__packedList_struct@UnamedValue@@@@@Z  (Idle)
01:00038A88 ?setValue@registry@@SAXPAUrootKey_struct@1@PB_WPAU?$__packedList_struct@UnamedValue@@@@PAUregistryView_struct@1@@Z 
01:00038BAC ?setValuesToKey@registry@@SAXPBUhkey@@PAU?$__packedList_struct@UnamedValue@@@@@Z 
01:00038BF8 ?_getValue@registry@@SAXPAUrootKey_struct@1@PB_W1PAPAUvalue_struct@core@@@Z 
01:00038C14 ?_getValue@registry@@SAXPAUrootKey_struct@1@PB_W1PAUregistryView_struct@1@PAPAUvalue_struct@core@@@Z 
01:00038CC8 ?_tryGetValue@registry@@SAXPAUrootKey_struct@1@PB_W1PAPAUvalue_struct@core@@@Z 
01:00038CE4 ?_tryGetValue@registry@@SAXPAUrootKey_struct@1@PB_W1PAUregistryView_struct@1@PAPAUvalue_struct@core@@@Z 
01:00038DE8 ?removeValue@registry@@SAXPAUrootKey_struct@1@PB_WPAU?$__packedList_struct@Ustring@@@@@Z  (Idle)
01:00038DFC ?removeValue@registry@@SAXPAUrootKey_struct@1@PB_WPAU?$__packedList_struct@Ustring@@@@PAUregistryView_struct@1@@Z 
01:00038EAC ?removeListValues@registry@@SAXPBUhkey@@PAU?$__packedList_struct@Ustring@@@@@Z 
01:00038EE8 ?_getSubkeys@registry@@SAXPAUrootKey_struct@1@PB_WPAPAU?$__packedList_struct@Ustring@@@@@Z  (Idle)
01:00038F04 ?_getSubkeys@registry@@SAXPAUrootKey_struct@1@PB_WPAUregistryView_struct@1@PAPAU?$__packedList_struct@Ustring@@@@@Z 
01:00038FB4 ?_getAllValues@registry@@SAXPAUrootKey_struct@1@PB_WPAPAU?$__packedList_struct@UnamedValue@@@@@Z  (Idle)
01:00038FD0 ?_getAllValues@registry@@SAXPAUrootKey_struct@1@PB_WPAUregistryView_struct@1@PAPAU?$__packedList_struct@UnamedValue@@@@@Z 
01:00039080 ?_keyWrite@registry@@SAXPAUregistryView_struct@1@AAUregsAM@@@Z 
01:0003909C ?_keyRead@registry@@SAXPAUregistryView_struct@1@AAUregsAM@@@Z 
01:000390B8 ?_applyView@registry@@SAXPAUregistryView_struct@1@PBUregsAM@@AAU4@@Z 
01:00039110 ?_getRootKeyHandle@registry@@SAXPAUrootKey_struct@1@AAUhkey@@@Z 
--- From 'Obj\arraym_inline.5CB777DB.obj'
01:00039180 ?_fromTo@std@@SAXHHPAH@Z 
01:000391C8 ?_downTo@std@@SAXHHPAH@Z 
--- From 'Obj\std.1C7A9F9B.obj'
01:00039210 ?_between@std@@SAXHHPAH@Z  (Idle)
01:000392B0 ?_fromToInStep@std@@SAXHHPBUpositive@@PAH@Z  (Idle)
01:000392FC ?_downToInStep@std@@SAXHHPBUpositive@@PAH@Z  (Idle)
01:00039348 ?_betweenInStep@std@@SAXHHPBUpositive@@PAH@Z  (Idle)
01:000393FC ?_countFrom@std@@SAXHPAH@Z  (Idle)
01:0003942C ?_countFromInStep@std@@SAXHPBUpositive@@PAH@Z  (Idle)
01:0003945C ?_countDownFrom@std@@SAXHPAH@Z  (Idle)
01:0003948C ?_countDownFromInStep@std@@SAXHPBUpositive@@PAH@Z  (Idle)
01:000394BC ?repeat@std@@SAXXZ  (Idle)
01:000394D8 ?_cIterate@std@@SAXHPAH@Z 
01:00039508 ?_fromTo@std@@SAXPA_J0PAPA_J@Z 
01:000395E4 ?_fromTo@std@@SAXPBUintegerNative@@0AAU2@@Z  (Idle)
01:00039630 ?_fromTo@std@@SAXIIPAI@Z  (Idle)
01:00039678 ?_fromTo@std@@SAXPA_K0PAPA_K@Z  (Idle)
01:00039754 ?_fromTo@std@@SAXPBUunsignedNative@@0AAU2@@Z  (Idle)
01:000397A0 ?_downTo@std@@SAXPA_J0PAPA_J@Z  (Idle)
01:0003987C ?_downTo@std@@SAXPBUintegerNative@@0AAU2@@Z  (Idle)
01:000398C8 ?_downTo@std@@SAXIIPAI@Z  (Idle)
01:00039910 ?_downTo@std@@SAXPA_K0PAPA_K@Z  (Idle)
01:000399EC ?_downTo@std@@SAXPBUunsignedNative@@0AAU2@@Z  (Idle)
01:00039A38 ?_between@std@@SAXIIPAI@Z  (Idle)
01:00039AD8 ?_cIterate@std@@SAXHPAI@Z  (Idle)
01:00039B08 ?_cIterate@std@@SAXIPAI@Z  (Idle)
01:00039B38 ?_cIterate@std@@SAXIPAH@Z  (Idle)
--- From 'Obj\redblacktree.C0378524.obj'
01:00039B70 ?_anonymous$c0$1$empty/0$redBlackTree@1@SAXPAUanonymous$c0$1$empty/0$redBlackTreec_struct@1@PAXPAXPAPAUcompareResult_struct@_builtIn@@@Z 
01:00039B88 ?_empty@redBlackTree@@SAXQAVrTypeLibrary@TypeLibraries@RunTime@VIP@@0PAPAUtree_struct@1@PAPAXPAPAX@Z  (Idle)
01:00039BFC ?_anonymous$c0$1$emptyUnique/0$redBlackTree@1@SAXPAUanonymous$c0$1$emptyUnique/0$redBlackTreec_struct@1@PAXPAXPAPAUcompareResult_struct@_builtIn@@@Z 
01:00039C14 ?_emptyUnique@redBlackTree@@SAXQAVrTypeLibrary@TypeLibraries@RunTime@VIP@@0PAPAUtree_struct@1@PAPAXPAPAX@Z 
01:00039C88 ?_emptyCustom@redBlackTree@@SAXQAVrTypeLibrary@TypeLibraries@RunTime@VIP@@0XPAPAUtree_struct@1@PAPAXPAPAX@Z  (Idle)
01:00039CD4 ?_emptyCustomUnique@redBlackTree@@SAXQAVrTypeLibrary@TypeLibraries@RunTime@VIP@@0XPAPAUtree_struct@1@PAPAXPAPAX@Z 
01:00039D20 ?_emptySameKind@redBlackTree@@SAXQAVrTypeLibrary@TypeLibraries@RunTime@VIP@@0PAUtree_struct@1@PAXPAXPAPAU21@PAPAXPAPAX@Z 
01:00039D58 ?isEmpty@redBlackTree@@SAXQAVrTypeLibrary@TypeLibraries@RunTime@VIP@@0PAUtree_struct@1@PAXPAX@Z  (Idle)
01:00039D78 ?_insert@redBlackTree@@SAXQAVrTypeLibrary@TypeLibraries@RunTime@VIP@@0PAUtree_struct@1@PAXPAXPAXPAXPAPAU21@PAPAXPAPAX@Z 
01:00039DE0 ?_delete@redBlackTree@@SAXQAVrTypeLibrary@TypeLibraries@RunTime@VIP@@0PAUtree_struct@1@PAXPAXPAXPAXPAPAU21@PAPAXPAPAX@Z  (Idle)
01:00039E48 ?_tryDeleteOne@redBlackTree@@SAXQAVrTypeLibrary@TypeLibraries@RunTime@VIP@@0PAUtree_struct@1@PAXPAXPAXPAPAXPAPAU21@PAPAXPAPAX@Z 
01:00039EB0 ?_tryDeleteFirst@redBlackTree@@SAXQAVrTypeLibrary@TypeLibraries@RunTime@VIP@@0PAUtree_struct@1@PAXPAXPAPAX3PAPAU21@PAPAXPAPAX@Z  (Idle)
01:00039EFC ?_lookUp_nd@redBlackTree@@SAXQAVrTypeLibrary@TypeLibraries@RunTime@VIP@@0PAUtree_struct@1@PAXPAXPAXPAPAX@Z  (Idle)
01:00039F38 ?_tryLookUp@redBlackTree@@SAXQAVrTypeLibrary@TypeLibraries@RunTime@VIP@@0PAUtree_struct@1@PAXPAXPAXPAPAX@Z 
01:00039F60 ?_getAll_nd@redBlackTree@@SAXQAVrTypeLibrary@TypeLibraries@RunTime@VIP@@0PAUtree_struct@1@PAXPAXPAPAUtuple_struct@core@@PAPAXPAPAX@Z 
01:00039FB4 ?_upFrom_nd@redBlackTree@@SAXQAVrTypeLibrary@TypeLibraries@RunTime@VIP@@0PAUtree_struct@1@PAXPAXPAXPAPAUtuple_struct@core@@PAPAXPAPAX@Z 
01:00039FF0 ?_downFrom_nd@redBlackTree@@SAXQAVrTypeLibrary@TypeLibraries@RunTime@VIP@@0PAUtree_struct@1@PAXPAXPAXPAPAUtuple_struct@core@@PAPAXPAPAX@Z 
01:0003A02C ?_comp@redBlackTree@@SAXQAVrTypeLibrary@TypeLibraries@RunTime@VIP@@PAUtreeProperty_struct@1@PAXPAXPAXPAPAUcompareResult_struct@_builtIn@@@Z  (Idle)
01:0003A05C ?tryGetNode@redBlackTree@@SAXQAVrTypeLibrary@TypeLibraries@RunTime@VIP@@0PAUtreeRep_struct@1@PAXPAXPAPAU21@PAPAXPAPAXPAPAX43@Z  (Idle)
01:0003A0DC ?_find_nd_rep@redBlackTree@@SAXQAVrTypeLibrary@TypeLibraries@RunTime@VIP@@0PAUtreeProperty_struct@1@PAXPAXPAUtreeRep_struct@1@PAXPAXPAPAX@Z 
01:0003A160 ?_find_nd_rep1@redBlackTree@@SAXQAVrTypeLibrary@TypeLibraries@RunTime@VIP@@0PAUtreeProperty_struct@1@PAXPAUcompareResult_struct@_builtIn@@PAXPAUtreeRep_struct@1@PAXPAXPAX5PAPAX@Z 
01:0003A244 ?get_nd_rep@redBlackTree@@SAXQAVrTypeLibrary@TypeLibraries@RunTime@VIP@@0PAUtreeRep_struct@1@PAXPAXPAPAX3@Z 
01:0003A2F4 ?_upFrom_nd_rep@redBlackTree@@SAXQAVrTypeLibrary@TypeLibraries@RunTime@VIP@@0PAUtreeProperty_struct@1@PAXPAXPAUtreeRep_struct@1@PAXPAXPAPAUtuple_struct@core@@PAPAXPAPAX@Z 
01:0003A388 ?_upFrom_nd_rep1@redBlackTree@@SAXQAVrTypeLibrary@TypeLibraries@RunTime@VIP@@0PAUtreeProperty_struct@1@PAXPAUcompareResult_struct@_builtIn@@PAXPAUtreeRep_struct@1@PAXPAXPAXPAX5PAPAUtuple_struct@core@@PAPAXPAPAX@Z 
01:0003A458 ?_downFrom_nd_rep@redBlackTree@@SAXQAVrTypeLibrary@TypeLibraries@RunTime@VIP@@0PAUtreeProperty_struct@1@PAXPAXPAUtreeRep_struct@1@PAXPAXPAPAUtuple_struct@core@@PAPAXPAPAX@Z 
01:0003A4EC ?_downFrom_nd_rep1@redBlackTree@@SAXQAVrTypeLibrary@TypeLibraries@RunTime@VIP@@0PAUtreeProperty_struct@1@PAXPAUcompareResult_struct@_builtIn@@PAXPAUtreeRep_struct@1@PAXPAXPAXPAX5PAPAUtuple_struct@core@@PAPAXPAPAX@Z 
01:0003A5BC ?_insert_rep@redBlackTree@@SAXQAVrTypeLibrary@TypeLibraries@RunTime@VIP@@0PAUtreeProperty_struct@1@PAXPAXPAXPAUtreeRep_struct@1@PAXPAXPAPAU41@PAPAXPAPAX@Z 
01:0003A5F8 ?_ins@redBlackTree@@SAXQAVrTypeLibrary@TypeLibraries@RunTime@VIP@@0PAUtreeProperty_struct@1@PAXPAXPAXPAUtreeRep_struct@1@PAXPAXPAPAU41@PAPAXPAPAX@Z 
01:0003A784 ?_ins_black@redBlackTree@@SAXQAVrTypeLibrary@TypeLibraries@RunTime@VIP@@0PAUtreeProperty_struct@1@PAXPAUcompareResult_struct@_builtIn@@PAXPAXPAUtreeRep_struct@1@PAXPAXPAXPAX6PAPAU61@PAPAXPAPAX@Z 
01:0003A8C0 ?_ins_red@redBlackTree@@SAXQAVrTypeLibrary@TypeLibraries@RunTime@VIP@@0PAUtreeProperty_struct@1@PAXPAUcompareResult_struct@_builtIn@@PAXPAXPAUtreeRep_struct@1@PAXPAXPAXPAX6PAPAU61@PAPAXPAPAX@Z 
01:0003AA0C ?_balance@redBlackTree@@SAXQAVrTypeLibrary@TypeLibraries@RunTime@VIP@@0PAUtreeRep_struct@1@PAXPAXPAXPAX2PAPAU21@PAPAXPAPAX@Z 
01:0003B360 ?_makeblack@redBlackTree@@SAXQAVrTypeLibrary@TypeLibraries@RunTime@VIP@@0PAUtreeRep_struct@1@PAXPAXPAPAU21@PAPAXPAPAX@Z 
01:0003B3E0 ?_delete_rep@redBlackTree@@SAXQAVrTypeLibrary@TypeLibraries@RunTime@VIP@@0PAUtreeProperty_struct@1@PAXPAXPAXPAUtreeRep_struct@1@PAXPAXPAPAU41@PAPAXPAPAX@Z 
01:0003B434 ?del@redBlackTree@@SAXQAVrTypeLibrary@TypeLibraries@RunTime@VIP@@0PAUtreeProperty_struct@1@PAXPAXPAXPAUtreeRep_struct@1@PAXPAXPAPAU41@PAPAXPAPAXPAPAUboolean_struct@_builtIn@@@Z 
01:0003B508 ?del1@redBlackTree@@SAXQAVrTypeLibrary@TypeLibraries@RunTime@VIP@@0PAUtreeProperty_struct@1@PAXPAUcompareResult_struct@_builtIn@@PAXPAXPAUtreeRep_struct@1@PAXPAXPAXPAX6PAPAU61@PAPAXPAPAXPAPAUboolean_struct@5@@Z 
01:0003B65C ?delLeft@redBlackTree@@SAXQAVrTypeLibrary@TypeLibraries@RunTime@VIP@@0PAUtreeProperty_struct@1@PAXPAXPAXPAUtreeRep_struct@1@PAXPAXPAXPAX5PAPAU41@PAPAXPAPAXPAPAUboolean_struct@_builtIn@@@Z 
01:0003B70C ?delRight@redBlackTree@@SAXQAVrTypeLibrary@TypeLibraries@RunTime@VIP@@0PAUtreeProperty_struct@1@PAXPAXPAXPAUtreeRep_struct@1@PAXPAXPAXPAX5PAPAU41@PAPAXPAPAXPAPAUboolean_struct@_builtIn@@@Z 
01:0003B7C8 ?_tryDeleteOne_rep@redBlackTree@@SAXQAVrTypeLibrary@TypeLibraries@RunTime@VIP@@0PAUtreeProperty_struct@1@PAXPAXPAUtreeRep_struct@1@PAXPAXPAPAXPAPAU41@PAPAXPAPAX@Z 
01:0003B804 ?_tryDel@redBlackTree@@SAXQAVrTypeLibrary@TypeLibraries@RunTime@VIP@@0PAUtreeProperty_struct@1@PAXPAXPAUtreeRep_struct@1@PAXPAXPAPAXPAPAU41@PAPAXPAPAX@Z 
01:0003B8A4 ?_tryDel1@redBlackTree@@SAXQAVrTypeLibrary@TypeLibraries@RunTime@VIP@@0PAUtreeProperty_struct@1@PAXPAUcompareResult_struct@_builtIn@@PAXPAUtreeRep_struct@1@PAXPAXPAXPAX5PAPAXPAPAU61@PAPAXPAPAX@Z 
01:0003B944 ?_tryDelLeft@redBlackTree@@SAXQAVrTypeLibrary@TypeLibraries@RunTime@VIP@@0PAUtreeProperty_struct@1@PAXPAXPAUtreeRep_struct@1@PAXPAXPAXPAX4PAPAXPAPAU41@PAPAXPAPAX@Z 
01:0003B9F8 ?_tryDelRight@redBlackTree@@SAXQAVrTypeLibrary@TypeLibraries@RunTime@VIP@@0PAUtreeProperty_struct@1@PAXPAXPAUtreeRep_struct@1@PAXPAXPAXPAX4PAPAXPAPAU41@PAPAXPAPAX@Z 
01:0003BAB8 ?_balLeft@redBlackTree@@SAXQAVrTypeLibrary@TypeLibraries@RunTime@VIP@@0PAUtreeRep_struct@1@PAXPAXPAXPAX2PAPAU21@PAPAXPAPAX@Z 
01:0003BDB0 ?_balRight@redBlackTree@@SAXQAVrTypeLibrary@TypeLibraries@RunTime@VIP@@0PAUtreeRep_struct@1@PAXPAXPAXPAX2PAPAU21@PAPAXPAPAX@Z 
01:0003C0B4 ?_sub1@redBlackTree@@SAXQAVrTypeLibrary@TypeLibraries@RunTime@VIP@@0PAUtreeRep_struct@1@PAXPAXPAPAU21@PAPAXPAPAX@Z 
01:0003C144 ?_mkNode@redBlackTree@@SAXQAVrTypeLibrary@TypeLibraries@RunTime@VIP@@0PAUtreeRep_struct@1@PAXPAX2PAPAU21@PAPAXPAPAX@Z 
01:0003C458 ?_mkNodeRR_BC@redBlackTree@@SAXQAVrTypeLibrary@TypeLibraries@RunTime@VIP@@0PAUtreeRep_struct@1@PAXPAXPAXPAX2PAXPAX2PAPAU21@PAPAXPAPAX@Z 
01:0003C574 ?_mkNodeBB_BC@redBlackTree@@SAXQAVrTypeLibrary@TypeLibraries@RunTime@VIP@@0PAUtreeRep_struct@1@PAXPAXPAXPAX2PAXPAX2PAPAU21@PAPAXPAPAX@Z 
--- From 'Obj\collectionsupport.6DAD372D.obj'
01:0003C690 ?new@collectionSupport@1@SAXQAV1@1@PAXQAVrTypeLibrary@TypeLibraries@RunTime@VIP@@QAVcollectionSite@@1@PAX@Z 
01:0003C6A4 ?isEmpty@collectionSupport@1@SAXQAV1@1@PAX@Z 
01:0003C6EC ?_tryGetFirst@collectionSupport@1@SAXQAV1@1@PAXPAPAX@Z 
01:0003C714 ?asList@collectionSupport@1@SGPAU?$__packedList_struct@PAX@@QAV1@1@PAX@Z 
01:0003C780 ?_new@collectionSupport@1@SAXQAVrTypeLibrary@TypeLibraries@RunTime@VIP@@QAVcollectionSite@@1@PAXPAPAV1@1@PAPAX@Z  (Idle)
01:0003C7B4 ?_object_typelib_initializer@collectionSupport@1@SGXQAV1@1@PAXQAVrTypeLibrary@TypeLibraries@RunTime@VIP@@@Z 
01:0003C7D4 collectionSupport\collectionSupport{@Type}?_initObject@@@QAGXQAV1@H@Z 
01:0003C7F8 ?@create_object@collectionSupport@1@SGQAV1@1@PAXQAVrTypeLibrary@TypeLibraries@RunTime@VIP@@@Z 
01:0003C81C collectionSupport\collectionSupport{@Type}?_InternalFinalizer@@@QAGXQAV1@@Z 
--- From 'Obj\arraym_inline.5CB777DB.obj'
01:0003C830 ?newAtomic@arrayM_inlineValue@@SAXQAV1@@PAXQAVrTypeLibrary@TypeLibraries@RunTime@VIP@@PBUpositive@@@Z  (Idle)
01:0003C844 ?newNonAtomic@arrayM_inlineValue@@SAXQAV1@@PAXQAVrTypeLibrary@TypeLibraries@RunTime@VIP@@PBUpositive@@@Z  (Idle)
01:0003C858 ?new@arrayM_inlineValue@@SAXQAV1@@PAXQAVrTypeLibrary@TypeLibraries@RunTime@VIP@@PBUpositive@@PAUboolean_struct@_builtIn@@@Z 
01:0003C89C ?newPointer@arrayM_inlineValue@@SAXQAV1@@PAXQAVrTypeLibrary@TypeLibraries@RunTime@VIP@@PAXPBUpositive@@@Z 
01:0003C8D4 ?new_list@arrayM_inlineValue@@SAXQAV1@@PAXQAVrTypeLibrary@TypeLibraries@RunTime@VIP@@PAU?$__packedList_struct@PAX@@PAUboolean_struct@_builtIn@@@Z  (Idle)
01:0003C97C ?_tryGetElemPointer@arrayM_inlineValue@@SAXQAV1@@PAXPBUpositive@@PAPAX@Z  (Idle)
01:0003C9DC ?_tryGet@arrayM_inlineValue@@SAXQAVmap@@@PAXPAXPAXPAPAX@Z 
01:0003CA04 ?set@arrayM_inlineValue@@SAXQAVmapM@@@PAXPAXPAXPAX@Z 
01:0003CAB0 ?removeKey@arrayM_inlineValue@@SAXQAVmapM@@@PAXPAXPAX@Z 
01:0003CAC8 ?clear@arrayM_inlineValue@@SAXQAVmodifiable@@@PAX@Z 
01:0003CAE0 ?_getAll_nd@arrayM_inlineValue@@SAXQAVcollection@@@PAXPAPAX@Z 
01:0003CAFC ?_upFrom_nd@arrayM_inlineValue@@SAXQAVmap@@@PAXPAXPAXPAPAUtuple_struct@core@@PAPAXPAPAX@Z 
01:0003CB88 ?_downFrom_nd@arrayM_inlineValue@@SAXQAVmap@@@PAXPAXPAXPAPAUtuple_struct@core@@PAPAXPAPAX@Z 
01:0003CC0C ?elemSize@arrayM_inlineValue@@SGPBUbyteCount@@QAV1@@PAX@Z 
01:0003CC2C ?_new@arrayM_inlineValue@@SAXQAVrTypeLibrary@TypeLibraries@RunTime@VIP@@PBUpositive@@PAUboolean_struct@_builtIn@@PAPAVarrayM_inline@@@PAPAX@Z  (Idle)
01:0003CC60 ?_newAtomic@arrayM_inlineValue@@SAXQAVrTypeLibrary@TypeLibraries@RunTime@VIP@@PBUpositive@@PAPAVarrayM_inline@@@PAPAX@Z  (Idle)
01:0003CC90 ?_newNonAtomic@arrayM_inlineValue@@SAXQAVrTypeLibrary@TypeLibraries@RunTime@VIP@@PBUpositive@@PAPAVarrayM_inline@@@PAPAX@Z  (Idle)
01:0003CCC0 ?_newPointer@arrayM_inlineValue@@SAXQAVrTypeLibrary@TypeLibraries@RunTime@VIP@@PAXPBUpositive@@PAPAVarrayM_inline@@@PAPAX@Z 
01:0003CCF4 ?_new_list@arrayM_inlineValue@@SAXQAVrTypeLibrary@TypeLibraries@RunTime@VIP@@PAU?$__packedList_struct@PAX@@PAUboolean_struct@_builtIn@@PAPAVarrayM_inline@@@PAPAX@Z  (Idle)
01:0003CD28 ?_object_typelib_initializer@arrayM_inlineValue@@SGXQAV1@@PAXQAVrTypeLibrary@TypeLibraries@RunTime@VIP@@@Z 
01:0003CD40 ?data@arrayM_inlineValue@@SGPAXQAVarrayM_inline@@@PAX@Z 
01:0003CD4C ?size@arrayM_inlineValue@@SGPBUpositive@@QAVarrayM_inline@@@PAX@Z 
01:0003CD58 ?newAtomic@arrayM_inline@@SAXQAV1@@PAXQAVrTypeLibrary@TypeLibraries@RunTime@VIP@@PBUpositive@@@Z  (Idle)
01:0003CD6C ?newNonAtomic@arrayM_inline@@SAXQAV1@@PAXQAVrTypeLibrary@TypeLibraries@RunTime@VIP@@PBUpositive@@@Z  (Idle)
01:0003CD80 ?new@arrayM_inline@@SAXQAV1@@PAXQAVrTypeLibrary@TypeLibraries@RunTime@VIP@@PBUpositive@@PAUboolean_struct@_builtIn@@@Z 
01:0003CDD0 ?newHead@arrayM_inline@@SAXQAV1@@PAXQAVrTypeLibrary@TypeLibraries@RunTime@VIP@@PAXPBUpositive@@PAUboolean_struct@_builtIn@@@Z  (Idle)
01:0003CDDC ?newPointer@arrayM_inline@@SAXQAV1@@PAXQAVrTypeLibrary@TypeLibraries@RunTime@VIP@@PAXPBUpositive@@PAUboolean_struct@_builtIn@@@Z 
01:0003CE1C ?new_list@arrayM_inline@@SAXQAV1@@PAXQAVrTypeLibrary@TypeLibraries@RunTime@VIP@@PAU?$__packedList_struct@PAX@@PAUboolean_struct@_builtIn@@@Z  (Idle)
01:0003CEC4 ?_tryGetElemPointer@arrayM_inline@@SAXQAV1@@PAXPBUpositive@@PAPAX@Z  (Idle)
01:0003CF24 ?_tryGet@arrayM_inline@@SAXQAVmap@@@PAXPAXPAXPAPAX@Z 
01:0003CF88 ?set@arrayM_inline@@SAXQAVmapM@@@PAXPAXPAXPAX@Z 
01:0003D01C ?removeKey@arrayM_inline@@SAXQAVmapM@@@PAXPAXPAX@Z 
01:0003D034 ?clear@arrayM_inline@@SAXQAVmodifiable@@@PAX@Z 
01:0003D04C ?_getAll_nd@arrayM_inline@@SAXQAVcollection@@@PAXPAPAX@Z 
01:0003D068 ?_upFrom_nd@arrayM_inline@@SAXQAVmap@@@PAXPAXPAXPAPAUtuple_struct@core@@PAPAXPAPAX@Z 
01:0003D0F4 ?_downFrom_nd@arrayM_inline@@SAXQAVmap@@@PAXPAXPAXPAPAUtuple_struct@core@@PAPAXPAPAX@Z 
01:0003D178 ?elemSize@arrayM_inline@@SGPBUbyteCount@@QAV1@@PAX@Z 
01:0003D198 ?_new@arrayM_inline@@SAXQAVrTypeLibrary@TypeLibraries@RunTime@VIP@@PBUpositive@@PAUboolean_struct@_builtIn@@PAPAV1@@PAPAX@Z  (Idle)
01:0003D1CC ?_newAtomic@arrayM_inline@@SAXQAVrTypeLibrary@TypeLibraries@RunTime@VIP@@PBUpositive@@PAPAV1@@PAPAX@Z  (Idle)
01:0003D1FC ?_newNonAtomic@arrayM_inline@@SAXQAVrTypeLibrary@TypeLibraries@RunTime@VIP@@PBUpositive@@PAPAV1@@PAPAX@Z  (Idle)
01:0003D22C ?_newHead@arrayM_inline@@SAXQAVrTypeLibrary@TypeLibraries@RunTime@VIP@@PAXPBUpositive@@PAUboolean_struct@_builtIn@@PAPAV1@@PAPAX@Z  (Idle)
01:0003D260 ?_newPointer@arrayM_inline@@SAXQAVrTypeLibrary@TypeLibraries@RunTime@VIP@@PAXPBUpositive@@PAUboolean_struct@_builtIn@@PAPAV1@@PAPAX@Z  (Idle)
01:0003D294 ?_new_list@arrayM_inline@@SAXQAVrTypeLibrary@TypeLibraries@RunTime@VIP@@PAU?$__packedList_struct@PAX@@PAUboolean_struct@_builtIn@@PAPAV1@@PAPAX@Z  (Idle)
01:0003D2C8 ?_object_typelib_initializer@arrayM_inline@@SGXQAV1@@PAXQAVrTypeLibrary@TypeLibraries@RunTime@VIP@@@Z 
01:0003D2E0 ?data@arrayM_inline@@SGPAXQAV1@@PAX@Z 
01:0003D2EC ?size@arrayM_inline@@SGPBUpositive@@QAV1@@PAX@Z 
01:0003D6BC arrayM_inlineValue{@ItemType}?_initObject@@@QAGXQAV1@H@Z 
01:0003D6FC ?@create_object@arrayM_inlineValue@@SGQAV1@@PAXQAVrTypeLibrary@TypeLibraries@RunTime@VIP@@@Z 
01:0003D720 arrayM_inlineValue{@ItemType}?_InternalFinalizer@@@QAGXQAV1@@Z 
01:0003DAF4 arrayM_inline{@ItemType}?_initObject@@@QAGXQAV1@H@Z 
01:0003DB34 ?@create_object@arrayM_inline@@SGQAV1@@PAXQAVrTypeLibrary@TypeLibraries@RunTime@VIP@@@Z 
01:0003DB58 arrayM_inline{@ItemType}?_InternalFinalizer@@@QAGXQAV1@@Z 
--- From 'Obj\event.35BDD536.obj'
01:0003DB70 ?new@event7@@SAXQAV1@@PAXPAXPAXPAXPAXPAXPAXPAXQAVrTypeLibrary@TypeLibraries@RunTime@VIP@@1111111PAX@Z  (Idle)
01:0003DB84 ?addListener@event7@@SAXQAV1@@PAXPAXPAXPAXPAXPAXPAXPAXX@Z 
01:0003DBAC ?anonymous$o0$1$addlistener/2np$event7{@Source,@Type1,@Type2,@Type3,@Type4,@Type5,@Type6,@Type7}@event7@@SAXPAUanonymous$o0$1$addlistener/2np$event7{@Source,@Type1,@Type2,@Type3,@Type4,@Type5,@Type6,@Type7}c_struct@1/8@PAX@Z 
01:0003DBD0 ?addListener@event7@@SAXQAV1@@PAXPAXPAXPAXPAXPAXPAXPAXQAVrTypeLibrary@TypeLibraries@RunTime@VIP@@XQAVevent0@@@PAX@Z 
01:0003DC60 ?removeListener@event7@@SAXQAV1@@PAXPAXPAXPAXPAXPAXPAXPAXX@Z 
01:0003DD00 ?removeAllListeners@event7@@SAXQAV1@@PAXPAXPAXPAXPAXPAXPAXPAX@Z 
01:0003DD3C ?hasListeners@event7@@SAXQAV1@@PAXPAXPAXPAXPAXPAXPAXPAX@Z 
01:0003DD5C ?notify@event7@@SAXQAV1@@PAXPAXPAXPAXPAXPAXPAXPAXPAXPAXPAXPAXPAXPAXPAX@Z 
01:0003DDEC ?_new@event7@@SAXQAVrTypeLibrary@TypeLibraries@RunTime@VIP@@0000000PAXPAPAV1@@PAPAXPAPAXPAPAXPAPAXPAPAXPAPAXPAPAXPAPAX@Z  (Idle)
01:0003DE44 ?_object_typelib_initializer@event7@@SGXQAV1@@PAXPAXPAXPAXPAXPAXPAXPAXQAVrTypeLibrary@TypeLibraries@RunTime@VIP@@1111111@Z 
01:0003DE84 ?anonymous$o1$1$addlistener/2np$event7{@Source,@Type1,@Type2,@Type3,@Type4,@Type5,@Type6,@Type7}@event7@@SAXPAUanonymous$o1$1$addlistener/2np$event7{@Source,@Type1,@Type2,@Type3,@Type4,@Type5,@Type6,@Type7}c_struct@1/8@PAXPAX@Z 
01:0003DEA8 ?addListener@event7@@SAXQAV1@@PAXPAXPAXPAXPAXPAXPAXPAXQAVrTypeLibrary@TypeLibraries@RunTime@VIP@@1XQAVevent1@@@PAXPAX@Z 
01:0003DF40 ?anonymous$o2$1$addlistener/2np$event7{@Source,@Type1,@Type2,@Type3,@Type4,@Type5,@Type6,@Type7}@event7@@SAXPAUanonymous$o2$1$addlistener/2np$event7{@Source,@Type1,@Type2,@Type3,@Type4,@Type5,@Type6,@Type7}c_struct@1/8@PAXPAXPAX@Z 
01:0003DF64 ?addListener@event7@@SAXQAV1@@PAXPAXPAXPAXPAXPAXPAXPAXQAVrTypeLibrary@TypeLibraries@RunTime@VIP@@11XQAVevent2@@@PAXPAXPAX@Z 
01:0003E004 ?anonymous$o3$1$addlistener/2np$event7{@Source,@Type1,@Type2,@Type3,@Type4,@Type5,@Type6,@Type7}@event7@@SAXPAUanonymous$o3$1$addlistener/2np$event7{@Source,@Type1,@Type2,@Type3,@Type4,@Type5,@Type6,@Type7}c_struct@1/8@PAXPAXPAXPAX@Z 
01:0003E028 ?addListener@event7@@SAXQAV1@@PAXPAXPAXPAXPAXPAXPAXPAXQAVrTypeLibrary@TypeLibraries@RunTime@VIP@@111XQAVevent3@@@PAXPAXPAXPAX@Z 
01:0003E0CC ?anonymous$o4$1$addlistener/2np$event7{@Source,@Type1,@Type2,@Type3,@Type4,@Type5,@Type6,@Type7}@event7@@SAXPAUanonymous$o4$1$addlistener/2np$event7{@Source,@Type1,@Type2,@Type3,@Type4,@Type5,@Type6,@Type7}c_struct@1/8@PAXPAXPAXPAXPAX@Z 
01:0003E0F0 ?addListener@event7@@SAXQAV1@@PAXPAXPAXPAXPAXPAXPAXPAXQAVrTypeLibrary@TypeLibraries@RunTime@VIP@@1111XQAVevent4@@@PAXPAXPAXPAXPAX@Z 
01:0003E19C ?anonymous$o5$1$addlistener/2np$event7{@Source,@Type1,@Type2,@Type3,@Type4,@Type5,@Type6,@Type7}@event7@@SAXPAUanonymous$o5$1$addlistener/2np$event7{@Source,@Type1,@Type2,@Type3,@Type4,@Type5,@Type6,@Type7}c_struct@1/8@PAXPAXPAXPAXPAXPAX@Z 
01:0003E1C0 ?addListener@event7@@SAXQAV1@@PAXPAXPAXPAXPAXPAXPAXPAXQAVrTypeLibrary@TypeLibraries@RunTime@VIP@@11111XQAVevent5@@@PAXPAXPAXPAXPAXPAX@Z 
01:0003E270 ?anonymous$o6$1$addlistener/2np$event7{@Source,@Type1,@Type2,@Type3,@Type4,@Type5,@Type6,@Type7}@event7@@SAXPAUanonymous$o6$1$addlistener/2np$event7{@Source,@Type1,@Type2,@Type3,@Type4,@Type5,@Type6,@Type7}c_struct@1/8@PAXPAXPAXPAXPAXPAXPAX@Z 
01:0003E294 ?addListener@event7@@SAXQAV1@@PAXPAXPAXPAXPAXPAXPAXPAXQAVrTypeLibrary@TypeLibraries@RunTime@VIP@@111111XQAVevent6@@@PAXPAXPAXPAXPAXPAXPAX@Z 
01:0003E34C ?anonymous$o7$1$addlistener/2np$event7{@Source,@Type1,@Type2,@Type3,@Type4,@Type5,@Type6,@Type7}@event7@@SAXPAUanonymous$o7$1$addlistener/2np$event7{@Source,@Type1,@Type2,@Type3,@Type4,@Type5,@Type6,@Type7}c_struct@1/8@PAXPAXPAXPAXPAXPAXPAXPAX@Z 
01:0003E370 ?addListener@event7@@SAXQAV1@@PAXPAXPAXPAXPAXPAXPAXPAXQAVrTypeLibrary@TypeLibraries@RunTime@VIP@@1111111X0@Z 
01:0003E42C ?new@event6@@SAXQAV1@@PAXPAXPAXPAXPAXPAXPAXQAVrTypeLibrary@TypeLibraries@RunTime@VIP@@111111PAX@Z  (Idle)
01:0003E440 ?addListener@event6@@SAXQAV1@@PAXPAXPAXPAXPAXPAXPAXX@Z 
01:0003E468 ?anonymous$o0$1$addlistener/2np$event6{@Source,@Type1,@Type2,@Type3,@Type4,@Type5,@Type6}@event6@@SAXPAUanonymous$o0$1$addlistener/2np$event6{@Source,@Type1,@Type2,@Type3,@Type4,@Type5,@Type6}c_struct@1/7@PAX@Z 
01:0003E48C ?addListener@event6@@SAXQAV1@@PAXPAXPAXPAXPAXPAXPAXQAVrTypeLibrary@TypeLibraries@RunTime@VIP@@XQAVevent0@@@PAX@Z 
01:0003E518 ?removeListener@event6@@SAXQAV1@@PAXPAXPAXPAXPAXPAXPAXX@Z 
01:0003E5B8 ?removeAllListeners@event6@@SAXQAV1@@PAXPAXPAXPAXPAXPAXPAX@Z 
01:0003E5F4 ?hasListeners@event6@@SAXQAV1@@PAXPAXPAXPAXPAXPAXPAX@Z 
01:0003E614 ?notify@event6@@SAXQAV1@@PAXPAXPAXPAXPAXPAXPAXPAXPAXPAXPAXPAXPAX@Z 
01:0003E6A0 ?_new@event6@@SAXQAVrTypeLibrary@TypeLibraries@RunTime@VIP@@000000PAXPAPAV1@@PAPAXPAPAXPAPAXPAPAXPAPAXPAPAXPAPAX@Z  (Idle)
01:0003E6F4 ?_object_typelib_initializer@event6@@SGXQAV1@@PAXPAXPAXPAXPAXPAXPAXQAVrTypeLibrary@TypeLibraries@RunTime@VIP@@111111@Z 
01:0003E730 ?anonymous$o1$1$addlistener/2np$event6{@Source,@Type1,@Type2,@Type3,@Type4,@Type5,@Type6}@event6@@SAXPAUanonymous$o1$1$addlistener/2np$event6{@Source,@Type1,@Type2,@Type3,@Type4,@Type5,@Type6}c_struct@1/7@PAXPAX@Z 
01:0003E754 ?addListener@event6@@SAXQAV1@@PAXPAXPAXPAXPAXPAXPAXQAVrTypeLibrary@TypeLibraries@RunTime@VIP@@1XQAVevent1@@@PAXPAX@Z 
01:0003E7E8 ?anonymous$o2$1$addlistener/2np$event6{@Source,@Type1,@Type2,@Type3,@Type4,@Type5,@Type6}@event6@@SAXPAUanonymous$o2$1$addlistener/2np$event6{@Source,@Type1,@Type2,@Type3,@Type4,@Type5,@Type6}c_struct@1/7@PAXPAXPAX@Z 
01:0003E80C ?addListener@event6@@SAXQAV1@@PAXPAXPAXPAXPAXPAXPAXQAVrTypeLibrary@TypeLibraries@RunTime@VIP@@11XQAVevent2@@@PAXPAXPAX@Z 
01:0003E8A4 ?anonymous$o3$1$addlistener/2np$event6{@Source,@Type1,@Type2,@Type3,@Type4,@Type5,@Type6}@event6@@SAXPAUanonymous$o3$1$addlistener/2np$event6{@Source,@Type1,@Type2,@Type3,@Type4,@Type5,@Type6}c_struct@1/7@PAXPAXPAXPAX@Z 
01:0003E8C8 ?addListener@event6@@SAXQAV1@@PAXPAXPAXPAXPAXPAXPAXQAVrTypeLibrary@TypeLibraries@RunTime@VIP@@111XQAVevent3@@@PAXPAXPAXPAX@Z 
01:0003E968 ?anonymous$o4$1$addlistener/2np$event6{@Source,@Type1,@Type2,@Type3,@Type4,@Type5,@Type6}@event6@@SAXPAUanonymous$o4$1$addlistener/2np$event6{@Source,@Type1,@Type2,@Type3,@Type4,@Type5,@Type6}c_struct@1/7@PAXPAXPAXPAXPAX@Z 
01:0003E98C ?addListener@event6@@SAXQAV1@@PAXPAXPAXPAXPAXPAXPAXQAVrTypeLibrary@TypeLibraries@RunTime@VIP@@1111XQAVevent4@@@PAXPAXPAXPAXPAX@Z 
01:0003EA30 ?anonymous$o5$1$addlistener/2np$event6{@Source,@Type1,@Type2,@Type3,@Type4,@Type5,@Type6}@event6@@SAXPAUanonymous$o5$1$addlistener/2np$event6{@Source,@Type1,@Type2,@Type3,@Type4,@Type5,@Type6}c_struct@1/7@PAXPAXPAXPAXPAXPAX@Z 
01:0003EA54 ?addListener@event6@@SAXQAV1@@PAXPAXPAXPAXPAXPAXPAXQAVrTypeLibrary@TypeLibraries@RunTime@VIP@@11111XQAVevent5@@@PAXPAXPAXPAXPAXPAX@Z 
01:0003EB00 ?anonymous$o6$1$addlistener/2np$event6{@Source,@Type1,@Type2,@Type3,@Type4,@Type5,@Type6}@event6@@SAXPAUanonymous$o6$1$addlistener/2np$event6{@Source,@Type1,@Type2,@Type3,@Type4,@Type5,@Type6}c_struct@1/7@PAXPAXPAXPAXPAXPAXPAX@Z 
01:0003EB24 ?addListener@event6@@SAXQAV1@@PAXPAXPAXPAXPAXPAXPAXQAVrTypeLibrary@TypeLibraries@RunTime@VIP@@111111X0@Z 
01:0003EBD4 ?new@event5@@SAXQAV1@@PAXPAXPAXPAXPAXPAXQAVrTypeLibrary@TypeLibraries@RunTime@VIP@@11111PAX@Z  (Idle)
01:0003EBE8 ?addListener@event5@@SAXQAV1@@PAXPAXPAXPAXPAXPAXX@Z 
01:0003EC10 ?anonymous$o0$1$addlistener/2np$event5{@Source,@Type1,@Type2,@Type3,@Type4,@Type5}@event5@@SAXPAUanonymous$o0$1$addlistener/2np$event5{@Source,@Type1,@Type2,@Type3,@Type4,@Type5}c_struct@1/6@PAX@Z 
01:0003EC34 ?addListener@event5@@SAXQAV1@@PAXPAXPAXPAXPAXPAXQAVrTypeLibrary@TypeLibraries@RunTime@VIP@@XQAVevent0@@@PAX@Z 
01:0003ECB8 ?removeListener@event5@@SAXQAV1@@PAXPAXPAXPAXPAXPAXX@Z 
01:0003ED58 ?removeAllListeners@event5@@SAXQAV1@@PAXPAXPAXPAXPAXPAX@Z 
01:0003ED94 ?hasListeners@event5@@SAXQAV1@@PAXPAXPAXPAXPAXPAX@Z 
01:0003EDB4 ?notify@event5@@SAXQAV1@@PAXPAXPAXPAXPAXPAXPAXPAXPAXPAXPAX@Z 
01:0003EE3C ?_new@event5@@SAXQAVrTypeLibrary@TypeLibraries@RunTime@VIP@@00000PAXPAPAV1@@PAPAXPAPAXPAPAXPAPAXPAPAXPAPAX@Z  (Idle)
01:0003EE88 ?_object_typelib_initializer@event5@@SGXQAV1@@PAXPAXPAXPAXPAXPAXQAVrTypeLibrary@TypeLibraries@RunTime@VIP@@11111@Z 
01:0003EEBC ?anonymous$o1$1$addlistener/2np$event5{@Source,@Type1,@Type2,@Type3,@Type4,@Type5}@event5@@SAXPAUanonymous$o1$1$addlistener/2np$event5{@Source,@Type1,@Type2,@Type3,@Type4,@Type5}c_struct@1/6@PAXPAX@Z 
01:0003EEE0 ?addListener@event5@@SAXQAV1@@PAXPAXPAXPAXPAXPAXQAVrTypeLibrary@TypeLibraries@RunTime@VIP@@1XQAVevent1@@@PAXPAX@Z 
01:0003EF6C ?anonymous$o2$1$addlistener/2np$event5{@Source,@Type1,@Type2,@Type3,@Type4,@Type5}@event5@@SAXPAUanonymous$o2$1$addlistener/2np$event5{@Source,@Type1,@Type2,@Type3,@Type4,@Type5}c_struct@1/6@PAXPAXPAX@Z 
01:0003EF90 ?addListener@event5@@SAXQAV1@@PAXPAXPAXPAXPAXPAXQAVrTypeLibrary@TypeLibraries@RunTime@VIP@@11XQAVevent2@@@PAXPAXPAX@Z 
01:0003F024 ?anonymous$o3$1$addlistener/2np$event5{@Source,@Type1,@Type2,@Type3,@Type4,@Type5}@event5@@SAXPAUanonymous$o3$1$addlistener/2np$event5{@Source,@Type1,@Type2,@Type3,@Type4,@Type5}c_struct@1/6@PAXPAXPAXPAX@Z 
01:0003F048 ?addListener@event5@@SAXQAV1@@PAXPAXPAXPAXPAXPAXQAVrTypeLibrary@TypeLibraries@RunTime@VIP@@111XQAVevent3@@@PAXPAXPAXPAX@Z 
01:0003F0E0 ?anonymous$o4$1$addlistener/2np$event5{@Source,@Type1,@Type2,@Type3,@Type4,@Type5}@event5@@SAXPAUanonymous$o4$1$addlistener/2np$event5{@Source,@Type1,@Type2,@Type3,@Type4,@Type5}c_struct@1/6@PAXPAXPAXPAXPAX@Z 
01:0003F104 ?addListener@event5@@SAXQAV1@@PAXPAXPAXPAXPAXPAXQAVrTypeLibrary@TypeLibraries@RunTime@VIP@@1111XQAVevent4@@@PAXPAXPAXPAXPAX@Z 
01:0003F1A4 ?anonymous$o5$1$addlistener/2np$event5{@Source,@Type1,@Type2,@Type3,@Type4,@Type5}@event5@@SAXPAUanonymous$o5$1$addlistener/2np$event5{@Source,@Type1,@Type2,@Type3,@Type4,@Type5}c_struct@1/6@PAXPAXPAXPAXPAXPAX@Z 
01:0003F1C8 ?addListener@event5@@SAXQAV1@@PAXPAXPAXPAXPAXPAXQAVrTypeLibrary@TypeLibraries@RunTime@VIP@@11111X0@Z 
01:0003F26C ?new@event4@@SAXQAV1@@PAXPAXPAXPAXPAXQAVrTypeLibrary@TypeLibraries@RunTime@VIP@@1111PAX@Z  (Idle)
01:0003F280 ?addListener@event4@@SAXQAV1@@PAXPAXPAXPAXPAXX@Z 
01:0003F2A8 ?anonymous$o0$1$addlistener/2np$event4{@Source,@Type1,@Type2,@Type3,@Type4}@event4@@SAXPAUanonymous$o0$1$addlistener/2np$event4{@Source,@Type1,@Type2,@Type3,@Type4}c_struct@1/5@PAX@Z 
01:0003F2CC ?addListener@event4@@SAXQAV1@@PAXPAXPAXPAXPAXQAVrTypeLibrary@TypeLibraries@RunTime@VIP@@XQAVevent0@@@PAX@Z 
01:0003F34C ?removeListener@event4@@SAXQAV1@@PAXPAXPAXPAXPAXX@Z 
01:0003F3EC ?removeAllListeners@event4@@SAXQAV1@@PAXPAXPAXPAXPAX@Z 
01:0003F428 ?hasListeners@event4@@SAXQAV1@@PAXPAXPAXPAXPAX@Z 
01:0003F448 ?notify@event4@@SAXQAV1@@PAXPAXPAXPAXPAXPAXPAXPAXPAX@Z 
01:0003F4CC ?_new@event4@@SAXQAVrTypeLibrary@TypeLibraries@RunTime@VIP@@0000PAXPAPAV1@@PAPAXPAPAXPAPAXPAPAXPAPAX@Z  (Idle)
01:0003F514 ?_object_typelib_initializer@event4@@SGXQAV1@@PAXPAXPAXPAXPAXQAVrTypeLibrary@TypeLibraries@RunTime@VIP@@1111@Z 
01:0003F544 ?anonymous$o1$1$addlistener/2np$event4{@Source,@Type1,@Type2,@Type3,@Type4}@event4@@SAXPAUanonymous$o1$1$addlistener/2np$event4{@Source,@Type1,@Type2,@Type3,@Type4}c_struct@1/5@PAXPAX@Z 
01:0003F568 ?addListener@event4@@SAXQAV1@@PAXPAXPAXPAXPAXQAVrTypeLibrary@TypeLibraries@RunTime@VIP@@1XQAVevent1@@@PAXPAX@Z 
01:0003F5F0 ?anonymous$o2$1$addlistener/2np$event4{@Source,@Type1,@Type2,@Type3,@Type4}@event4@@SAXPAUanonymous$o2$1$addlistener/2np$event4{@Source,@Type1,@Type2,@Type3,@Type4}c_struct@1/5@PAXPAXPAX@Z 
01:0003F614 ?addListener@event4@@SAXQAV1@@PAXPAXPAXPAXPAXQAVrTypeLibrary@TypeLibraries@RunTime@VIP@@11XQAVevent2@@@PAXPAXPAX@Z 
01:0003F6A0 ?anonymous$o3$1$addlistener/2np$event4{@Source,@Type1,@Type2,@Type3,@Type4}@event4@@SAXPAUanonymous$o3$1$addlistener/2np$event4{@Source,@Type1,@Type2,@Type3,@Type4}c_struct@1/5@PAXPAXPAXPAX@Z 
01:0003F6C4 ?addListener@event4@@SAXQAV1@@PAXPAXPAXPAXPAXQAVrTypeLibrary@TypeLibraries@RunTime@VIP@@111XQAVevent3@@@PAXPAXPAXPAX@Z 
01:0003F758 ?anonymous$o4$1$addlistener/2np$event4{@Source,@Type1,@Type2,@Type3,@Type4}@event4@@SAXPAUanonymous$o4$1$addlistener/2np$event4{@Source,@Type1,@Type2,@Type3,@Type4}c_struct@1/5@PAXPAXPAXPAXPAX@Z 
01:0003F77C ?addListener@event4@@SAXQAV1@@PAXPAXPAXPAXPAXQAVrTypeLibrary@TypeLibraries@RunTime@VIP@@1111X0@Z 
01:0003F814 ?anonymous$o5$1$addlistener/2np$event4{@Source,@Type1,@Type2,@Type3,@Type4}@event4@@SAXPAUanonymous$o5$1$addlistener/2np$event4{@Source,@Type1,@Type2,@Type3,@Type4}c_struct@1/5@PAXPAXPAXPAXPAXPAX@Z 
01:0003F838 ?addListener@event4@@SAXQAV1@@PAXPAXPAXPAXPAXQAVrTypeLibrary@TypeLibraries@RunTime@VIP@@11111XQAVevent5@@@PAXPAXPAXPAXPAXPAX@Z 
01:0003F8D8 ?new@event3@@SAXQAV1@@PAXPAXPAXPAXQAVrTypeLibrary@TypeLibraries@RunTime@VIP@@111PAX@Z  (Idle)
01:0003F8EC ?addListener@event3@@SAXQAV1@@PAXPAXPAXPAXX@Z 
01:0003F914 ?anonymous$o0$1$addlistener/2np$event3{@Source,@Type1,@Type2,@Type3}@event3@@SAXPAUanonymous$o0$1$addlistener/2np$event3{@Source,@Type1,@Type2,@Type3}c_struct@1/4@PAX@Z 
01:0003F938 ?addListener@event3@@SAXQAV1@@PAXPAXPAXPAXQAVrTypeLibrary@TypeLibraries@RunTime@VIP@@XQAVevent0@@@PAX@Z 
01:0003F9B0 ?removeListener@event3@@SAXQAV1@@PAXPAXPAXPAXX@Z 
01:0003FA50 ?removeAllListeners@event3@@SAXQAV1@@PAXPAXPAXPAX@Z 
01:0003FA8C ?hasListeners@event3@@SAXQAV1@@PAXPAXPAXPAX@Z 
01:0003FAAC ?notify@event3@@SAXQAV1@@PAXPAXPAXPAXPAXPAXPAX@Z 
01:0003FB30 ?_new@event3@@SAXQAVrTypeLibrary@TypeLibraries@RunTime@VIP@@000PAXPAPAV1@@PAPAXPAPAXPAPAXPAPAX@Z  (Idle)
01:0003FB70 ?_object_typelib_initializer@event3@@SGXQAV1@@PAXPAXPAXPAXQAVrTypeLibrary@TypeLibraries@RunTime@VIP@@111@Z 
01:0003FB98 ?anonymous$o1$1$addlistener/2np$event3{@Source,@Type1,@Type2,@Type3}@event3@@SAXPAUanonymous$o1$1$addlistener/2np$event3{@Source,@Type1,@Type2,@Type3}c_struct@1/4@PAXPAX@Z 
01:0003FBBC ?addListener@event3@@SAXQAV1@@PAXPAXPAXPAXQAVrTypeLibrary@TypeLibraries@RunTime@VIP@@1XQAVevent1@@@PAXPAX@Z 
01:0003FC3C ?anonymous$o2$1$addlistener/2np$event3{@Source,@Type1,@Type2,@Type3}@event3@@SAXPAUanonymous$o2$1$addlistener/2np$event3{@Source,@Type1,@Type2,@Type3}c_struct@1/4@PAXPAXPAX@Z 
01:0003FC60 ?addListener@event3@@SAXQAV1@@PAXPAXPAXPAXQAVrTypeLibrary@TypeLibraries@RunTime@VIP@@11XQAVevent2@@@PAXPAXPAX@Z 
01:0003FCE8 ?anonymous$o3$1$addlistener/2np$event3{@Source,@Type1,@Type2,@Type3}@event3@@SAXPAUanonymous$o3$1$addlistener/2np$event3{@Source,@Type1,@Type2,@Type3}c_struct@1/4@PAXPAXPAXPAX@Z 
01:0003FD0C ?addListener@event3@@SAXQAV1@@PAXPAXPAXPAXQAVrTypeLibrary@TypeLibraries@RunTime@VIP@@111X0@Z 
01:0003FD98 ?anonymous$o4$1$addlistener/2np$event3{@Source,@Type1,@Type2,@Type3}@event3@@SAXPAUanonymous$o4$1$addlistener/2np$event3{@Source,@Type1,@Type2,@Type3}c_struct@1/4@PAXPAXPAXPAXPAX@Z 
01:0003FDBC ?addListener@event3@@SAXQAV1@@PAXPAXPAXPAXQAVrTypeLibrary@TypeLibraries@RunTime@VIP@@1111XQAVevent4@@@PAXPAXPAXPAXPAX@Z 
01:0003FE50 ?anonymous$o5$1$addlistener/2np$event3{@Source,@Type1,@Type2,@Type3}@event3@@SAXPAUanonymous$o5$1$addlistener/2np$event3{@Source,@Type1,@Type2,@Type3}c_struct@1/4@PAXPAXPAXPAXPAXPAX@Z 
01:0003FE74 ?addListener@event3@@SAXQAV1@@PAXPAXPAXPAXQAVrTypeLibrary@TypeLibraries@RunTime@VIP@@11111XQAVevent5@@@PAXPAXPAXPAXPAXPAX@Z 
01:0003FF0C ?new@event2@@SAXQAV1@@PAXPAXPAXQAVrTypeLibrary@TypeLibraries@RunTime@VIP@@11PAX@Z  (Idle)
01:0003FF20 ?addListener@event2@@SAXQAV1@@PAXPAXPAXX@Z 
01:0003FF48 ?anonymous$o0$1$addlistener/2np$event2{@Source,@Type1,@Type2}@event2@@SAXPAUanonymous$o0$1$addlistener/2np$event2{@Source,@Type1,@Type2}c_struct@1/3@PAX@Z 
01:0003FF6C ?addListener@event2@@SAXQAV1@@PAXPAXPAXQAVrTypeLibrary@TypeLibraries@RunTime@VIP@@XQAVevent0@@@PAX@Z 
01:0003FFE0 ?removeListener@event2@@SAXQAV1@@PAXPAXPAXX@Z 
01:00040080 ?removeAllListeners@event2@@SAXQAV1@@PAXPAXPAX@Z 
01:000400BC ?hasListeners@event2@@SAXQAV1@@PAXPAXPAX@Z 
01:000400DC ?notify@event2@@SAXQAV1@@PAXPAXPAXPAXPAX@Z 
01:0004015C ?_new@event2@@SAXQAVrTypeLibrary@TypeLibraries@RunTime@VIP@@00PAXPAPAV1@@PAPAXPAPAXPAPAX@Z  (Idle)
01:00040198 ?_object_typelib_initializer@event2@@SGXQAV1@@PAXPAXPAXQAVrTypeLibrary@TypeLibraries@RunTime@VIP@@11@Z 
01:000401BC ?anonymous$o1$1$addlistener/2np$event2{@Source,@Type1,@Type2}@event2@@SAXPAUanonymous$o1$1$addlistener/2np$event2{@Source,@Type1,@Type2}c_struct@1/3@PAXPAX@Z 
01:000401E0 ?addListener@event2@@SAXQAV1@@PAXPAXPAXQAVrTypeLibrary@TypeLibraries@RunTime@VIP@@1XQAVevent1@@@PAXPAX@Z 
01:0004025C ?anonymous$o2$1$addlistener/2np$event2{@Source,@Type1,@Type2}@event2@@SAXPAUanonymous$o2$1$addlistener/2np$event2{@Source,@Type1,@Type2}c_struct@1/3@PAXPAXPAX@Z 
01:00040280 ?addListener@event2@@SAXQAV1@@PAXPAXPAXQAVrTypeLibrary@TypeLibraries@RunTime@VIP@@11X0@Z 
01:00040300 ?anonymous$o3$1$addlistener/2np$event2{@Source,@Type1,@Type2}@event2@@SAXPAUanonymous$o3$1$addlistener/2np$event2{@Source,@Type1,@Type2}c_struct@1/3@PAXPAXPAXPAX@Z 
01:00040324 ?addListener@event2@@SAXQAV1@@PAXPAXPAXQAVrTypeLibrary@TypeLibraries@RunTime@VIP@@111XQAVevent3@@@PAXPAXPAXPAX@Z 
01:000403AC ?anonymous$o4$1$addlistener/2np$event2{@Source,@Type1,@Type2}@event2@@SAXPAUanonymous$o4$1$addlistener/2np$event2{@Source,@Type1,@Type2}c_struct@1/3@PAXPAXPAXPAXPAX@Z 
01:000403D0 ?addListener@event2@@SAXQAV1@@PAXPAXPAXQAVrTypeLibrary@TypeLibraries@RunTime@VIP@@1111XQAVevent4@@@PAXPAXPAXPAXPAX@Z 
01:0004045C ?anonymous$o5$1$addlistener/2np$event2{@Source,@Type1,@Type2}@event2@@SAXPAUanonymous$o5$1$addlistener/2np$event2{@Source,@Type1,@Type2}c_struct@1/3@PAXPAXPAXPAXPAXPAX@Z 
01:00040480 ?addListener@event2@@SAXQAV1@@PAXPAXPAXQAVrTypeLibrary@TypeLibraries@RunTime@VIP@@11111XQAVevent5@@@PAXPAXPAXPAXPAXPAX@Z 
01:00040514 ?new@event1@@SAXQAV1@@PAXPAXQAVrTypeLibrary@TypeLibraries@RunTime@VIP@@1PAX@Z  (Idle)
01:00040528 ?addListener@event1@@SAXQAV1@@PAXPAXX@Z 
01:00040550 ?anonymous$o0$1$addlistener/2np$event1{@Source,@Type1}@event1@@SAXPAUanonymous$o0$1$addlistener/2np$event1{@Source,@Type1}c_struct@1/2@PAX@Z 
01:00040574 ?addListener@event1@@SAXQAV1@@PAXPAXQAVrTypeLibrary@TypeLibraries@RunTime@VIP@@XQAVevent0@@@PAX@Z 
01:000405E0 ?removeListener@event1@@SAXQAV1@@PAXPAXX@Z 
01:00040680 ?removeAllListeners@event1@@SAXQAV1@@PAXPAX@Z 
01:000406BC ?hasListeners@event1@@SAXQAV1@@PAXPAX@Z 
01:000406DC ?notify@event1@@SAXQAV1@@PAXPAXPAX@Z 
01:00040758 ?_new@event1@@SAXQAVrTypeLibrary@TypeLibraries@RunTime@VIP@@0PAXPAPAV1@@PAPAXPAPAX@Z  (Idle)
01:0004078C ?_object_typelib_initializer@event1@@SGXQAV1@@PAXPAXQAVrTypeLibrary@TypeLibraries@RunTime@VIP@@1@Z 
01:000407A8 ?anonymous$o1$1$addlistener/2np$event1{@Source,@Type1}@event1@@SAXPAUanonymous$o1$1$addlistener/2np$event1{@Source,@Type1}c_struct@1/2@PAXPAX@Z 
01:000407CC ?addListener@event1@@SAXQAV1@@PAXPAXQAVrTypeLibrary@TypeLibraries@RunTime@VIP@@1X0@Z 
01:00040840 ?anonymous$o2$1$addlistener/2np$event1{@Source,@Type1}@event1@@SAXPAUanonymous$o2$1$addlistener/2np$event1{@Source,@Type1}c_struct@1/2@PAXPAXPAX@Z 
01:00040864 ?addListener@event1@@SAXQAV1@@PAXPAXQAVrTypeLibrary@TypeLibraries@RunTime@VIP@@11XQAVevent2@@@PAXPAXPAX@Z 
01:000408E0 ?anonymous$o3$1$addlistener/2np$event1{@Source,@Type1}@event1@@SAXPAUanonymous$o3$1$addlistener/2np$event1{@Source,@Type1}c_struct@1/2@PAXPAXPAXPAX@Z 
01:00040904 ?addListener@event1@@SAXQAV1@@PAXPAXQAVrTypeLibrary@TypeLibraries@RunTime@VIP@@111XQAVevent3@@@PAXPAXPAXPAX@Z 
01:00040984 ?anonymous$o4$1$addlistener/2np$event1{@Source,@Type1}@event1@@SAXPAUanonymous$o4$1$addlistener/2np$event1{@Source,@Type1}c_struct@1/2@PAXPAXPAXPAXPAX@Z 
01:000409A8 ?addListener@event1@@SAXQAV1@@PAXPAXQAVrTypeLibrary@TypeLibraries@RunTime@VIP@@1111XQAVevent4@@@PAXPAXPAXPAXPAX@Z 
01:00040A30 ?anonymous$o5$1$addlistener/2np$event1{@Source,@Type1}@event1@@SAXPAUanonymous$o5$1$addlistener/2np$event1{@Source,@Type1}c_struct@1/2@PAXPAXPAXPAXPAXPAX@Z 
01:00040A54 ?addListener@event1@@SAXQAV1@@PAXPAXQAVrTypeLibrary@TypeLibraries@RunTime@VIP@@11111XQAVevent5@@@PAXPAXPAXPAXPAXPAX@Z 
01:00040AE0 ?new@event0@@SAXQAV1@@PAXQAVrTypeLibrary@TypeLibraries@RunTime@VIP@@PAX@Z  (Idle)
01:00040AF4 ?addListener@event0@@SAXQAV1@@PAXX@Z 
01:00040B1C ?anonymous$o0$1$addlistener/2np$event0{@Source}@event0@@SAXPAUanonymous$o0$1$addlistener/2np$event0{@Source}c_struct@1/1@PAX@Z 
01:00040B40 ?addListener@event0@@SAXQAV1@@PAXQAVrTypeLibrary@TypeLibraries@RunTime@VIP@@X0@Z 
01:00040BA8 ?removeListener@event0@@SAXQAV1@@PAXX@Z 
01:00040C48 ?removeAllListeners@event0@@SAXQAV1@@PAX@Z 
01:00040C84 ?hasListeners@event0@@SAXQAV1@@PAX@Z 
01:00040CA4 ?notify@event0@@SAXQAV1@@PAX@Z 
--- From 'Obj\varm.17B5C45B.obj'
01:00040D1C ?_new@event0@@SAXQAVrTypeLibrary@TypeLibraries@RunTime@VIP@@PAXPAPAV1@@PAPAX@Z 
--- From 'Obj\event.35BDD536.obj'
01:00040D4C ?_object_typelib_initializer@event0@@SGXQAV1@@PAXQAVrTypeLibrary@TypeLibraries@RunTime@VIP@@@Z 
01:00040D64 ?anonymous$o1$1$addlistener/2np$event0{@Source}@event0@@SAXPAUanonymous$o1$1$addlistener/2np$event0{@Source}c_struct@1/1@PAXPAX@Z 
01:00040D88 ?addListener@event0@@SAXQAV1@@PAXQAVrTypeLibrary@TypeLibraries@RunTime@VIP@@1XQAVevent1@@@PAXPAX@Z 
01:00040DF8 ?anonymous$o2$1$addlistener/2np$event0{@Source}@event0@@SAXPAUanonymous$o2$1$addlistener/2np$event0{@Source}c_struct@1/1@PAXPAXPAX@Z 
01:00040E1C ?addListener@event0@@SAXQAV1@@PAXQAVrTypeLibrary@TypeLibraries@RunTime@VIP@@11XQAVevent2@@@PAXPAXPAX@Z 
01:00040E90 ?anonymous$o3$1$addlistener/2np$event0{@Source}@event0@@SAXPAUanonymous$o3$1$addlistener/2np$event0{@Source}c_struct@1/1@PAXPAXPAXPAX@Z 
01:00040EB4 ?addListener@event0@@SAXQAV1@@PAXQAVrTypeLibrary@TypeLibraries@RunTime@VIP@@111XQAVevent3@@@PAXPAXPAXPAX@Z 
01:00040F30 ?anonymous$o4$1$addlistener/2np$event0{@Source}@event0@@SAXPAUanonymous$o4$1$addlistener/2np$event0{@Source}c_struct@1/1@PAXPAXPAXPAXPAX@Z 
01:00040F54 ?addListener@event0@@SAXQAV1@@PAXQAVrTypeLibrary@TypeLibraries@RunTime@VIP@@1111XQAVevent4@@@PAXPAXPAXPAXPAX@Z 
01:00040FD4 ?anonymous$o5$1$addlistener/2np$event0{@Source}@event0@@SAXPAUanonymous$o5$1$addlistener/2np$event0{@Source}c_struct@1/1@PAXPAXPAXPAXPAXPAX@Z 
01:00040FF8 ?addListener@event0@@SAXQAV1@@PAXQAVrTypeLibrary@TypeLibraries@RunTime@VIP@@11111XQAVevent5@@@PAXPAXPAXPAXPAXPAX@Z 
01:00041088 event7{@Source,@Type1,@Type2,@Type3,@Type4,@Type5,@Type6,@Type7}?_initObject@@@QAGXQAV1@H@Z 
01:000410C8 ?@create_object@event7@@SGQAV1@@PAXPAXPAXPAXPAXPAXPAXPAXQAVrTypeLibrary@TypeLibraries@RunTime@VIP@@0000000@Z 
01:00041108 event7{@Source,@Type1,@Type2,@Type3,@Type4,@Type5,@Type6,@Type7}?_InternalFinalizer@@@QAGXQAV1@@Z 
01:0004111C event6{@Source,@Type1,@Type2,@Type3,@Type4,@Type5,@Type6}?_initObject@@@QAGXQAV1@H@Z 
01:00041158 ?@create_object@event6@@SGQAV1@@PAXPAXPAXPAXPAXPAXPAXQAVrTypeLibrary@TypeLibraries@RunTime@VIP@@000000@Z 
01:00041194 event6{@Source,@Type1,@Type2,@Type3,@Type4,@Type5,@Type6}?_InternalFinalizer@@@QAGXQAV1@@Z 
01:000411A8 event5{@Source,@Type1,@Type2,@Type3,@Type4,@Type5}?_initObject@@@QAGXQAV1@H@Z 
01:000411E0 ?@create_object@event5@@SGQAV1@@PAXPAXPAXPAXPAXPAXQAVrTypeLibrary@TypeLibraries@RunTime@VIP@@00000@Z 
01:00041218 event5{@Source,@Type1,@Type2,@Type3,@Type4,@Type5}?_InternalFinalizer@@@QAGXQAV1@@Z 
01:0004122C event4{@Source,@Type1,@Type2,@Type3,@Type4}?_initObject@@@QAGXQAV1@H@Z 
01:00041260 ?@create_object@event4@@SGQAV1@@PAXPAXPAXPAXPAXQAVrTypeLibrary@TypeLibraries@RunTime@VIP@@0000@Z 
01:00041294 event4{@Source,@Type1,@Type2,@Type3,@Type4}?_InternalFinalizer@@@QAGXQAV1@@Z 
01:000412A8 event3{@Source,@Type1,@Type2,@Type3}?_initObject@@@QAGXQAV1@H@Z 
01:000412D8 ?@create_object@event3@@SGQAV1@@PAXPAXPAXPAXQAVrTypeLibrary@TypeLibraries@RunTime@VIP@@000@Z 
01:00041308 event3{@Source,@Type1,@Type2,@Type3}?_InternalFinalizer@@@QAGXQAV1@@Z 
01:0004131C event2{@Source,@Type1,@Type2}?_initObject@@@QAGXQAV1@H@Z 
01:00041348 ?@create_object@event2@@SGQAV1@@PAXPAXPAXQAVrTypeLibrary@TypeLibraries@RunTime@VIP@@00@Z 
01:00041374 event2{@Source,@Type1,@Type2}?_InternalFinalizer@@@QAGXQAV1@@Z 
01:00041388 event1{@Source,@Type1}?_initObject@@@QAGXQAV1@H@Z 
01:000413B0 ?@create_object@event1@@SGQAV1@@PAXPAXQAVrTypeLibrary@TypeLibraries@RunTime@VIP@@0@Z 
01:000413D8 event1{@Source,@Type1}?_InternalFinalizer@@@QAGXQAV1@@Z 
01:000413EC event0{@Source}?_initObject@@@QAGXQAV1@H@Z 
01:00041410 ?@create_object@event0@@SGQAV1@@PAXQAVrTypeLibrary@TypeLibraries@RunTime@VIP@@@Z 
01:00041434 event0{@Source}?_InternalFinalizer@@@QAGXQAV1@@Z 
--- From 'Obj\reflection.0F000252.obj'
01:00041440 ?_getTypeLib@reflection_native@reflection@pfc@@SAXQAVrTypeLibrary@TypeLibraries@RunTime@VIP@@PAXPAPAVtypeLibrary@@32@@Z  (Idle)
01:00041448 $$$reflection$GetTypeLib 
01:00041458 ?_getScopeDescriptor@reflection_native@reflection@pfc@@SAXPBUhScopeDescriptor@core@@PAPAVscopeDescriptor@@32@@Z 
01:00041468 ?_getPresenter@reflection_native@reflection@pfc@@SAXQAVrTypeLibrary@TypeLibraries@RunTime@VIP@@PAXPAX@Z  (Idle)
01:00041494 ?isPointerNull@reflection_native@reflection@pfc@@SAXQAVrTypeLibrary@TypeLibraries@RunTime@VIP@@PAX@Z  (Idle)
01:000414BC ?isPointerNullEx@reflection_native@reflection@pfc@@SAXQAVtypeLibrary@@32@PBUboxedTerm@3@@Z 
01:000414E4 ?_getFunctorName@reflection@1pfc@@SAXQAVrTypeLibrary@TypeLibraries@RunTime@VIP@@PAXPAPB_W@Z  (Idle)
01:000415B0 ?_offsetof@reflection@1pfc@@SAXQAVrTypeLibrary@TypeLibraries@RunTime@VIP@@PAXIAAUbyteCount@core@@@Z  (Idle)
01:000417B4 ?_getFunctorValue@reflection@1pfc@@SAXQAVrTypeLibrary@TypeLibraries@RunTime@VIP@@PAXAAUfunctor@@@Z  (Idle)
01:000417D8 ?_pointerOfField@reflection@1pfc@@SAXQAVrTypeLibrary@TypeLibraries@RunTime@VIP@@PAXIPAPAX@Z  (Idle)
01:00041804 ?_deParameterizeName@reflection@1pfc@@SAXPB_WPAPB_W@Z  (Idle)
01:0004184C ?isEmbeddedClassName@reflection@1pfc@@SAXPB_W@Z  (Idle)
--- From 'Obj\varm.17B5C45B.obj'
01:000418E0 ?new@varM_unsigned@@SAXQAV1@@@Z  (Idle)
01:000418F4 ?new@varM_unsigned@@SAXQAV1@@I@Z 
01:0004191C ?newModel_unary@varM_unsigned@@SAXQAV1@@QAVvarM@@@IX@Z  (Idle)
01:0004194C ?newModel_binary@varM_unsigned@@SAXQAV1@@QAVvarM@@@I1X@Z  (Idle)
01:00041984 ?_add@varM_unsigned@@SAXQAV1@@IPAI@Z 
01:000419B4 ?_sub@varM_unsigned@@SAXQAV1@@IPAI@Z 
01:000419E4 ?_max@varM_unsigned@@SAXQAV1@@IPAI@Z 
01:00041A20 ?_min@varM_unsigned@@SAXQAV1@@IPAI@Z 
01:00041A5C ?_inc@varM_unsigned@@SAXQAV1@@PAI@Z 
01:00041A98 ?_dec@varM_unsigned@@SAXQAV1@@PAI@Z 
01:00041AD4 ?_setF@varM_unsigned@@SAXQAV1@@IPAI@Z 
01:00041AE8 ?add@varM_unsigned@@SAXQAV1@@I@Z 
01:00041B08 ?sub@varM_unsigned@@SAXQAV1@@I@Z 
01:00041B28 ?max@varM_unsigned@@SAXQAV1@@I@Z 
01:00041B48 ?min@varM_unsigned@@SAXQAV1@@I@Z 
01:00041B68 ?inc@varM_unsigned@@SAXQAV1@@@Z 
01:00041B84 ?dec@varM_unsigned@@SAXQAV1@@@Z 
01:00041BA0 ?_new@varM_unsigned@@SAXPAPAV1@@@Z  (Idle)
01:00041BC8 ?_new@varM_unsigned@@SAXIPAPAV1@@@Z  (Idle)
01:00041BF0 ?_newModel_unary@varM_unsigned@@SAXQAVvarM@@@IXPAPAV1@@@Z  (Idle)
01:00041C1C ?_newModel_binary@varM_unsigned@@SAXQAVvarM@@@I0XPAPAV1@@@Z  (Idle)
01:00041C4C ?new@varM_reference@@SAXQAV1@@PAXQAVrTypeLibrary@TypeLibraries@RunTime@VIP@@PAUreference_struct@1/1@PAX@Z  (Idle)
01:00041C60 ?_value@varM_reference@@SAXQAVvarM@@@PAXPAPAX@Z 
01:00041C78 ?value@varM_reference@@SAXQAVvarM@@@PAXPAX@Z 
01:00041CC0 ?modified@varM_reference@@SGQAVevent0@@@PBUhandle@@QAVvarM@@@PAX@Z 
01:00041CD8 ?_new@varM_reference@@SAXQAVrTypeLibrary@TypeLibraries@RunTime@VIP@@PAUreference_struct@1/1@PAXPAPAVvarM@@@PAPAX@Z  (Idle)
01:00041D08 ?_object_typelib_initializer@varM_reference@@SGXQAV1@@PAXQAVrTypeLibrary@TypeLibraries@RunTime@VIP@@@Z 
01:00041D20 ?new@varM_optional@@SAXQAV1@@PAXQAVrTypeLibrary@TypeLibraries@RunTime@VIP@@@Z  (Idle)
01:00041D64 ?new@varM_optional@@SAXQAV1@@PAXQAVrTypeLibrary@TypeLibraries@RunTime@VIP@@PAX@Z  (Idle)
01:00041DB8 ?_tryGet@varM_optional@@SAXQAV1@@PAXPAPAX@Z 
01:00041E00 ?set@varM_optional@@SAXQAV1@@PAXPAX@Z 
01:00041E28 ?unset@varM_optional@@SAXQAV1@@PAX@Z 
01:00041E3C ?_new@varM_optional@@SAXQAVrTypeLibrary@TypeLibraries@RunTime@VIP@@PAPAV1@@PAPAX@Z  (Idle)
01:00041E68 ?_new@varM_optional@@SAXQAVrTypeLibrary@TypeLibraries@RunTime@VIP@@PAXPAPAV1@@PAPAX@Z  (Idle)
01:00041E98 ?_object_typelib_initializer@varM_optional@@SGXQAV1@@PAXQAVrTypeLibrary@TypeLibraries@RunTime@VIP@@@Z 
01:00041EB0 ?_mk_tl_0_varM{@Term}$imp$@varM_optional@@SGQAVrTypeLibrary@TypeLibraries@RunTime@VIP@@QAV1@@PAX@Z 
01:00041EEC ?new@varM_integer@@SAXQAV1@@@Z  (Idle)
01:00041F00 ?new@varM_integer@@SAXQAV1@@H@Z 
01:00041F28 ?newModel_unary@varM_integer@@SAXQAV1@@QAVvarM@@@HX@Z  (Idle)
01:00041F58 ?newModel_binary@varM_integer@@SAXQAV1@@QAVvarM@@@H1X@Z  (Idle)
01:00041F90 ?_add@varM_integer@@SAXQAV1@@HPAH@Z 
01:00041FBC ?_sub@varM_integer@@SAXQAV1@@HPAH@Z 
01:00041FE8 ?_max@varM_integer@@SAXQAV1@@HPAH@Z 
01:00042024 ?_min@varM_integer@@SAXQAV1@@HPAH@Z 
01:00042060 ?_inc@varM_integer@@SAXQAV1@@PAH@Z 
01:00042098 ?_dec@varM_integer@@SAXQAV1@@PAH@Z 
01:000420D0 ?_setF@varM_integer@@SAXQAV1@@HPAH@Z 
01:000420E4 ?add@varM_integer@@SAXQAV1@@H@Z 
01:00042104 ?sub@varM_integer@@SAXQAV1@@H@Z 
01:00042124 ?max@varM_integer@@SAXQAV1@@H@Z 
01:00042144 ?min@varM_integer@@SAXQAV1@@H@Z 
01:00042164 ?inc@varM_integer@@SAXQAV1@@@Z 
01:00042180 ?dec@varM_integer@@SAXQAV1@@@Z 
01:0004219C ?_new@varM_integer@@SAXPAPAV1@@@Z 
01:000421C4 ?_new@varM_integer@@SAXHPAPAV1@@@Z  (Idle)
01:000421EC ?_newModel_unary@varM_integer@@SAXQAVvarM@@@HXPAPAV1@@@Z  (Idle)
01:00042218 ?_newModel_binary@varM_integer@@SAXQAVvarM@@@H0XPAPAV1@@@Z  (Idle)
01:00042248 ?new@varM_boolean@@SAXQAV1@@@Z  (Idle)
01:0004225C ?new@varM_boolean@@SAXQAV1@@PAUboolean_struct@_builtIn@@@Z 
01:00042284 ?newModel_and@varM_boolean@@SAXQAV1@@QAVvarM@@@PAUboolean_struct@_builtIn@@1@Z  (Idle)
01:000422BC ?newModel_or@varM_boolean@@SAXQAV1@@QAVvarM@@@PAUboolean_struct@_builtIn@@1@Z  (Idle)
01:000422F4 ?newModel_xor@varM_boolean@@SAXQAV1@@QAVvarM@@@PAUboolean_struct@_builtIn@@1@Z  (Idle)
01:0004232C ?newModel_not@varM_boolean@@SAXQAV1@@QAVvarM@@@PAUboolean_struct@_builtIn@@@Z  (Idle)
01:0004235C ?and_@varM_boolean@@SAXQAV1@@PAUboolean_struct@_builtIn@@@Z 
01:0004237C ?or_@varM_boolean@@SAXQAV1@@PAUboolean_struct@_builtIn@@@Z 
01:0004239C ?xor@varM_boolean@@SAXQAV1@@PAUboolean_struct@_builtIn@@@Z 
01:000423E0 ?not_@varM_boolean@@SAXQAV1@@@Z 
01:00042420 ?isTrue@varM_boolean@@SAXQAV1@@@Z 
01:00042448 ?isFalse@varM_boolean@@SAXQAV1@@@Z 
01:00042470 ?setTrue@varM_boolean@@SAXQAV1@@@Z 
01:00042484 ?setFalse@varM_boolean@@SAXQAV1@@@Z 
01:00042498 ?_new@varM_boolean@@SAXPAPAV1@@@Z  (Idle)
01:000424C0 ?_new@varM_boolean@@SAXPAUboolean_struct@_builtIn@@PAPAV1@@@Z  (Idle)
01:000424E8 ?_newModel_and@varM_boolean@@SAXQAVvarM@@@PAUboolean_struct@_builtIn@@0PAPAV1@@@Z  (Idle)
01:00042514 ?_newModel_or@varM_boolean@@SAXQAVvarM@@@PAUboolean_struct@_builtIn@@0PAPAV1@@@Z  (Idle)
01:00042540 ?_newModel_xor@varM_boolean@@SAXQAVvarM@@@PAUboolean_struct@_builtIn@@0PAPAV1@@@Z  (Idle)
01:0004256C ?_newModel_not@varM_boolean@@SAXQAVvarM@@@PAUboolean_struct@_builtIn@@PAPAV1@@@Z  (Idle)
01:00042594 ?new@varM@@SAXQAV1@@PAXQAVrTypeLibrary@TypeLibraries@RunTime@VIP@@PAX@Z 
01:000425A8 ?anonymous$o0$1$newmodel_unary/2np$varM{@Term}@varM@@SAXPAUanonymous$o0$1$newmodel_unary/2np$varM{@Term}c_struct@1/1@QAV1@@PAX@Z 
01:00042604 ?anonymous$o0$2$newmodel_unary/2np$varM{@Term}@varM@@SAXPAUanonymous$o0$2$newmodel_unary/2np$varM{@Term}c_struct@1/1@PBUhandle@@@Z 
01:00042668 ?newModel_unary@varM@@SAXQAV1@@PAXQAVrTypeLibrary@TypeLibraries@RunTime@VIP@@0X@Z 
01:00042770 ?anonymous$o0$1$newmodel_binary/3np$varM{@Term}@varM@@SAXPAUanonymous$o0$1$newmodel_binary/3np$varM{@Term}c_struct@1/1@QAV1@@PAX@Z 
01:000427E8 ?anonymous$o0$2$newmodel_binary/3np$varM{@Term}@varM@@SAXPAUanonymous$o0$2$newmodel_binary/3np$varM{@Term}c_struct@1/1@PBUhandle@@@Z 
01:00042854 ?newModel_binary@varM@@SAXQAV1@@PAXQAVrTypeLibrary@TypeLibraries@RunTime@VIP@@00X@Z 
01:000429B0 ?modified@varM@@SGQAVevent0@@@PBUhandle@@QAV1@@PAX@Z 
01:00042A1C ?_value@varM@@SAXQAV1@@PAXPAPAX@Z 
01:00042A30 ?value@varM@@SAXQAV1@@PAXPAX@Z 
01:00042A58 ?plainSet@varM@@SAXQAV1@@PAXPAX@Z 
01:00042A6C ?listenerSet@varM@@SAXQAV1@@PAXPAX@Z 
01:00042AB4 ?_new@varM@@SAXQAVrTypeLibrary@TypeLibraries@RunTime@VIP@@PAXPAPAV1@@PAPAX@Z  (Idle)
01:00042AE4 ?_newModel_unary@varM@@SAXQAVrTypeLibrary@TypeLibraries@RunTime@VIP@@QAV1@@PAXXPAPAV1@@PAPAX@Z  (Idle)
01:00042B1C ?_newModel_binary@varM@@SAXQAVrTypeLibrary@TypeLibraries@RunTime@VIP@@QAV1@@PAX1XPAPAV1@@PAPAX@Z  (Idle)
01:00042B5C ?_object_typelib_initializer@varM@@SGXQAV1@@PAXQAVrTypeLibrary@TypeLibraries@RunTime@VIP@@@Z 
01:00042B74 ?_object_facts_initializer@varM@@SGXQAV1@@PAX@Z 
01:00042C3C varM_unsigned?_initObject@@@QAGXQAV1@H@Z 
01:00042C6C ?@create_object@varM_unsigned@@SGQAV1@@XZ 
01:00042C88 varM_unsigned?_InternalFinalizer@@@QAGXQAV1@@Z 
01:00042CA0 varM_reference{@Term}?_initObject@@@QAGXQAV1@H@Z 
01:00042CC4 ?@create_object@varM_reference@@SGQAV1@@PAXQAVrTypeLibrary@TypeLibraries@RunTime@VIP@@@Z 
01:00042CE8 varM_reference{@Term}?_InternalFinalizer@@@QAGXQAV1@@Z 
01:00042D5C varM_optional{@Term}?_initObject@@@QAGXQAV1@H@Z 
01:00042DA8 ?@create_object@varM_optional@@SGQAV1@@PAXQAVrTypeLibrary@TypeLibraries@RunTime@VIP@@@Z 
01:00042DCC varM_optional{@Term}?_InternalFinalizer@@@QAGXQAV1@@Z 
01:00042E64 varM_integer?_initObject@@@QAGXQAV1@H@Z 
01:00042E94 ?@create_object@varM_integer@@SGQAV1@@XZ 
01:00042EB0 varM_integer?_InternalFinalizer@@@QAGXQAV1@@Z 
01:00042F48 varM_boolean?_initObject@@@QAGXQAV1@H@Z 
01:00042F78 ?@create_object@varM_boolean@@SGQAV1@@XZ 
01:00042F94 varM_boolean?_InternalFinalizer@@@QAGXQAV1@@Z 
01:00042FAC varM{@Term}?_initObject@@@QAGXQAV1@H@Z 
01:00042FE0 ?@create_object@varM@@SGQAV1@@PAXQAVrTypeLibrary@TypeLibraries@RunTime@VIP@@@Z 
01:00043004 varM{@Term}?_InternalFinalizer@@@QAGXQAV1@@Z 
001000:042010 0001E0   .text$mn::CODE::<no group> F=4
--- From '..\..\..\_intermediate\sourceVS\vipInit\Win32\ReleasePE\VIPMain.obj'
01:00043010 _VIPStartUp@0  (Idle)
--- From '..\..\..\_intermediate\sourceVS\vipInit\Win32\ReleasePE\VIPDll.obj'
01:00043080 ?VIPDllGetHandleModule@RunTime@VIP@@YAPAXXZ 
01:00043090 ?tryCallHook@VIPDllHook@RunTime@VIP@@QBEHPAXK0@Z 
01:000430D0 _VIPDllMain@12  (Idle)
01:000431B0 _VIPSetDllHook@4  (Idle)
--- From '..\..\..\_intermediate\sourceVS\vipInit\Win32\ReleasePE\VIPPE.obj'
01:000431D0 ?VIP_PE_Dialog@@YAXXZ 
Frame 044000   Size 000320.  Name=<  PRODBG>, 	Chars=40000040h. [IR]
044000:000000 000320   PRODBG::PRODBG::PRODBG F=4
Frame 045000   Size 02F2D0.  Name=<  .rdata>, 	Chars=40000040h. [IR]
045000:000000 00AF00   .rdata::.rdata::.rdata F=4
--- From '..\..\..\_intermediate\sourceVS\vipInit\Win32\ReleasePE\VIPDll.obj'
03:000450DC _VIPStartOfDictionary 
--- From 'Obj\runtime_api.0E79B0CD.obj'
03:00049DBC v$$_determineOSV5@runtime_api@@SAXIIPBUunsigned16@@PAPB_W@Z$systemname$1$::string  (Idle)
03:00049DC0 v$$_determineOSV5@runtime_api@@SAXIIPBUunsigned16@@PAPB_W@Z$systemname$2$::string  (Idle)
03:00049E64 v$$_determineOSV4@runtime_api@@SAXIIPBUunsigned16@@PAPB_W@Z$systemname$1$::string  (Idle)
03:0004A01C v$$_determineOSV6@runtime_api@@SAXIIPBUunsigned16@@PAPB_W@Z$edition$1$::string  (Idle)
03:0004A020 v$$_determineOSV6@runtime_api@@SAXIIPBUunsigned16@@PAPB_W@Z$edition$2$::string  (Idle)
--- From 'Obj\exception.544F7452.obj'
03:0004D138 v$$_getTrapInformationObject@exception@@SAXPBUtraceId@@PAPAVtrapInformationObject@@@@Z$externalexception$1$core::exception  (Idle)
--- From '..\..\..\_intermediate\sourceVS\vipInit\Win32\ReleasePE\VIPPE.obj'
03:0004FE50 ??_C@_0L@DLNDOIBH@Attention?$CB?$AA@ 
03:0004FE60 ??_C@_0JO@IKLJBBEK@This?5application?5is?5created?5with@ 
045000:00AF00 01A970   VIPClass::VIPClass::.rdata F=4
--- From 'Obj\main.A22FE9BF.obj'
03:0004FF00 class$_builtIn 
--- From 'Obj\varm.17B5C45B.obj'
03:0004FF24 $integer$_builtIn_class$0$domain$ 
03:0004FF44 $unsigned$_builtIn_class$0$domain$ 
--- From 'Obj\reflection.0F000252.obj'
03:0004FF64 $real$_builtIn_class$0$domain$ 
--- From 'Obj\math.724D21D5.obj'
03:0004FF90 $real32$_builtIn_class$0$domain$ 
--- From 'Obj\main.A22FE9BF.obj'
03:0004FFBC $$byte$_builtIn_class$0$domain$ 
--- From 'Obj\reflection.0F000252.obj'
03:0004FFDC $string$_builtIn_class$0$domain$ 
--- From 'Obj\main.A22FE9BF.obj'
03:0004FFF0 $symbol$_builtIn_class$0$domain$ 
--- From 'Obj\exceptiondump.174B23B9.obj'
03:00050004 $string8$_builtIn_class$0$domain$ 
--- From 'Obj\filesystem.57D9C483.obj'
03:00050018 $char$_builtIn_class$0$domain$ 
--- From 'Obj\exceptiondump.174B23B9.obj'
03:0005002C $binary$_builtIn_class$0$domain$ 
03:00050044 $binaryNonAtomic$_builtIn_class$0$domain$ 
--- From 'Obj\reflection.0F000252.obj'
03:0005005C $pointer$_builtIn_class$0$domain$ 
--- From 'Obj\varm.17B5C45B.obj'
03:00050070 $handle$_builtIn_class$0$domain$ 
--- From 'Obj\main.A22FE9BF.obj'
03:00050084 $factdb$_builtIn_class$0$domain$ 
03:00050098 $...$_builtIn_class$0$domain$ 
--- From 'Obj\exceptiondump.174B23B9.obj'
03:000500AC $integer64$_builtIn_class$0$domain$ 
03:000500D4 $unsigned64$_builtIn_class$0$domain$ 
--- From 'Obj\main.A22FE9BF.obj'
03:000500FC $any$_builtIn_class$0$domain$ 
03:00050110 $integerNative$_builtIn_class$0$domain$ 
--- From 'Obj\exceptiondump.174B23B9.obj'
03:00050130 $unsignedNative$_builtIn_class$0$domain$ 
--- From 'Obj\namedvalue.187E0B91.obj'
03:00050180 $*$_builtIn_class$1$domain$ 
--- From 'Obj\main.A22FE9BF.obj'
03:000501B0 $_someType$_builtIn_class$0$domain$ 
--- From 'Obj\varm.17B5C45B.obj'
03:000501E6 $boolean$_builtIn_class$0$domain$ 
--- From 'Obj\main.A22FE9BF.obj'
03:0005022A $compareResult$_builtIn_class$0$domain$ 
--- From 'Obj\time_api.21FCC41B.obj'
03:00050260 $$inline_1$_builtIn_class$1$domain$ 
--- From 'Obj\varm.17B5C45B.obj'
03:000504B0 class$_global 
--- From 'Obj\main.A22FE9BF.obj'
03:000504F0 class$main 
--- From 'Obj\filesystem.57D9C483.obj'
03:00050530 class$inputSupport 
03:000505F0 class$inputSupport$vtable$ 
03:00050770 class$outputSupport 
03:0005084C class$outputSupport$vtable$ 
--- From 'Obj\stream.99784C5B.obj'
03:00050A30 class$stream_exception 
03:00050AC0 class$stdioState 
03:00050B64 class$stdioState$vtable$ 
03:00050CA0 class$stdio 
03:00050D60 class$outputStream_null 
03:00050DCC class$outputStream_null$vtable$ 
03:00050F00 class$inputStream_null 
03:00050F6C class$inputStream_null$vtable$ 
--- From 'Obj\string.B0A67F43.obj'
03:000510B0 class$string_exception 
03:00051140 class$string 
03:00051186 $caseSensitivity$string_class$0$domain$ 
03:000511CE $adjustBehaviour$string_class$0$domain$ 
03:0005120A $adjustSide$string_class$0$domain$ 
03:000513C0 class$outputStream_string 
03:000517C0 class$outputStream_string$vtable$  (Idle)
03:00051D70 class$inputStream_string 
03:00052094 class$inputStream_string$vtable$  (Idle)
--- From 'Obj\string8.302F7782.obj'
03:00052290 class$string8 
--- From 'Obj\vpidomains.CE78C30C.obj'
03:00052300 class$vpiOwnerDraw 
03:00052390 class$vpiDomains 
--- From 'Obj\gui_api.5B4BA4CC.obj'
03:000523C8 $pnt$vpiDomains_class$0$domain$ 
03:00052404 $rct$vpiDomains_class$0$domain$ 
--- From 'Obj\vpidomains.CE78C30C.obj'
03:00052438 $brush$vpiDomains_class$0$domain$ 
03:00052470 $pen$vpiDomains_class$0$domain$ 
03:000524B8 $drawtools$vpiDomains_class$0$domain$ 
03:00052518 $menu$vpiDomains_class$0$domain$ 
03:00052540 $keyModifier$vpiDomains_class$0$domain$ 
03:00052588 $acceleratorKey$vpiDomains_class$0$domain$ 
03:00052628 $menuItem$vpiDomains_class$0$domain$ 
03:00052990 $event$vpiDomains_class$0$domain$ 
03:00052AC0 $controlInfo$vpiDomains_class$0$domain$ 
03:00052B64 $stateInfo$vpiDomains_class$0$domain$ 
03:00052CB4 $windef$vpiDomains_class$0$domain$ 
03:00052D0C $wdef$vpiDomains_class$0$domain$ 
03:00052D2C $errhandler$vpiDomains_class$0$domain$ 
03:00052D44 $eHandler$vpiDomains_class$0$domain$ 
03:00052D74 $accelerator$vpiDomains_class$0$domain$ 
03:00052DDC $bitmapId$vpiDomains_class$0$domain$ 
03:00052E18 $ddeserviceInfo$vpiDomains_class$0$domain$ 
03:00052E84 $ddedata$vpiDomains_class$0$domain$ 
03:00052FE8 $ddeevent$vpiDomains_class$0$domain$ 
03:0005305A $alignment$vpiDomains_class$0$domain$ 
--- From 'Obj\console_api.885E7959.obj'
03:000538F0 class$console_native 
03:00053934 $coord$console_native_class$0$domain$ 
03:000539A4 $consoleScreenBufferInfo$console_native_class$0$domain$ 
03:000539FC $key_event_record$console_native_class$0$domain$ 
03:00053A50 $mouse_event_record$console_native_class$0$domain$ 
03:00053A90 $char_info$console_native_class$0$domain$ 
03:00053ADC $small_rect$console_native_class$0$domain$ 
03:00053AFC $handlerRoutine$console_native_class$0$domain$ 
03:00053C80 class$console_api 
--- From 'Obj\exe_api.A0303A40.obj'
03:00053D10 class$exe_native 
03:00053DA0 class$exe_api 
03:00053DE6 $runMode$exe_api_class$0$domain$ 
03:00053E3A $coInit$exe_api_class$0$domain$ 
--- From 'Obj\filesystem_api.1C9354BA.obj'
03:00053F70 class$lZ_fileSystem_native 
03:00053FCC $ofStruct$lZ_fileSystem_native_class$0$domain$ 
03:000540A0 class$fileSystem_native 
03:0005412C $fileInfo$fileSystem_native_class$0$domain$ 
03:0005419C $fileAttributesInfo$fileSystem_native_class$0$domain$ 
03:00054234 $win32_find_data$fileSystem_native_class$0$domain$ 
03:00054342 $file_info_by_handle_class$fileSystem_native_class$0$domain$ 
03:000543AC $fileIOCompletionRoutine$fileSystem_native_class$0$domain$ 
03:0005440A $fileAction$fileSystem_native_class$0$domain$ 
03:00054470 $file_notify_information$fileSystem_native_class$0$domain$ 
03:000544B0 $overlapped$fileSystem_native_class$0$domain$ 
03:0005456C $openFileName$fileSystem_native_class$0$domain$ 
03:0005458C $oFNHookProc$fileSystem_native_class$0$domain$ 
03:000545B8 $uSE_INFO_0$fileSystem_native_class$0$domain$ 
03:000545E8 $$inline_260$fileSystem_native_class$1$domain$ 
03:00054618 $$inline_14$fileSystem_native_class$1$domain$ 
03:00054CA0 class$fileSystem_api 
03:00054D2E $fileAttributeAtom$fileSystem_api_class$0$domain$ 
03:00054D9A $accessPermit$fileSystem_api_class$0$domain$ 
--- From 'Obj\gui_api.5B4BA4CC.obj'
03:00055200 class$gui_native 
03:00055294 $logfont$gui_native_class$0$domain$ 
03:000552D0 $mouseMovePoint$gui_native_class$0$domain$ 
03:000552F0 $enumDesktopProc$gui_native_class$0$domain$ 
03:00055308 $enumWindowStationProc$gui_native_class$0$domain$ 
03:00055338 $copyDataStruct$gui_native_class$0$domain$ 
03:00055374 $trackMouseEvent$gui_native_class$0$domain$ 
03:000553D4 $msg$gui_native_class$0$domain$ 
03:000553F4 $sendAsyncProc$gui_native_class$0$domain$ 
03:0005540C $wndProc$gui_native_class$0$domain$ 
03:00055460 $wndClassEx$gui_native_class$0$domain$ 
03:000554BC $createstruct$gui_native_class$0$domain$ 
03:000554FC $flashInfo$gui_native_class$0$domain$ 
03:00055544 $windowPos$gui_native_class$0$domain$ 
03:000555B4 $windowPlacement$gui_native_class$0$domain$ 
03:00055634 $windowInfo$gui_native_class$0$domain$ 
03:00055690 $monitorInfo$gui_native_class$0$domain$ 
03:000556F8 $monitorInfoEx$gui_native_class$0$domain$ 
03:00055718 $monitorEnumProc$gui_native_class$0$domain$ 
03:0005576C $dlgTemplate$gui_native_class$0$domain$ 
03:000557C8 $dlgItemTemplate$gui_native_class$0$domain$ 
03:00055878 $dlgTemplateEx$gui_native_class$0$domain$ 
03:00055898 $timerProc$gui_native_class$0$domain$ 
03:000558D4 $accel$gui_native_class$0$domain$ 
03:00055930 $menuItemInfo$gui_native_class$0$domain$ 
03:00055970 $drawTextParams$gui_native_class$0$domain$ 
03:00055990 $grayStringProc$gui_native_class$0$domain$ 
03:000559A8 $drawStateProc$gui_native_class$0$domain$ 
03:000559D4 $size$gui_native_class$0$domain$ 
03:00055A80 $textmetric$gui_native_class$0$domain$ 
03:00055AE8 $paintStruct$gui_native_class$0$domain$ 
03:00055B08 $propEnumProc$gui_native_class$0$domain$ 
03:00055B60 $helpInfo$gui_native_class$0$domain$ 
03:00055B80 $wndEnumProc$gui_native_class$0$domain$ 
03:00055BBA $gaFlags$gui_native_class$0$domain$ 
03:00055BE0 $hookProc$gui_native_class$0$domain$ 
03:00055C18 $kbdllhookstruct$gui_native_class$0$domain$ 
03:00055C58 $iconInfo$gui_native_class$0$domain$ 
03:00055CA4 $buttonImageList$gui_native_class$0$domain$ 
03:00055CC4 $button_imageList_align$gui_native_class$0$domain$ 
03:00055D0C $nmBcHotItem$gui_native_class$0$domain$ 
03:00055D60 $button_splitInfo$gui_native_class$0$domain$ 
03:00055DB0 $nmBcDropdown$gui_native_class$0$domain$ 
03:00055DE8 $nmhdr$gui_native_class$0$domain$ 
03:00055E54 $nmCustomDraw$gui_native_class$0$domain$ 
03:00055E9C $scrollInfo$gui_native_class$0$domain$ 
03:00055F20 $scrollBarInfo$gui_native_class$0$domain$ 
03:00055F58 $logbrush$gui_native_class$0$domain$ 
03:00055FA0 $tcItem$gui_native_class$0$domain$ 
03:00055FD4 $tagInitCommonControlsEx$gui_native_class$0$domain$ 
03:00056014 $logPalette$gui_native_class$0$domain$ 
03:00056058 $mouseInput$gui_native_class$0$domain$ 
03:000560A8 $keybdInput$gui_native_class$0$domain$ 
03:000560EC $hardwareInput$gui_native_class$0$domain$ 
03:0005610C $inputUnion$gui_native_class$0$domain$ 
03:00056158 $input$gui_native_class$0$domain$ 
03:000561C8 $toolinfo$gui_native_class$0$domain$ 
03:00056230 $nmttdispInfo$gui_native_class$0$domain$ 
03:0005627C $blendFunction$gui_native_class$0$domain$ 
03:000562E4 $chooseFont$gui_native_class$0$domain$ 
03:00056388 $printdlg$gui_native_class$0$domain$ 
03:00056408 $printdlgEx$gui_native_class$0$domain$ 
03:00056448 $inputUnion_mi$gui_native_class$0$domain$ 
03:00056488 $inputUnion_ki$gui_native_class$0$domain$ 
03:000564C8 $inputUnion_hi$gui_native_class$0$domain$ 
03:000564F8 $$inline_32$gui_native_class$1$domain$ 
03:00056528 $$inline_256$gui_native_class$1$domain$ 
03:00056558 $$inline_80$gui_native_class$1$domain$ 
03:00056CD0 class$gui_api 
03:00056D14 $scrollInfo$gui_api_class$0$domain$ 
03:00056D54 $windowPlacement$gui_api_class$0$domain$ 
03:00056DE0 $dlgTemplate$gui_api_class$0$domain$ 
03:00056E44 $varArray$gui_api_class$0$domain$ 
03:00056EC4 $dlgItemTemplate$gui_api_class$0$domain$ 
03:00056F00 $monitorInfo$gui_api_class$0$domain$ 
--- From 'Obj\locale_api.25A9E29D.obj'
03:00057100 class$locale_native 
03:00057124 $stdBoolFunc$locale_native_class$1$domain$ 
03:0005713C $stdBoolFunc$locale_native_class$2$domain$ 
03:00057154 $stdBoolFunc$locale_native_class$4$domain$ 
03:0005716C $stdBoolFunc$locale_native_class$5$domain$ 
03:000571A8 $numberfmt$locale_native_class$0$domain$ 
03:00057270 class$locale_api 
--- From 'Obj\memory_api.072B3D5C.obj'
03:00057300 class$memory_native 
03:0005734C $memory_basic_information$memory_native_class$0$domain$ 
03:000573B4 $memoryStatusEx$memory_native_class$0$domain$ 
03:000574A0 class$memory_api 
--- From 'Obj\multithread_api.6DC4E6F9.obj'
03:00057530 class$multiThread_native 
03:00057554 $timerAPCProc$multiThread_native_class$0$domain$ 
03:000575EC $startupInfo$multiThread_native_class$0$domain$ 
03:00057628 $processInformation$multiThread_native_class$0$domain$ 
03:00057648 $threadRunnable$multiThread_native_class$0$domain$ 
03:00057684 $critical_section$multiThread_native_class$0$domain$ 
03:000576C4 $m128A$multiThread_native_class$0$domain$ 
03:0005771C $selectorEntry$multiThread_native_class$0$domain$ 
03:0005776C $cache_descriptor$multiThread_native_class$0$domain$ 
03:000577C4 $system_logical_processor_information$multiThread_native_class$0$domain$ 
03:000579A0 class$multiThread_api 
--- From 'Obj\registry_api.0E78C5E3.obj'
03:00057B00 class$registry_native 
03:00057B3C $securityAttr$registry_native_class$0$domain$ 
03:00057C00 class$registry_api 
--- From 'Obj\runtime_api.0E79B0CD.obj'
03:00057CA0 class$runtime_api 
--- From 'Obj\shell_api.D9156D40.obj'
03:00057DF0 class$shell_native 
03:00057E5C $shellExecuteInfo$shell_native_class$0$domain$ 
03:00057EBC $appBarData$shell_native_class$0$domain$ 
--- From 'Obj\filesystem.57D9C483.obj'
03:00057F08 $shFileOpStruct$shell_native_class$0$domain$ 
--- From 'Obj\shell_api.D9156D40.obj'
03:00057F44 $sHNameMapping$shell_native_class$0$domain$ 
03:00057F88 $shQueryRBinfo$shell_native_class$0$domain$ 
03:00058034 $notifyIcondata$shell_native_class$0$domain$ 
03:00058094 $sHFileInfo$shell_native_class$0$domain$ 
--- From 'Obj\filesystem.57D9C483.obj'
03:000580E0 $browseinfo$shell_native_class$0$domain$ 
--- From 'Obj\shell_api.D9156D40.obj'
03:00058100 $browseCallbackProc$shell_native_class$0$domain$ 
03:00058176 $shard$shell_native_class$0$domain$ 
03:000581C0 $$inline_128$shell_native_class$1$domain$ 
03:000581F0 $$inline_256$shell_native_class$1$domain$ 
03:00058220 $$inline_64$shell_native_class$1$domain$ 
03:00058250 $$inline_260$shell_native_class$1$domain$ 
03:00058280 $$inline_80$shell_native_class$1$domain$ 
03:00058580 class$shell_api 
--- From 'Obj\string_api.5221196E.obj'
03:00058610 class$string_native 
--- From 'Obj\string8_api.41F368A6.obj'
03:000586B0 class$string8_native 
03:00058750 class$string8_api 
--- From 'Obj\systeminformation_api.2DB6162F.obj'
03:000587E0 class$systemInformation_native 
03:00058858 $system_Info$systemInformation_native_class$0$domain$ 
03:000588B8 $osVersionInfo$systemInformation_native_class$0$domain$ 
03:00058934 $osVersionInfoEX$systemInformation_native_class$0$domain$ 
03:000589E8 $nonclientMetricsXP$systemInformation_native_class$0$domain$ 
03:00058AA4 $nonclientMetrics$systemInformation_native_class$0$domain$ 
03:00058AD4 $$inline_128$systemInformation_native_class$1$domain$ 
03:00058C60 class$systemInformation_api 
--- From 'Obj\time_api.21FCC41B.obj'
03:00058DC0 class$time_native 
03:00058E28 $systemTime$time_native_class$0$domain$ 
03:00058EA4 $timeZoneAPI$time_native_class$0$domain$ 
03:00058ED8 $fileTime$time_native_class$0$domain$ 
03:00058F38 $reg_tzi_format$time_native_class$0$domain$ 
03:00058F68 $$inline_32$time_native_class$1$domain$ 
03:00059070 class$time_api 
--- From 'Obj\windowsapi.901E9509.obj'
03:000590F0 class$windowsAPI 
03:00059150 $security_descriptor$windowsAPI_class$0$domain$ 
03:000591A0 $acl$windowsAPI_class$0$domain$ 
03:000591D8 $security_attributes$windowsAPI_class$0$domain$ 
--- From 'Obj\exe.3A8A8F5C.obj'
03:000592A0 class$mainExe 
--- From 'Obj\binary.9C7C16C6.obj'
03:00059390 class$outputStream_binary 
03:00059658 class$outputStream_binary$vtable$  (Idle)
03:000598B0 class$inputStream_binary 
03:00059BC8 class$inputStream_binary$vtable$  (Idle)
03:00059DC0 class$binary_exception 
03:00059E50 class$binary 
--- From 'Obj\boolean.CB308F06.obj'
03:00059EB0 class$boolean 
--- From 'Obj\redblackset.314226AB.obj'
03:00059F20 class$redBlackSet 
--- From 'Obj\setm_redblack.F3ED8D4F.obj'
03:00059F60 $set$redBlackSet_class$1$domain$ 
--- From 'Obj\redblackset.314226AB.obj'
03:00059FD4 $setRep$redBlackSet_class$1$domain$ 
--- From 'Obj\mapm_redblack.D48B3F53.obj'
03:0005A180 class$mapM_redBlack{@Key,@Data} 
03:0005A608 class$mapM_redBlack{@Key,@Data}$vtable$  (Idle)
--- From 'Obj\setm_redblack.F3ED8D4F.obj'
03:0005A980 class$setM_redBlack{@Type} 
03:0005ABE4 class$setM_redBlack{@Type}$vtable$  (Idle)
--- From 'Obj\mapmsupport.59EA0039.obj'
03:0005AE80 class$collectionSupportM\collectionMsupport{@Type} 
03:0005AFA0 class$collectionSupportM\collectionMsupport{@Type}$vtable$ 
--- From 'Obj\arraym_inline.5CB777DB.obj'
03:0005B190 class$collectionSupportM\mapMSupport{@Key,@Data} 
03:0005B354 class$collectionSupportM\mapMSupport{@Key,@Data}$vtable$ 
--- From 'Obj\console.043C10C8.obj'
03:0005B5F0 class$outputStream_console 
03:0005B864 class$outputStream_console$vtable$  (Idle)
03:0005BAC0 class$inputStream_console 
03:0005BE70 class$inputStream_console$vtable$  (Idle)
03:0005C0F0 class$console 
03:0005C1AC $event$console_class$0$domain$ 
--- From 'Obj\core.4BC2D97D.obj'
03:0005C3F0 class$core 
03:0005C420 $unit$core_class$0$domain$ 
03:0005C440 $unsigned8$core_class$0$domain$ 
03:0005C460 $unsigned16$core_class$0$domain$ 
--- From 'Obj\memory.9BD3BF38.obj'
03:0005C494 $unsigned64_struct$core_class$0$domain$ 
--- From 'Obj\core.4BC2D97D.obj'
03:0005C4B4 $integer8$core_class$0$domain$ 
03:0005C4D4 $integer16$core_class$0$domain$ 
--- From 'Obj\memory.9BD3BF38.obj'
03:0005C508 $integer64_struct$core_class$0$domain$ 
--- From 'Obj\registry.88C8A89A.obj'
03:0005C53C $namedValue$core_class$0$domain$ 
--- From 'Obj\core.4BC2D97D.obj'
03:0005C55C $classInfo$core_class$0$domain$ 
03:0005C58C $exception$core_class$0$domain$ 
03:0005C600 $nativeGuid$core_class$0$domain$ 
03:0005C620 $byteCountOptional$core_class$0$domain$ 
--- From 'Obj\filesystem.57D9C483.obj'
03:0005C640 $byteCount$core_class$0$domain$ 
--- From 'Obj\core.4BC2D97D.obj'
03:0005C660 $charCountOptional$core_class$0$domain$ 
03:0005C680 $charCount$core_class$0$domain$ 
--- From 'Obj\reflection.0F000252.obj'
03:0005C6A0 $positiveOptional$core_class$0$domain$ 
--- From 'Obj\arraym_inline.5CB777DB.obj'
03:0005C6C0 $positive$core_class$0$domain$ 
03:0005C6F4 $tuple$core_class$2$domain$ 
--- From 'Obj\list.1520BD2B.obj'
03:0005C72C $tuple$core_class$3$domain$ 
03:0005C768 $tuple$core_class$4$domain$ 
03:0005C7A8 $tuple$core_class$5$domain$ 
03:0005C7EC $tuple$core_class$6$domain$ 
03:0005C834 $tuple$core_class$7$domain$ 
03:0005C880 $tuple$core_class$8$domain$ 
03:0005C8D0 $tuple$core_class$9$domain$ 
03:0005C924 $tuple$core_class$10$domain$ 
03:0005C97C $tuple$core_class$11$domain$ 
03:0005C9D8 $tuple$core_class$12$domain$ 
--- From 'Obj\varm.17B5C45B.obj'
03:0005CA24 $optional$core_class$1$domain$ 
--- From 'Obj\core.4BC2D97D.obj'
03:0005CA78 $either$core_class$2$domain$ 
03:0005CA9C $function$core_class$1$domain$ 
03:0005CAB4 $function$core_class$2$domain$ 
03:0005CACC $function$core_class$3$domain$ 
03:0005CAE4 $function$core_class$4$domain$ 
03:0005CAFC $function$core_class$5$domain$ 
03:0005CB14 $function$core_class$6$domain$ 
03:0005CB2C $function$core_class$7$domain$ 
03:0005CB44 $function$core_class$8$domain$ 
03:0005CB5C $function$core_class$9$domain$ 
03:0005CB74 $function$core_class$10$domain$ 
03:0005CB8C $function$core_class$11$domain$ 
03:0005CBA4 $function_dt$core_class$1$domain$ 
03:0005CBBC $function_dt$core_class$2$domain$ 
03:0005CBD4 $function_dt$core_class$3$domain$ 
03:0005CBEC $function_dt$core_class$4$domain$ 
03:0005CC04 $function_dt$core_class$5$domain$ 
03:0005CC1C $function_dt$core_class$6$domain$ 
03:0005CC34 $function_dt$core_class$7$domain$ 
03:0005CC4C $function_dt$core_class$8$domain$ 
03:0005CC64 $function_dt$core_class$9$domain$ 
03:0005CC7C $function_dt$core_class$10$domain$ 
03:0005CC94 $function_dt$core_class$11$domain$ 
03:0005CCAC $function_nd$core_class$1$domain$ 
03:0005CCC4 $function_nd$core_class$2$domain$ 
03:0005CCDC $function_nd$core_class$3$domain$ 
03:0005CCF4 $function_nd$core_class$4$domain$ 
03:0005CD0C $function_nd$core_class$5$domain$ 
03:0005CD24 $function_nd$core_class$6$domain$ 
03:0005CD3C $function_nd$core_class$7$domain$ 
03:0005CD54 $function_nd$core_class$8$domain$ 
03:0005CD6C $function_nd$core_class$9$domain$ 
03:0005CD84 $function_nd$core_class$10$domain$ 
03:0005CD9C $function_nd$core_class$11$domain$ 
03:0005CDB4 $predicate$core_class$0$domain$ 
03:0005CDCC $predicate$core_class$1$domain$ 
03:0005CDE4 $predicate$core_class$2$domain$ 
03:0005CDFC $predicate$core_class$3$domain$ 
03:0005CE14 $predicate$core_class$4$domain$ 
03:0005CE2C $predicate$core_class$5$domain$ 
03:0005CE44 $predicate$core_class$6$domain$ 
03:0005CE5C $predicate$core_class$7$domain$ 
03:0005CE74 $predicate$core_class$8$domain$ 
03:0005CE8C $predicate$core_class$9$domain$ 
03:0005CEA4 $predicate$core_class$10$domain$ 
03:0005CEBC $predicate_dt$core_class$0$domain$ 
03:0005CED4 $predicate_dt$core_class$1$domain$ 
03:0005CEEC $predicate_dt$core_class$2$domain$ 
03:0005CF04 $predicate_dt$core_class$3$domain$ 
03:0005CF1C $predicate_dt$core_class$4$domain$ 
03:0005CF34 $predicate_dt$core_class$5$domain$ 
03:0005CF4C $predicate_dt$core_class$6$domain$ 
03:0005CF64 $predicate_dt$core_class$7$domain$ 
03:0005CF7C $predicate_dt$core_class$8$domain$ 
03:0005CF94 $predicate_dt$core_class$9$domain$ 
03:0005CFAC $predicate_dt$core_class$10$domain$ 
03:0005CFC4 $predicate_nd$core_class$0$domain$ 
03:0005CFDC $predicate_nd$core_class$1$domain$ 
03:0005CFF4 $predicate_nd$core_class$2$domain$ 
03:0005D00C $predicate_nd$core_class$3$domain$ 
03:0005D024 $predicate_nd$core_class$4$domain$ 
03:0005D03C $predicate_nd$core_class$5$domain$ 
03:0005D054 $predicate_nd$core_class$6$domain$ 
03:0005D06C $predicate_nd$core_class$7$domain$ 
03:0005D084 $predicate_nd$core_class$8$domain$ 
03:0005D09C $predicate_nd$core_class$9$domain$ 
03:0005D0B4 $predicate_nd$core_class$10$domain$ 
03:0005D0CC $comparator$core_class$1$domain$ 
03:0005D0E4 $comparator$core_class$2$domain$ 
03:0005D112 $sortOrder$core_class$0$domain$ 
--- From 'Obj\registry.88C8A89A.obj'
03:0005D2C8 $value$core_class$0$domain$ 
--- From 'Obj\core.4BC2D97D.obj'
03:0005D340 $sourceCursor$core_class$0$domain$ 
--- From 'Obj\exceptiondump.174B23B9.obj'
03:0005D378 $programPoint$core_class$0$domain$ 
--- From 'Obj\core.4BC2D97D.obj'
03:0005D3AE $allowBoolean$core_class$0$domain$ 
03:0005D3E6 $defaultActionBoolean$core_class$0$domain$ 
--- From 'Obj\exception.544F7452.obj'
03:0005D8E0 class$runtime_exception 
03:0005D970 class$exception_exception 
03:0005DA10 class$exception 
--- From 'Obj\exceptiondump.174B23B9.obj'
03:0005DA4A $kind$exception_class$0$domain$ 
--- From 'Obj\exception.544F7452.obj'
03:0005DA84 $programPointDescriptor$exception_class$0$domain$ 
--- From 'Obj\exceptiondump.174B23B9.obj'
03:0005DAE4 $descriptor$exception_class$0$domain$ 
03:0005DB2C $traceInfo$exception_class$0$domain$ 
03:0005DB84 $lineInfo$exception_class$0$domain$ 
--- From 'Obj\exception.544F7452.obj'
03:0005DCA0 class$errorDescriptorInformation 
03:0005DDBC class$errorDescriptorInformation$vtable$ 
--- From 'Obj\exceptiondump.174B23B9.obj'
03:0005DFB0 class$exceptionDump 
--- From 'Obj\filesystem.57D9C483.obj'
03:0005E050 class$outputStream_file 
03:0005E330 class$outputStream_file$vtable$  (Idle)
03:0005E580 class$messageFile 
03:0005E71C class$messageFile$vtable$ 
03:0005EB90 class$inputStream_file 
03:0005EFD8 class$inputStream_file$vtable$  (Idle)
03:0005F2C0 class$fileVersion 
03:0005F300 $versionInformation$fileVersion_class$0$domain$ 
03:0005F34C $fileVersionInformation$fileVersion_class$0$domain$ 
03:0005F5E0 class$fileSystem_exception 
03:0005F680 class$filename 
03:0005F6F0 class$file 
03:0005F742 $overwrite$file_class$0$domain$ 
03:0005F7F0 class$directory 
03:0005F85A $volumeType$directory_class$0$domain$ 
--- From 'Obj\list.1520BD2B.obj'
03:0005F940 class$list 
--- From 'Obj\math.724D21D5.obj'
03:00060260 class$math_exception 
03:000602E0 class$math 
03:00060304 $inCircle$math_class$0$domain$ 
03:00060330 $aPeriod$math_class$0$domain$ 
03:0006035C $uReal$math_class$0$domain$ 
--- From 'Obj\memory.9BD3BF38.obj'
03:000603F0 class$weakReference{@Type} 
03:000604B4 class$weakReference{@Type}$vtable$ 
03:00060600 class$weakPointer 
03:00060708 class$weakPointer$vtable$ 
03:00060820 class$memory 
03:00060860 $contextMap$memory_class$0$domain$ 
03:000608A2 $memoryKind$memory_class$0$domain$ 
03:000608D8 $pBinary$memory_class$0$domain$ 
03:00060908 $pBinaryNonAtomic$memory_class$0$domain$ 
03:00060938 $pByteCount$memory_class$0$domain$ 
03:00060970 $pChar$memory_class$0$domain$ 
03:000609A8 $pChar8$memory_class$0$domain$ 
03:000609D8 $pCharCount$memory_class$0$domain$ 
03:00060A08 $pHandle$memory_class$0$domain$ 
03:00060A38 $pInteger$memory_class$0$domain$ 
03:00060A70 $pInteger16$memory_class$0$domain$ 
03:00060AA8 $pInteger64$memory_class$0$domain$ 
03:00060AE0 $pInteger8$memory_class$0$domain$ 
03:00060B10 $pIntegerNative$memory_class$0$domain$ 
03:00060B40 $pObject$memory_class$0$domain$ 
03:00060B70 $pPointer$memory_class$0$domain$ 
03:00060BA8 $pReal$memory_class$0$domain$ 
03:00060BD8 $pReal32$memory_class$0$domain$ 
03:00060C08 $pString$memory_class$0$domain$ 
03:00060C38 $pString8$memory_class$0$domain$ 
03:00060C68 $pUnsigned$memory_class$0$domain$ 
03:00060CA0 $pUnsigned16$memory_class$0$domain$ 
03:00060CD8 $pUnsigned64$memory_class$0$domain$ 
03:00060D10 $pUnsigned8$memory_class$0$domain$ 
03:00060D40 $pUnsignedNative$memory_class$0$domain$ 
03:00060FE0 class$bit 
03:00061004 $unsigned4$bit_class$0$domain$ 
--- From 'Obj\namedvalue.187E0B91.obj'
03:000610F0 class$namedValue 
--- From 'Obj\programcontrol.5D08C78A.obj'
03:00061170 class$programControl 
03:00061194 $exceptionRaiser$programControl_class$0$domain$ 
--- From 'Obj\registry.88C8A89A.obj'
03:00061280 class$registry_exception 
03:00061310 class$registry 
03:00061386 $rootKey$registry_class$0$domain$ 
03:000613DE $registryView$registry_class$0$domain$ 
--- From 'Obj\std.1C7A9F9B.obj'
03:00061570 class$std 
--- From 'Obj\redblacktree.C0378524.obj'
03:000615C0 class$redBlackTree 
03:0006160C $tree$redBlackTree_class$2$domain$ 
03:00061688 $treeRep$redBlackTree_class$2$domain$ 
03:000616C6 $uniqueKey$redBlackTree_class$0$domain$ 
03:000616FC $treeProperty$redBlackTree_class$1$domain$ 
--- From 'Obj\collectionsupport.6DAD372D.obj'
03:000619E0 class$collectionSupport\collectionSupport{@Type} 
03:00061A88 class$collectionSupport\collectionSupport{@Type}$vtable$ 
--- From 'Obj\arraym_inline.5CB777DB.obj'
03:00061C30 class$arrayM_inlineValue{@ItemType} 
03:000620E8 class$arrayM_inlineValue{@ItemType}$vtable$  (Idle)
03:000624B0 class$arrayM_inline{@ItemType} 
03:00062954 class$arrayM_inline{@ItemType}$vtable$  (Idle)
--- From 'Obj\event.35BDD536.obj'
03:00062D00 class$event7{@Source,@Type1,@Type2,@Type3,@Type4,@Type5,@Type6,@Type7} 
03:000631B0 class$event7{@Source,@Type1,@Type2,@Type3,@Type4,@Type5,@Type6,@Type7}$vtable$ 
03:00064020 class$event6{@Source,@Type1,@Type2,@Type3,@Type4,@Type5,@Type6} 
03:00064424 class$event6{@Source,@Type1,@Type2,@Type3,@Type4,@Type5,@Type6}$vtable$ 
03:00065020 class$event5{@Source,@Type1,@Type2,@Type3,@Type4,@Type5} 
03:00065384 class$event5{@Source,@Type1,@Type2,@Type3,@Type4,@Type5}$vtable$ 
03:00065D50 class$event4{@Source,@Type1,@Type2,@Type3,@Type4} 
03:00066080 class$event4{@Source,@Type1,@Type2,@Type3,@Type4}$vtable$ 
03:00066970 class$event3{@Source,@Type1,@Type2,@Type3} 
03:00066C6C class$event3{@Source,@Type1,@Type2,@Type3}$vtable$ 
03:00067490 class$event2{@Source,@Type1,@Type2} 
03:00067758 class$event2{@Source,@Type1,@Type2}$vtable$ 
03:00067EB0 class$event1{@Source,@Type1} 
03:00068144 class$event1{@Source,@Type1}$vtable$ 
03:000687D0 class$event0{@Source} 
03:00068A30 class$event0{@Source}$vtable$ 
--- From 'Obj\reflection.0F000252.obj'
03:00068FE0 class$pfc\reflection\reflection_native 
03:00069018 $anyTermValue$pfc\reflection\reflection_native_class$0$domain$ 
03:0006904C $factDbValue$pfc\reflection\reflection_native_class$0$domain$ 
03:00069080 $prologPredicateValue$pfc\reflection\reflection_native_class$0$domain$ 
03:00069190 class$pfc\reflection\reflection 
03:000692D2 $typeKind$pfc\reflection\reflection_class$0$domain$ 
03:00069392 $predicateMode$pfc\reflection\reflection_class$0$domain$ 
03:000693C4 $functor$pfc\reflection\reflection_class$0$domain$ 
03:0006942A $callingConvention$pfc\reflection\reflection_class$0$domain$ 
--- From 'Obj\varm.17B5C45B.obj'
03:00069900 class$varM_unsigned 
03:000699D4 class$varM_unsigned$vtable$ 
03:00069AC0 class$varM_reference{@Term} 
03:00069AFC $reference$varM_reference{@Term}_class$0$domain$ 
03:00069B98 class$varM_reference{@Term}$vtable$ 
03:00069CE0 class$varM_optional{@Term} 
03:00069DD0 class$varM_optional{@Term}$vtable$ 
03:00069EF0 class$varM_integer 
03:00069FC4 class$varM_integer$vtable$ 
03:0006A0A0 class$varM_boolean 
03:0006A174 class$varM_boolean$vtable$ 
03:0006A240 class$varM{@Term} 
03:0006A460 class$varM{@Term}$vtable$ 
045000:025870 0020E0   VIPTypeL::VIPTypeL::.rdata F=4
--- From 'Obj\reflection.0F000252.obj'
03:0006A870 $string$_builtIn_class$0$domain$$type_library$ 
03:0006A880 $object$_global_class$0$domain$$type_library$ 
--- From 'Obj\std.1C7A9F9B.obj'
03:0006A890 $disposable$_global_class$0$domain$$type_library$ 
03:0006A8A0 $runtimeLinknamesKernel$_global_class$0$domain$$type_library$ 
03:0006A8B0 $runtimeLinkNamesRun$_global_class$0$domain$$type_library$ 
--- From 'Obj\core.4BC2D97D.obj'
03:0006A8C0 $bufferSupport$_global_class$0$domain$$type_library$ 
03:0006A8D0 $offsetPtr$bufferSupport_interface$0$domain$$type_library$ 
03:0006A8E0 $inputStream$_global_class$0$domain$$type_library$ 
03:0006A8F0 $outputStream$_global_class$0$domain$$type_library$ 
03:0006A900 $outputSerializer$outputStream_interface$0$domain$$type_library$ 
03:0006A910 $stdioState$_global_class$0$domain$$type_library$ 
03:0006A920 $stream$_global_class$0$domain$$type_library$ 
--- From 'Obj\filesystem.57D9C483.obj'
03:0006A930 $mode$stream_interface$0$domain$$type_library$ 
--- From 'Obj\event.35BDD536.obj'
03:0006A940 $listener$event0{@Source}_interface$0$domain$$type_library$ 
03:0006A950 $listener$event1{@Source,@Type1}_interface$0$domain$$type_library$ 
03:0006A960 $listener$event2{@Source,@Type1,@Type2}_interface$0$domain$$type_library$ 
03:0006A970 $listener$event3{@Source,@Type1,@Type2,@Type3}_interface$0$domain$$type_library$ 
03:0006A980 $listener$event4{@Source,@Type1,@Type2,@Type3,@Type4}_interface$0$domain$$type_library$ 
03:0006A990 $listener$event5{@Source,@Type1,@Type2,@Type3,@Type4,@Type5}_interface$0$domain$$type_library$ 
03:0006A9A0 $listener$event6{@Source,@Type1,@Type2,@Type3,@Type4,@Type5,@Type6}_interface$0$domain$$type_library$ 
03:0006A9B0 $listener$event7{@Source,@Type1,@Type2,@Type3,@Type4,@Type5,@Type6,@Type7}_interface$0$domain$$type_library$ 
--- From 'Obj\core.4BC2D97D.obj'
03:0006A9C0 $weakPointer$_global_class$0$domain$$type_library$ 
--- From 'Obj\exception.544F7452.obj'
03:0006A9D0 $errorDescriptorInformation$_global_class$0$domain$$type_library$ 
--- From 'Obj\core.4BC2D97D.obj'
03:0006A9E0 $trapInformationObject$_global_class$0$domain$$type_library$ 
--- From 'Obj\varm.17B5C45B.obj'
03:0006A9F0 $integer$_builtIn_class$0$domain$$type_library$ 
03:0006AA00 $unsigned$_builtIn_class$0$domain$$type_library$ 
--- From 'Obj\memory.9BD3BF38.obj'
03:0006AA10 $real$_builtIn_class$0$domain$$type_library$ 
03:0006AA20 $real32$_builtIn_class$0$domain$$type_library$ 
--- From 'Obj\main.A22FE9BF.obj'
03:0006AA30 $$byte$_builtIn_class$0$domain$$type_library$ 
03:0006AA40 $symbol$_builtIn_class$0$domain$$type_library$ 
--- From 'Obj\memory.9BD3BF38.obj'
03:0006AA50 $string8$_builtIn_class$0$domain$$type_library$ 
03:0006AA60 $char$_builtIn_class$0$domain$$type_library$ 
03:0006AA70 $binary$_builtIn_class$0$domain$$type_library$ 
03:0006AA80 $binaryNonAtomic$_builtIn_class$0$domain$$type_library$ 
--- From 'Obj\reflection.0F000252.obj'
03:0006AA90 $pointer$_builtIn_class$0$domain$$type_library$ 
--- From 'Obj\varm.17B5C45B.obj'
03:0006AAA0 $handle$_builtIn_class$0$domain$$type_library$ 
--- From 'Obj\filesystem.57D9C483.obj'
03:0006AAB0 $factdb$_builtIn_class$0$domain$$type_library$ 
03:0006AAC0 $...$_builtIn_class$0$domain$$type_library$ 
--- From 'Obj\memory.9BD3BF38.obj'
03:0006AAD0 $integer64$_builtIn_class$0$domain$$type_library$ 
03:0006AAE0 $unsigned64$_builtIn_class$0$domain$$type_library$ 
--- From 'Obj\main.A22FE9BF.obj'
03:0006AAF0 $any$_builtIn_class$0$domain$$type_library$ 
--- From 'Obj\memory.9BD3BF38.obj'
03:0006AB00 $integerNative$_builtIn_class$0$domain$$type_library$ 
03:0006AB10 $unsignedNative$_builtIn_class$0$domain$$type_library$ 
--- From 'Obj\main.A22FE9BF.obj'
03:0006AB20 $_someType$_builtIn_class$0$domain$$type_library$ 
--- From 'Obj\varm.17B5C45B.obj'
03:0006AB30 $boolean$_builtIn_class$0$domain$$type_library$ 
--- From 'Obj\main.A22FE9BF.obj'
03:0006AB40 $compareResult$_builtIn_class$0$domain$$type_library$ 
--- From 'Obj\filesystem.57D9C483.obj'
03:0006AB50 $inputBuffer$_global_class$0$domain$$type_library$ 
03:0006AB60 $inputSupport$_global_class$0$domain$$type_library$ 
03:0006AB70 $outputBuffer$_global_class$0$domain$$type_library$ 
03:0006AB80 $outputSupport$_global_class$0$domain$$type_library$ 
--- From 'Obj\inputstreamsupport.7C36EDAA.obj'
03:0006AB90 $inputSupport@objectDB$inputSupport_implement$0$domain$$type_library$ 
--- From 'Obj\varm.17B5C45B.obj'
03:0006ABA0 $predicate$core_class$1$domain$$type_library$ 
--- From 'Obj\core.4BC2D97D.obj'
03:0006ABB0 $outputStream_string$_global_class$0$domain$$type_library$ 
03:0006ABC0 $contentsChangedListener$outputStream_string_interface$0$domain$$type_library$ 
--- From 'Obj\outputstreamsupport.024B29AC.obj'
03:0006ABD0 $outputSupport@objectDB$outputSupport_implement$0$domain$$type_library$ 
--- From 'Obj\stream.99784C5B.obj'
03:0006ABE0 $stdioState@objectDB$stdioState_implement$0$domain$$type_library$ 
03:0006ABF0 $stdio@classDB$stdio_implement$0$domain$$type_library$ 
03:0006AC00 $outputStream_null@classDB$outputStream_null_implement$0$domain$$type_library$ 
03:0006AC10 $inputStream_null@classDB$inputStream_null_implement$0$domain$$type_library$ 
--- From 'Obj\string.B0A67F43.obj'
03:0006AC20 $tuple$core_class$2$domain$$type_library$2$EA1C4A82${::real,::string}$ 
--- From 'Obj\arraym_inline.5CB777DB.obj'
03:0006AC30 $positive$core_class$0$domain$$type_library$ 
--- From 'Obj\string.B0A67F43.obj'
03:0006AC40 $caseSensitivity$string_class$0$domain$$type_library$ 
03:0006AC50 $adjustBehaviour$string_class$0$domain$$type_library$ 
03:0006AC60 $adjustSide$string_class$0$domain$$type_library$ 
03:0006AC70 $oneSymbolString$string_implement$0$domain$$type_library$ 
03:0006AC80 $outputStream_string@objectDB$outputStream_string_implement$0$domain$$type_library$ 
03:0006AC90 $anonymous$c0$1$getstring/2nf$outputStream_string$outputStream_string_implement$0$domain$$type_library$ 
03:0006ACA0 $anonymous$c0$1$getstring/3nf$outputStream_string$outputStream_string_implement$0$domain$$type_library$ 
03:0006ACB0 $anonymous$c0$1$getstring/4nf$outputStream_string$outputStream_string_implement$0$domain$$type_library$ 
03:0006ACC0 $anonymous$c0$1$getstring/5nf$outputStream_string$outputStream_string_implement$0$domain$$type_library$ 
03:0006ACD0 $inputStream_string@objectDB$inputStream_string_implement$0$domain$$type_library$ 
--- From 'Obj\systeminformation_api.2DB6162F.obj'
03:0006ACE0 $logfont$gui_native_class$0$domain$$type_library$ 
--- From 'Obj\exception.544F7452.obj'
03:0006ACF0 $outputStream_binary$_global_class$0$domain$$type_library$ 
--- From 'Obj\gui_api.5B4BA4CC.obj'
03:0006AD00 $pnt$vpiDomains_class$0$domain$$type_library$ 
--- From 'Obj\shell_api.D9156D40.obj'
03:0006AD10 $rct$vpiDomains_class$0$domain$$type_library$ 
--- From 'Obj\vpidomains.CE78C30C.obj'
03:0006AD20 $brush$vpiDomains_class$0$domain$$type_library$ 
03:0006AD30 $pen$vpiDomains_class$0$domain$$type_library$ 
03:0006AD40 $drawtools$vpiDomains_class$0$domain$$type_library$ 
03:0006AD50 $menu$vpiDomains_class$0$domain$$type_library$ 
03:0006AD60 $keyModifier$vpiDomains_class$0$domain$$type_library$ 
03:0006AD70 $acceleratorKey$vpiDomains_class$0$domain$$type_library$ 
03:0006AD80 $menuItem$vpiDomains_class$0$domain$$type_library$ 
03:0006AD90 $event$vpiDomains_class$0$domain$$type_library$ 
03:0006ADA0 $controlInfo$vpiDomains_class$0$domain$$type_library$ 
03:0006ADB0 $stateInfo$vpiDomains_class$0$domain$$type_library$ 
03:0006ADC0 $windef$vpiDomains_class$0$domain$$type_library$ 
03:0006ADD0 $wdef$vpiDomains_class$0$domain$$type_library$ 
03:0006ADE0 $errhandler$vpiDomains_class$0$domain$$type_library$ 
03:0006ADF0 $eHandler$vpiDomains_class$0$domain$$type_library$ 
03:0006AE00 $accelerator$vpiDomains_class$0$domain$$type_library$ 
03:0006AE10 $bitmapId$vpiDomains_class$0$domain$$type_library$ 
03:0006AE20 $ddeserviceInfo$vpiDomains_class$0$domain$$type_library$ 
03:0006AE30 $ddedata$vpiDomains_class$0$domain$$type_library$ 
03:0006AE40 $ddeevent$vpiDomains_class$0$domain$$type_library$ 
03:0006AE50 $alignment$vpiDomains_class$0$domain$$type_library$ 
--- From 'Obj\console_api.885E7959.obj'
03:0006AE60 $coord$console_native_class$0$domain$$type_library$ 
03:0006AE70 $consoleScreenBufferInfo$console_native_class$0$domain$$type_library$ 
03:0006AE80 $key_event_record$console_native_class$0$domain$$type_library$ 
03:0006AE90 $mouse_event_record$console_native_class$0$domain$$type_library$ 
03:0006AEA0 $char_info$console_native_class$0$domain$$type_library$ 
03:0006AEB0 $small_rect$console_native_class$0$domain$$type_library$ 
03:0006AEC0 $handlerRoutine$console_native_class$0$domain$$type_library$ 
--- From 'Obj\exe_api.A0303A40.obj'
03:0006AED0 $runMode$exe_api_class$0$domain$$type_library$ 
03:0006AEE0 $coInit$exe_api_class$0$domain$$type_library$ 
--- From 'Obj\filesystem_api.1C9354BA.obj'
03:0006AEF0 $fileAttributesInfo$fileSystem_native_class$0$domain$$type_library$ 
03:0006AF00 $overlapped$fileSystem_native_class$0$domain$$type_library$ 
03:0006AF10 $ofStruct$lZ_fileSystem_native_class$0$domain$$type_library$ 
03:0006AF20 $fileInfo$fileSystem_native_class$0$domain$$type_library$ 
03:0006AF30 $win32_find_data$fileSystem_native_class$0$domain$$type_library$ 
03:0006AF40 $file_info_by_handle_class$fileSystem_native_class$0$domain$$type_library$ 
03:0006AF50 $fileIOCompletionRoutine$fileSystem_native_class$0$domain$$type_library$ 
03:0006AF60 $fileAction$fileSystem_native_class$0$domain$$type_library$ 
03:0006AF70 $file_notify_information$fileSystem_native_class$0$domain$$type_library$ 
03:0006AF80 $openFileName$fileSystem_native_class$0$domain$$type_library$ 
03:0006AF90 $oFNHookProc$fileSystem_native_class$0$domain$$type_library$ 
03:0006AFA0 $uSE_INFO_0$fileSystem_native_class$0$domain$$type_library$ 
03:0006AFB0 $fileAttributeAtom$fileSystem_api_class$0$domain$$type_library$ 
03:0006AFC0 $accessPermit$fileSystem_api_class$0$domain$$type_library$ 
03:0006AFD0 $memAppend_CallBack$fileSystem_api_implement$0$domain$$type_library$ 
03:0006AFE0 $bufferOperation$fileSystem_api_implement$0$domain$$type_library$ 
03:0006AFF0 $anonymous$c0$1$getshortpathname/1nf$fileSystem_api$fileSystem_api_implement$0$domain$$type_library$ 
03:0006B000 $anonymous$c0$1$getlongpathname/1nf$fileSystem_api$fileSystem_api_implement$0$domain$$type_library$ 
--- From 'Obj\gui_api.5B4BA4CC.obj'
03:0006B010 $scrollInfo$gui_native_class$0$domain$$type_library$ 
03:0006B020 $size$gui_native_class$0$domain$$type_library$ 
03:0006B030 $textmetric$gui_native_class$0$domain$$type_library$ 
03:0006B040 $dlgItemTemplate$gui_api_class$0$domain$$type_library$ 
--- From 'Obj\memory.9BD3BF38.obj'
03:0006B050 $integer16$core_class$0$domain$$type_library$ 
03:0006B060 $unsigned16$core_class$0$domain$$type_library$ 
03:0006B070 $unsigned8$core_class$0$domain$$type_library$ 
--- From 'Obj\gui_api.5B4BA4CC.obj'
03:0006B080 $paintStruct$gui_native_class$0$domain$$type_library$ 
03:0006B090 $accel$gui_native_class$0$domain$$type_library$ 
03:0006B0A0 $msg$gui_native_class$0$domain$$type_library$ 
03:0006B0B0 $menuItemInfo$gui_native_class$0$domain$$type_library$ 
03:0006B0C0 $input$gui_native_class$0$domain$$type_library$ 
03:0006B0D0 $iconInfo$gui_native_class$0$domain$$type_library$ 
03:0006B0E0 $mouseMovePoint$gui_native_class$0$domain$$type_library$ 
03:0006B0F0 $enumDesktopProc$gui_native_class$0$domain$$type_library$ 
03:0006B100 $enumWindowStationProc$gui_native_class$0$domain$$type_library$ 
03:0006B110 $copyDataStruct$gui_native_class$0$domain$$type_library$ 
03:0006B120 $trackMouseEvent$gui_native_class$0$domain$$type_library$ 
03:0006B130 $sendAsyncProc$gui_native_class$0$domain$$type_library$ 
03:0006B140 $wndProc$gui_native_class$0$domain$$type_library$ 
03:0006B150 $wndClassEx$gui_native_class$0$domain$$type_library$ 
03:0006B160 $createstruct$gui_native_class$0$domain$$type_library$ 
03:0006B170 $flashInfo$gui_native_class$0$domain$$type_library$ 
03:0006B180 $windowPos$gui_native_class$0$domain$$type_library$ 
03:0006B190 $windowPlacement$gui_native_class$0$domain$$type_library$ 
03:0006B1A0 $windowInfo$gui_native_class$0$domain$$type_library$ 
03:0006B1B0 $monitorInfo$gui_native_class$0$domain$$type_library$ 
03:0006B1C0 $monitorInfoEx$gui_native_class$0$domain$$type_library$ 
03:0006B1D0 $monitorEnumProc$gui_native_class$0$domain$$type_library$ 
03:0006B1E0 $dlgTemplate$gui_native_class$0$domain$$type_library$ 
03:0006B1F0 $dlgItemTemplate$gui_native_class$0$domain$$type_library$ 
03:0006B200 $dlgTemplateEx$gui_native_class$0$domain$$type_library$ 
03:0006B210 $timerProc$gui_native_class$0$domain$$type_library$ 
03:0006B220 $drawTextParams$gui_native_class$0$domain$$type_library$ 
03:0006B230 $grayStringProc$gui_native_class$0$domain$$type_library$ 
03:0006B240 $drawStateProc$gui_native_class$0$domain$$type_library$ 
03:0006B250 $propEnumProc$gui_native_class$0$domain$$type_library$ 
03:0006B260 $helpInfo$gui_native_class$0$domain$$type_library$ 
03:0006B270 $wndEnumProc$gui_native_class$0$domain$$type_library$ 
03:0006B280 $gaFlags$gui_native_class$0$domain$$type_library$ 
03:0006B290 $hookProc$gui_native_class$0$domain$$type_library$ 
03:0006B2A0 $kbdllhookstruct$gui_native_class$0$domain$$type_library$ 
03:0006B2B0 $buttonImageList$gui_native_class$0$domain$$type_library$ 
03:0006B2C0 $button_imageList_align$gui_native_class$0$domain$$type_library$ 
03:0006B2D0 $nmBcHotItem$gui_native_class$0$domain$$type_library$ 
03:0006B2E0 $button_splitInfo$gui_native_class$0$domain$$type_library$ 
03:0006B2F0 $nmBcDropdown$gui_native_class$0$domain$$type_library$ 
03:0006B300 $nmhdr$gui_native_class$0$domain$$type_library$ 
03:0006B310 $nmCustomDraw$gui_native_class$0$domain$$type_library$ 
03:0006B320 $scrollBarInfo$gui_native_class$0$domain$$type_library$ 
03:0006B330 $logbrush$gui_native_class$0$domain$$type_library$ 
03:0006B340 $tcItem$gui_native_class$0$domain$$type_library$ 
03:0006B350 $tagInitCommonControlsEx$gui_native_class$0$domain$$type_library$ 
03:0006B360 $logPalette$gui_native_class$0$domain$$type_library$ 
03:0006B370 $mouseInput$gui_native_class$0$domain$$type_library$ 
03:0006B380 $keybdInput$gui_native_class$0$domain$$type_library$ 
03:0006B390 $hardwareInput$gui_native_class$0$domain$$type_library$ 
03:0006B3A0 $inputUnion$gui_native_class$0$domain$$type_library$ 
03:0006B3B0 $toolinfo$gui_native_class$0$domain$$type_library$ 
03:0006B3C0 $nmttdispInfo$gui_native_class$0$domain$$type_library$ 
03:0006B3D0 $blendFunction$gui_native_class$0$domain$$type_library$ 
03:0006B3E0 $chooseFont$gui_native_class$0$domain$$type_library$ 
03:0006B3F0 $printdlg$gui_native_class$0$domain$$type_library$ 
03:0006B400 $printdlgEx$gui_native_class$0$domain$$type_library$ 
03:0006B410 $inputUnion_mi$gui_native_class$0$domain$$type_library$ 
03:0006B420 $inputUnion_ki$gui_native_class$0$domain$$type_library$ 
03:0006B430 $inputUnion_hi$gui_native_class$0$domain$$type_library$ 
03:0006B440 $scrollInfo$gui_api_class$0$domain$$type_library$ 
03:0006B450 $windowPlacement$gui_api_class$0$domain$$type_library$ 
03:0006B460 $dlgTemplate$gui_api_class$0$domain$$type_library$ 
03:0006B470 $varArray$gui_api_class$0$domain$$type_library$ 
03:0006B480 $monitorInfo$gui_api_class$0$domain$$type_library$ 
03:0006B490 $anonymous$c0$1$sendinput/1np$gui_api$gui_api_implement$0$domain$$type_library$ 
--- From 'Obj\locale_api.25A9E29D.obj'
03:0006B4A0 $stdBoolFunc$locale_native_class$1$domain$$type_library$ 
03:0006B4B0 $stdBoolFunc$locale_native_class$2$domain$$type_library$ 
03:0006B4C0 $stdBoolFunc$locale_native_class$4$domain$$type_library$ 
03:0006B4D0 $stdBoolFunc$locale_native_class$5$domain$$type_library$ 
03:0006B4E0 $numberfmt$locale_native_class$0$domain$$type_library$ 
--- From 'Obj\memory_api.072B3D5C.obj'
03:0006B4F0 $memory_basic_information$memory_native_class$0$domain$$type_library$ 
03:0006B500 $memoryStatusEx$memory_native_class$0$domain$$type_library$ 
--- From 'Obj\multithread_api.6DC4E6F9.obj'
03:0006B510 $selectorEntry$multiThread_native_class$0$domain$$type_library$ 
03:0006B520 $timerAPCProc$multiThread_native_class$0$domain$$type_library$ 
03:0006B530 $startupInfo$multiThread_native_class$0$domain$$type_library$ 
03:0006B540 $processInformation$multiThread_native_class$0$domain$$type_library$ 
03:0006B550 $threadRunnable$multiThread_native_class$0$domain$$type_library$ 
03:0006B560 $critical_section$multiThread_native_class$0$domain$$type_library$ 
03:0006B570 $m128A$multiThread_native_class$0$domain$$type_library$ 
03:0006B580 $cache_descriptor$multiThread_native_class$0$domain$$type_library$ 
03:0006B590 $system_logical_processor_information$multiThread_native_class$0$domain$$type_library$ 
03:0006B5A0 $isWOW64Process_func$multiThread_api_implement$0$domain$$type_library$ 
03:0006B5B0 $multiThread_api@classDB$multiThread_api_implement$0$domain$$type_library$ 
--- From 'Obj\registry_api.0E78C5E3.obj'
03:0006B5C0 $securityAttr$registry_native_class$0$domain$$type_library$ 
--- From 'Obj\runtime_api.0E79B0CD.obj'
03:0006B5D0 $runtime_api@classDB$runtime_api_implement$0$domain$$type_library$ 
--- From 'Obj\filesystem.57D9C483.obj'
03:0006B5E0 $iStream_native$_global_class$0$domain$$type_library$ 
03:0006B5F0 $iUnknown$_global_class$0$domain$$type_library$ 
--- From 'Obj\shell_api.D9156D40.obj'
03:0006B600 $shellExecuteInfo$shell_native_class$0$domain$$type_library$ 
03:0006B610 $appBarData$shell_native_class$0$domain$$type_library$ 
03:0006B620 $shFileOpStruct$shell_native_class$0$domain$$type_library$ 
03:0006B630 $sHNameMapping$shell_native_class$0$domain$$type_library$ 
03:0006B640 $shQueryRBinfo$shell_native_class$0$domain$$type_library$ 
03:0006B650 $notifyIcondata$shell_native_class$0$domain$$type_library$ 
03:0006B660 $sHFileInfo$shell_native_class$0$domain$$type_library$ 
03:0006B670 $browseinfo$shell_native_class$0$domain$$type_library$ 
03:0006B680 $browseCallbackProc$shell_native_class$0$domain$$type_library$ 
03:0006B690 $shard$shell_native_class$0$domain$$type_library$ 
--- From 'Obj\systeminformation_api.2DB6162F.obj'
03:0006B6A0 $system_Info$systemInformation_native_class$0$domain$$type_library$ 
03:0006B6B0 $nonclientMetrics$systemInformation_native_class$0$domain$$type_library$ 
03:0006B6C0 $nonclientMetricsXP$systemInformation_native_class$0$domain$$type_library$ 
03:0006B6D0 $osVersionInfo$systemInformation_native_class$0$domain$$type_library$ 
03:0006B6E0 $osVersionInfoEX$systemInformation_native_class$0$domain$$type_library$ 
03:0006B6F0 $systemInformation_api@classDB$systemInformation_api_implement$0$domain$$type_library$ 
--- From 'Obj\time_api.21FCC41B.obj'
03:0006B700 $systemTime$time_native_class$0$domain$$type_library$ 
03:0006B710 $timeZoneAPI$time_native_class$0$domain$$type_library$ 
03:0006B720 $fileTime$time_native_class$0$domain$$type_library$ 
03:0006B730 $reg_tzi_format$time_native_class$0$domain$$type_library$ 
--- From 'Obj\windowsapi.901E9509.obj'
03:0006B740 $security_descriptor$windowsAPI_class$0$domain$$type_library$ 
03:0006B750 $acl$windowsAPI_class$0$domain$$type_library$ 
03:0006B760 $security_attributes$windowsAPI_class$0$domain$$type_library$ 
--- From 'Obj\exe.3A8A8F5C.obj'
03:0006B770 $mainExe@classDB$mainExe_implement$0$domain$$type_library$ 
--- From 'Obj\binary.9C7C16C6.obj'
03:0006B780 $outputStream_binary@objectDB$outputStream_binary_implement$0$domain$$type_library$ 
03:0006B790 $inputStream_binary@objectDB$inputStream_binary_implement$0$domain$$type_library$ 
--- From 'Obj\redblackset.314226AB.obj'
03:0006B7A0 $anonymous$c0$1$empty/0$redBlackSet$redBlackSet_implement$0$domain$$type_library$ 
--- From 'Obj\mapm_redblack.D48B3F53.obj'
03:0006B7B0 $mapM_redBlack@objectDB$mapM_redBlack{@Key,@Data}_implement$0$domain$$type_library$ 
03:0006B7C0 $mapm_redblack$typeLibDB$mapM_redBlack{@Key,@Data}_implement$0$domain$$type_library$ 
--- From 'Obj\setm_redblack.F3ED8D4F.obj'
03:0006B7D0 $setM_redBlack@objectDB$setM_redBlack{@Type}_implement$0$domain$$type_library$ 
03:0006B7E0 $setm_redblack$typeLibDB$setM_redBlack{@Type}_implement$0$domain$$type_library$ 
--- From 'Obj\collectionmsupport.662A7565.obj'
03:0006B7F0 $collectionMsupport@objectDB$collectionSupportM\collectionMsupport{@Type}_implement$0$domain$$type_library$ 
03:0006B800 $collectionmsupport$typeLibDB$collectionSupportM\collectionMsupport{@Type}_implement$0$domain$$type_library$ 
--- From 'Obj\mapmsupport.59EA0039.obj'
03:0006B810 $mapMSupport@objectDB$collectionSupportM\mapMSupport{@Key,@Data}_implement$0$domain$$type_library$ 
03:0006B820 $mapmsupport$typeLibDB$collectionSupportM\mapMSupport{@Key,@Data}_implement$0$domain$$type_library$ 
--- From 'Obj\console.043C10C8.obj'
03:0006B830 $outputStream_console@objectDB$outputStream_console_implement$0$domain$$type_library$ 
03:0006B840 $inputStream_console@objectDB$inputStream_console_implement$0$domain$$type_library$ 
03:0006B850 $event$console_class$0$domain$$type_library$ 
03:0006B860 $console@classDB$console_implement$0$domain$$type_library$ 
03:0006B870 $anonymous$c0$1$run/3np$console$console_implement$0$domain$$type_library$ 
--- From 'Obj\core.4BC2D97D.obj'
03:0006B880 $resourceIdentifiers$_global_class$0$domain$$type_library$ 
03:0006B890 $unit$core_class$0$domain$$type_library$ 
03:0006B8A0 $unsigned64_struct$core_class$0$domain$$type_library$ 
--- From 'Obj\memory.9BD3BF38.obj'
03:0006B8B0 $integer8$core_class$0$domain$$type_library$ 
--- From 'Obj\core.4BC2D97D.obj'
03:0006B8C0 $integer64_struct$core_class$0$domain$$type_library$ 
--- From 'Obj\namedvalue.187E0B91.obj'
03:0006B8D0 $namedValue$core_class$0$domain$$type_library$ 
--- From 'Obj\core.4BC2D97D.obj'
03:0006B8E0 $classInfo$core_class$0$domain$$type_library$ 
--- From 'Obj\exception.544F7452.obj'
03:0006B8F0 $exception$core_class$0$domain$$type_library$ 
--- From 'Obj\core.4BC2D97D.obj'
03:0006B900 $nativeGuid$core_class$0$domain$$type_library$ 
03:0006B910 $byteCountOptional$core_class$0$domain$$type_library$ 
--- From 'Obj\memory.9BD3BF38.obj'
03:0006B920 $byteCount$core_class$0$domain$$type_library$ 
--- From 'Obj\core.4BC2D97D.obj'
03:0006B930 $charCountOptional$core_class$0$domain$$type_library$ 
--- From 'Obj\memory.9BD3BF38.obj'
03:0006B940 $charCount$core_class$0$domain$$type_library$ 
--- From 'Obj\core.4BC2D97D.obj'
03:0006B950 $positiveOptional$core_class$0$domain$$type_library$ 
03:0006B960 $function$core_class$1$domain$$type_library$ 
--- From 'Obj\varm.17B5C45B.obj'
03:0006B970 $function$core_class$2$domain$$type_library$ 
03:0006B980 $function$core_class$3$domain$$type_library$ 
--- From 'Obj\core.4BC2D97D.obj'
03:0006B990 $function$core_class$4$domain$$type_library$ 
03:0006B9A0 $function$core_class$5$domain$$type_library$ 
03:0006B9B0 $function$core_class$6$domain$$type_library$ 
03:0006B9C0 $function$core_class$7$domain$$type_library$ 
03:0006B9D0 $function$core_class$8$domain$$type_library$ 
03:0006B9E0 $function$core_class$9$domain$$type_library$ 
03:0006B9F0 $function$core_class$10$domain$$type_library$ 
03:0006BA00 $function$core_class$11$domain$$type_library$ 
03:0006BA10 $function_dt$core_class$1$domain$$type_library$ 
03:0006BA20 $function_dt$core_class$2$domain$$type_library$ 
03:0006BA30 $function_dt$core_class$3$domain$$type_library$ 
03:0006BA40 $function_dt$core_class$4$domain$$type_library$ 
03:0006BA50 $function_dt$core_class$5$domain$$type_library$ 
03:0006BA60 $function_dt$core_class$6$domain$$type_library$ 
03:0006BA70 $function_dt$core_class$7$domain$$type_library$ 
03:0006BA80 $function_dt$core_class$8$domain$$type_library$ 
03:0006BA90 $function_dt$core_class$9$domain$$type_library$ 
03:0006BAA0 $function_dt$core_class$10$domain$$type_library$ 
03:0006BAB0 $function_dt$core_class$11$domain$$type_library$ 
03:0006BAC0 $function_nd$core_class$1$domain$$type_library$ 
03:0006BAD0 $function_nd$core_class$2$domain$$type_library$ 
03:0006BAE0 $function_nd$core_class$3$domain$$type_library$ 
03:0006BAF0 $function_nd$core_class$4$domain$$type_library$ 
03:0006BB00 $function_nd$core_class$5$domain$$type_library$ 
03:0006BB10 $function_nd$core_class$6$domain$$type_library$ 
03:0006BB20 $function_nd$core_class$7$domain$$type_library$ 
03:0006BB30 $function_nd$core_class$8$domain$$type_library$ 
03:0006BB40 $function_nd$core_class$9$domain$$type_library$ 
03:0006BB50 $function_nd$core_class$10$domain$$type_library$ 
03:0006BB60 $function_nd$core_class$11$domain$$type_library$ 
03:0006BB70 $predicate$core_class$0$domain$$type_library$ 
03:0006BB80 $predicate$core_class$2$domain$$type_library$ 
03:0006BB90 $predicate$core_class$3$domain$$type_library$ 
03:0006BBA0 $predicate$core_class$4$domain$$type_library$ 
03:0006BBB0 $predicate$core_class$5$domain$$type_library$ 
03:0006BBC0 $predicate$core_class$6$domain$$type_library$ 
03:0006BBD0 $predicate$core_class$7$domain$$type_library$ 
03:0006BBE0 $predicate$core_class$8$domain$$type_library$ 
03:0006BBF0 $predicate$core_class$9$domain$$type_library$ 
03:0006BC00 $predicate$core_class$10$domain$$type_library$ 
03:0006BC10 $predicate_dt$core_class$0$domain$$type_library$ 
--- From 'Obj\list.1520BD2B.obj'
03:0006BC20 $predicate_dt$core_class$1$domain$$type_library$ 
03:0006BC30 $predicate_dt$core_class$2$domain$$type_library$ 
--- From 'Obj\core.4BC2D97D.obj'
03:0006BC40 $predicate_dt$core_class$3$domain$$type_library$ 
03:0006BC50 $predicate_dt$core_class$4$domain$$type_library$ 
03:0006BC60 $predicate_dt$core_class$5$domain$$type_library$ 
03:0006BC70 $predicate_dt$core_class$6$domain$$type_library$ 
03:0006BC80 $predicate_dt$core_class$7$domain$$type_library$ 
03:0006BC90 $predicate_dt$core_class$8$domain$$type_library$ 
03:0006BCA0 $predicate_dt$core_class$9$domain$$type_library$ 
03:0006BCB0 $predicate_dt$core_class$10$domain$$type_library$ 
03:0006BCC0 $predicate_nd$core_class$0$domain$$type_library$ 
03:0006BCD0 $predicate_nd$core_class$1$domain$$type_library$ 
03:0006BCE0 $predicate_nd$core_class$2$domain$$type_library$ 
03:0006BCF0 $predicate_nd$core_class$3$domain$$type_library$ 
03:0006BD00 $predicate_nd$core_class$4$domain$$type_library$ 
03:0006BD10 $predicate_nd$core_class$5$domain$$type_library$ 
03:0006BD20 $predicate_nd$core_class$6$domain$$type_library$ 
03:0006BD30 $predicate_nd$core_class$7$domain$$type_library$ 
03:0006BD40 $predicate_nd$core_class$8$domain$$type_library$ 
03:0006BD50 $predicate_nd$core_class$9$domain$$type_library$ 
03:0006BD60 $predicate_nd$core_class$10$domain$$type_library$ 
03:0006BD70 $comparator$core_class$1$domain$$type_library$ 
03:0006BD80 $comparator$core_class$2$domain$$type_library$ 
03:0006BD90 $sortOrder$core_class$0$domain$$type_library$ 
--- From 'Obj\namedvalue.187E0B91.obj'
03:0006BDA0 $value$core_class$0$domain$$type_library$ 
--- From 'Obj\exception.544F7452.obj'
03:0006BDB0 $sourceCursor$core_class$0$domain$$type_library$ 
--- From 'Obj\exceptiondump.174B23B9.obj'
03:0006BDC0 $programPoint$core_class$0$domain$$type_library$ 
--- From 'Obj\core.4BC2D97D.obj'
03:0006BDD0 $allowBoolean$core_class$0$domain$$type_library$ 
03:0006BDE0 $defaultActionBoolean$core_class$0$domain$$type_library$ 
--- From 'Obj\exceptiondump.174B23B9.obj'
03:0006BDF0 $traceInfo$exception_class$0$domain$$type_library$ 
--- From 'Obj\namedvalue.187E0B91.obj'
03:0006BE00 $*$_builtIn_class$1$domain$$type_library$1$86504973${core::namedValue}$ 
--- From 'Obj\exception.544F7452.obj'
03:0006BE10 $pfc\reflection\functorDescriptor$_global_class$0$domain$$type_library$ 
03:0006BE20 $pfc\reflection\scopeDescriptor$_global_class$0$domain$$type_library$ 
03:0006BE30 $scopeKind$pfc\reflection\scopeDescriptor_interface$0$domain$$type_library$ 
--- From 'Obj\reflection.0F000252.obj'
03:0006BE40 $pfc\reflection\typeLibrary$_global_class$0$domain$$type_library$ 
--- From 'Obj\exception.544F7452.obj'
03:0006BE50 $wrapPresenter$pfc\reflection\typeLibrary_interface$0$domain$$type_library$ 
03:0006BE60 $pfc\reflection\typeLibrary_functor$_global_class$0$domain$$type_library$ 
--- From 'Obj\exceptiondump.174B23B9.obj'
03:0006BE70 $kind$exception_class$0$domain$$type_library$ 
--- From 'Obj\exception.544F7452.obj'
03:0006BE80 $programPointDescriptor$exception_class$0$domain$$type_library$ 
--- From 'Obj\exceptiondump.174B23B9.obj'
03:0006BE90 $descriptor$exception_class$0$domain$$type_library$ 
03:0006BEA0 $lineInfo$exception_class$0$domain$$type_library$ 
--- From 'Obj\exception.544F7452.obj'
03:0006BEB0 $errorDescriptorInformation@objectDB$errorDescriptorInformation_implement$0$domain$$type_library$ 
--- From 'Obj\exceptiondump.174B23B9.obj'
03:0006BEC0 $*$_builtIn_class$1$domain$$type_library$1$D961E81E${exception::descriptor}$ 
03:0006BED0 $*$_builtIn_class$1$domain$$type_library$1$A4995D7B${exception::lineInfo}$ 
--- From 'Obj\filesystem.57D9C483.obj'
03:0006BEE0 $codePage$fileVersion_implement$0$domain$$type_library$ 
03:0006BEF0 $languagex$fileVersion_implement$0$domain$$type_library$ 
03:0006BF00 $outputStream_file@objectDB$outputStream_file_implement$0$domain$$type_library$ 
03:0006BF10 $messageFile@objectDB$messageFile_implement$0$domain$$type_library$ 
03:0006BF20 $anonymous$o0$1$write/0ep$messageFile$messageFile_implement$0$domain$$type_library$ 
03:0006BF30 $anonymous$o0$1$writef/1ep$messageFile$messageFile_implement$0$domain$$type_library$ 
03:0006BF40 $anonymous$o0$1$writequoted/0ep$messageFile$messageFile_implement$0$domain$$type_library$ 
03:0006BF50 $anonymous$o0$1$writebytes/2np$messageFile$messageFile_implement$0$domain$$type_library$ 
03:0006BF60 $anonymous$o0$1$save/1np$messageFile$messageFile_implement$0$domain$$type_library$ 
03:0006BF70 $inputStream_file@objectDB$inputStream_file_implement$0$domain$$type_library$ 
03:0006BF80 $versionInformation$fileVersion_class$0$domain$$type_library$ 
03:0006BF90 $fileVersionInformation$fileVersion_class$0$domain$$type_library$ 
03:0006BFA0 $twoInt$fileVersion_implement$0$domain$$type_library$ 
03:0006BFB0 $pTwoInt$fileVersion_implement$0$domain$$type_library$ 
03:0006BFC0 $vs_fixedfileinfo$fileVersion_implement$0$domain$$type_library$ 
03:0006BFD0 $pvs_fixedfileinfo$fileVersion_implement$0$domain$$type_library$ 
03:0006BFE0 $overwrite$file_class$0$domain$$type_library$ 
03:0006BFF0 $volumeType$directory_class$0$domain$$type_library$ 
--- From 'Obj\list.1520BD2B.obj'
03:0006C000 $anonymous$c0$1$comparelexically/1nf$list$list_implement$0$domain$$type_library$ 
03:0006C010 $anonymous$c0$1$comp2eq/1nf$list$list_implement$0$domain$$type_library$ 
03:0006C020 $anonymous$c0$1$sortby/3nf$list$list_implement$0$domain$$type_library$ 
03:0006C030 $anonymous$c0$1$sort/1$list$list_implement$0$domain$$type_library$ 
03:0006C040 $anonymous$c0$1$sort/2nf$list$list_implement$0$domain$$type_library$ 
03:0006C050 $anonymous$c0$1$removeConsecutiveDuplicates/1$list$list_implement$0$domain$$type_library$ 
03:0006C060 $anonymous$c0$1$splitafter/2nf$list$list_implement$0$domain$$type_library$ 
03:0006C070 $anonymous$c0$1$maximum/1$list$list_implement$0$domain$$type_library$ 
03:0006C080 $anonymous$c0$1$minimumby/2nf$list$list_implement$0$domain$$type_library$ 
03:0006C090 $anonymous$c0$1$minimum/1$list$list_implement$0$domain$$type_library$ 
03:0006C0A0 $anonymous$c0$1$groupbyeq/2nf$list$list_implement$0$domain$$type_library$ 
03:0006C0B0 $anonymous$c0$1$foldr/3nf$list$list_implement$0$domain$$type_library$ 
--- From 'Obj\math.724D21D5.obj'
03:0006C0C0 $inCircle$math_class$0$domain$$type_library$ 
03:0006C0D0 $aPeriod$math_class$0$domain$$type_library$ 
03:0006C0E0 $uReal$math_class$0$domain$$type_library$ 
--- From 'Obj\memory.9BD3BF38.obj'
03:0006C0F0 $pRef$weakPointer_implement$0$domain$$type_library$ 
03:0006C100 $pPointer$memory_class$0$domain$$type_library$ 
03:0006C110 $pInteger8$memory_class$0$domain$$type_library$ 
03:0006C120 $pInteger16$memory_class$0$domain$$type_library$ 
03:0006C130 $pInteger$memory_class$0$domain$$type_library$ 
03:0006C140 $pInteger64$memory_class$0$domain$$type_library$ 
03:0006C150 $weakReference@objectDB$weakReference{@Type}_implement$0$domain$$type_library$ 
03:0006C160 $weakreference$typeLibDB$weakReference{@Type}_implement$0$domain$$type_library$ 
03:0006C170 $pPredRef$weakPointer_implement$0$domain$$type_library$ 
03:0006C180 $weakPointer@objectDB$weakPointer_implement$0$domain$$type_library$ 
03:0006C190 $contextMap$memory_class$0$domain$$type_library$ 
03:0006C1A0 $memoryKind$memory_class$0$domain$$type_library$ 
03:0006C1B0 $pBinary$memory_class$0$domain$$type_library$ 
03:0006C1C0 $pBinaryNonAtomic$memory_class$0$domain$$type_library$ 
03:0006C1D0 $pByteCount$memory_class$0$domain$$type_library$ 
03:0006C1E0 $pChar$memory_class$0$domain$$type_library$ 
03:0006C1F0 $pChar8$memory_class$0$domain$$type_library$ 
03:0006C200 $pCharCount$memory_class$0$domain$$type_library$ 
03:0006C210 $pHandle$memory_class$0$domain$$type_library$ 
03:0006C220 $pIntegerNative$memory_class$0$domain$$type_library$ 
03:0006C230 $pObject$memory_class$0$domain$$type_library$ 
03:0006C240 $pReal$memory_class$0$domain$$type_library$ 
03:0006C250 $pReal32$memory_class$0$domain$$type_library$ 
03:0006C260 $pString$memory_class$0$domain$$type_library$ 
03:0006C270 $pString8$memory_class$0$domain$$type_library$ 
03:0006C280 $pUnsigned$memory_class$0$domain$$type_library$ 
03:0006C290 $pUnsigned16$memory_class$0$domain$$type_library$ 
03:0006C2A0 $pUnsigned64$memory_class$0$domain$$type_library$ 
03:0006C2B0 $pUnsigned8$memory_class$0$domain$$type_library$ 
03:0006C2C0 $pUnsignedNative$memory_class$0$domain$$type_library$ 
03:0006C2D0 $unsigned4$bit_class$0$domain$$type_library$ 
03:0006C2E0 $one32$bit_implement$0$domain$$type_library$ 
03:0006C2F0 $two16$bit_implement$0$domain$$type_library$ 
--- From 'Obj\programcontrol.5D08C78A.obj'
03:0006C300 $exceptionRaiser$programControl_class$0$domain$$type_library$ 
03:0006C310 $deObject$programControl_implement$0$domain$$type_library$ 
--- From 'Obj\registry.88C8A89A.obj'
03:0006C320 $rootKey$registry_class$0$domain$$type_library$ 
03:0006C330 $registryView$registry_class$0$domain$$type_library$ 
--- From 'Obj\redblacktree.C0378524.obj'
03:0006C340 $uniqueKey$redBlackTree_class$0$domain$$type_library$ 
03:0006C350 $anonymous$c0$1$empty/0$redBlackTree$redBlackTree_implement$0$domain$$type_library$ 
03:0006C360 $anonymous$c0$1$emptyUnique/0$redBlackTree$redBlackTree_implement$0$domain$$type_library$ 
--- From 'Obj\collectionsupport.6DAD372D.obj'
03:0006C370 $collectionSupport@objectDB$collectionSupport\collectionSupport{@Type}_implement$0$domain$$type_library$ 
03:0006C380 $collectionsupport$typeLibDB$collectionSupport\collectionSupport{@Type}_implement$0$domain$$type_library$ 
--- From 'Obj\varm.17B5C45B.obj'
03:0006C390 $varM_boolean$_global_class$0$domain$$type_library$ 
03:0006C3A0 $varM_integer$_global_class$0$domain$$type_library$ 
03:0006C3B0 $varM_unsigned$_global_class$0$domain$$type_library$ 
--- From 'Obj\arraym_inline.5CB777DB.obj'
03:0006C3C0 $ptr$arrayM_inlineValue{@ItemType}_implement$0$domain$$type_library$ 
03:0006C3D0 $arrayM_inlineValue@objectDB$arrayM_inlineValue{@ItemType}_implement$0$domain$$type_library$ 
03:0006C3E0 $arraym_inlinevalue$typeLibDB$arrayM_inlineValue{@ItemType}_implement$0$domain$$type_library$ 
03:0006C3F0 $arrayM_inline@objectDB$arrayM_inline{@ItemType}_implement$0$domain$$type_library$ 
03:0006C400 $arraym_inline$typeLibDB$arrayM_inline{@ItemType}_implement$0$domain$$type_library$ 
--- From 'Obj\event.35BDD536.obj'
03:0006C410 $event7@objectDB$event7{@Source,@Type1,@Type2,@Type3,@Type4,@Type5,@Type6,@Type7}_implement$0$domain$$type_library$ 
03:0006C420 $event7$typeLibDB$event7{@Source,@Type1,@Type2,@Type3,@Type4,@Type5,@Type6,@Type7}_implement$0$domain$$type_library$ 
03:0006C430 $anonymous$o0$1$addlistener/2np$event7{@Source,@Type1,@Type2,@Type3,@Type4,@Type5,@Type6,@Type7}$event7{@Source,@Type1,@Type2,@Type3,@Type4,@Type5,@Type6,@Type7}_implement$0$domain$$type_library$ 
03:0006C440 $anonymous$o1$1$addlistener/2np$event7{@Source,@Type1,@Type2,@Type3,@Type4,@Type5,@Type6,@Type7}$event7{@Source,@Type1,@Type2,@Type3,@Type4,@Type5,@Type6,@Type7}_implement$0$domain$$type_library$ 
03:0006C450 $anonymous$o2$1$addlistener/2np$event7{@Source,@Type1,@Type2,@Type3,@Type4,@Type5,@Type6,@Type7}$event7{@Source,@Type1,@Type2,@Type3,@Type4,@Type5,@Type6,@Type7}_implement$0$domain$$type_library$ 
03:0006C460 $anonymous$o3$1$addlistener/2np$event7{@Source,@Type1,@Type2,@Type3,@Type4,@Type5,@Type6,@Type7}$event7{@Source,@Type1,@Type2,@Type3,@Type4,@Type5,@Type6,@Type7}_implement$0$domain$$type_library$ 
03:0006C470 $anonymous$o4$1$addlistener/2np$event7{@Source,@Type1,@Type2,@Type3,@Type4,@Type5,@Type6,@Type7}$event7{@Source,@Type1,@Type2,@Type3,@Type4,@Type5,@Type6,@Type7}_implement$0$domain$$type_library$ 
03:0006C480 $anonymous$o5$1$addlistener/2np$event7{@Source,@Type1,@Type2,@Type3,@Type4,@Type5,@Type6,@Type7}$event7{@Source,@Type1,@Type2,@Type3,@Type4,@Type5,@Type6,@Type7}_implement$0$domain$$type_library$ 
03:0006C490 $anonymous$o6$1$addlistener/2np$event7{@Source,@Type1,@Type2,@Type3,@Type4,@Type5,@Type6,@Type7}$event7{@Source,@Type1,@Type2,@Type3,@Type4,@Type5,@Type6,@Type7}_implement$0$domain$$type_library$ 
03:0006C4A0 $anonymous$o7$1$addlistener/2np$event7{@Source,@Type1,@Type2,@Type3,@Type4,@Type5,@Type6,@Type7}$event7{@Source,@Type1,@Type2,@Type3,@Type4,@Type5,@Type6,@Type7}_implement$0$domain$$type_library$ 
03:0006C4B0 $event6@objectDB$event6{@Source,@Type1,@Type2,@Type3,@Type4,@Type5,@Type6}_implement$0$domain$$type_library$ 
03:0006C4C0 $event6$typeLibDB$event6{@Source,@Type1,@Type2,@Type3,@Type4,@Type5,@Type6}_implement$0$domain$$type_library$ 
03:0006C4D0 $anonymous$o0$1$addlistener/2np$event6{@Source,@Type1,@Type2,@Type3,@Type4,@Type5,@Type6}$event6{@Source,@Type1,@Type2,@Type3,@Type4,@Type5,@Type6}_implement$0$domain$$type_library$ 
03:0006C4E0 $anonymous$o1$1$addlistener/2np$event6{@Source,@Type1,@Type2,@Type3,@Type4,@Type5,@Type6}$event6{@Source,@Type1,@Type2,@Type3,@Type4,@Type5,@Type6}_implement$0$domain$$type_library$ 
03:0006C4F0 $anonymous$o2$1$addlistener/2np$event6{@Source,@Type1,@Type2,@Type3,@Type4,@Type5,@Type6}$event6{@Source,@Type1,@Type2,@Type3,@Type4,@Type5,@Type6}_implement$0$domain$$type_library$ 
03:0006C500 $anonymous$o3$1$addlistener/2np$event6{@Source,@Type1,@Type2,@Type3,@Type4,@Type5,@Type6}$event6{@Source,@Type1,@Type2,@Type3,@Type4,@Type5,@Type6}_implement$0$domain$$type_library$ 
03:0006C510 $anonymous$o4$1$addlistener/2np$event6{@Source,@Type1,@Type2,@Type3,@Type4,@Type5,@Type6}$event6{@Source,@Type1,@Type2,@Type3,@Type4,@Type5,@Type6}_implement$0$domain$$type_library$ 
03:0006C520 $anonymous$o5$1$addlistener/2np$event6{@Source,@Type1,@Type2,@Type3,@Type4,@Type5,@Type6}$event6{@Source,@Type1,@Type2,@Type3,@Type4,@Type5,@Type6}_implement$0$domain$$type_library$ 
03:0006C530 $anonymous$o6$1$addlistener/2np$event6{@Source,@Type1,@Type2,@Type3,@Type4,@Type5,@Type6}$event6{@Source,@Type1,@Type2,@Type3,@Type4,@Type5,@Type6}_implement$0$domain$$type_library$ 
03:0006C540 $event5@objectDB$event5{@Source,@Type1,@Type2,@Type3,@Type4,@Type5}_implement$0$domain$$type_library$ 
03:0006C550 $event5$typeLibDB$event5{@Source,@Type1,@Type2,@Type3,@Type4,@Type5}_implement$0$domain$$type_library$ 
03:0006C560 $anonymous$o0$1$addlistener/2np$event5{@Source,@Type1,@Type2,@Type3,@Type4,@Type5}$event5{@Source,@Type1,@Type2,@Type3,@Type4,@Type5}_implement$0$domain$$type_library$ 
03:0006C570 $anonymous$o1$1$addlistener/2np$event5{@Source,@Type1,@Type2,@Type3,@Type4,@Type5}$event5{@Source,@Type1,@Type2,@Type3,@Type4,@Type5}_implement$0$domain$$type_library$ 
03:0006C580 $anonymous$o2$1$addlistener/2np$event5{@Source,@Type1,@Type2,@Type3,@Type4,@Type5}$event5{@Source,@Type1,@Type2,@Type3,@Type4,@Type5}_implement$0$domain$$type_library$ 
03:0006C590 $anonymous$o3$1$addlistener/2np$event5{@Source,@Type1,@Type2,@Type3,@Type4,@Type5}$event5{@Source,@Type1,@Type2,@Type3,@Type4,@Type5}_implement$0$domain$$type_library$ 
03:0006C5A0 $anonymous$o4$1$addlistener/2np$event5{@Source,@Type1,@Type2,@Type3,@Type4,@Type5}$event5{@Source,@Type1,@Type2,@Type3,@Type4,@Type5}_implement$0$domain$$type_library$ 
03:0006C5B0 $anonymous$o5$1$addlistener/2np$event5{@Source,@Type1,@Type2,@Type3,@Type4,@Type5}$event5{@Source,@Type1,@Type2,@Type3,@Type4,@Type5}_implement$0$domain$$type_library$ 
03:0006C5C0 $event4@objectDB$event4{@Source,@Type1,@Type2,@Type3,@Type4}_implement$0$domain$$type_library$ 
03:0006C5D0 $event4$typeLibDB$event4{@Source,@Type1,@Type2,@Type3,@Type4}_implement$0$domain$$type_library$ 
03:0006C5E0 $anonymous$o0$1$addlistener/2np$event4{@Source,@Type1,@Type2,@Type3,@Type4}$event4{@Source,@Type1,@Type2,@Type3,@Type4}_implement$0$domain$$type_library$ 
03:0006C5F0 $anonymous$o1$1$addlistener/2np$event4{@Source,@Type1,@Type2,@Type3,@Type4}$event4{@Source,@Type1,@Type2,@Type3,@Type4}_implement$0$domain$$type_library$ 
03:0006C600 $anonymous$o2$1$addlistener/2np$event4{@Source,@Type1,@Type2,@Type3,@Type4}$event4{@Source,@Type1,@Type2,@Type3,@Type4}_implement$0$domain$$type_library$ 
03:0006C610 $anonymous$o3$1$addlistener/2np$event4{@Source,@Type1,@Type2,@Type3,@Type4}$event4{@Source,@Type1,@Type2,@Type3,@Type4}_implement$0$domain$$type_library$ 
03:0006C620 $anonymous$o4$1$addlistener/2np$event4{@Source,@Type1,@Type2,@Type3,@Type4}$event4{@Source,@Type1,@Type2,@Type3,@Type4}_implement$0$domain$$type_library$ 
03:0006C630 $anonymous$o5$1$addlistener/2np$event4{@Source,@Type1,@Type2,@Type3,@Type4}$event4{@Source,@Type1,@Type2,@Type3,@Type4}_implement$0$domain$$type_library$ 
03:0006C640 $event3@objectDB$event3{@Source,@Type1,@Type2,@Type3}_implement$0$domain$$type_library$ 
03:0006C650 $event3$typeLibDB$event3{@Source,@Type1,@Type2,@Type3}_implement$0$domain$$type_library$ 
03:0006C660 $anonymous$o0$1$addlistener/2np$event3{@Source,@Type1,@Type2,@Type3}$event3{@Source,@Type1,@Type2,@Type3}_implement$0$domain$$type_library$ 
03:0006C670 $anonymous$o1$1$addlistener/2np$event3{@Source,@Type1,@Type2,@Type3}$event3{@Source,@Type1,@Type2,@Type3}_implement$0$domain$$type_library$ 
03:0006C680 $anonymous$o2$1$addlistener/2np$event3{@Source,@Type1,@Type2,@Type3}$event3{@Source,@Type1,@Type2,@Type3}_implement$0$domain$$type_library$ 
03:0006C690 $anonymous$o3$1$addlistener/2np$event3{@Source,@Type1,@Type2,@Type3}$event3{@Source,@Type1,@Type2,@Type3}_implement$0$domain$$type_library$ 
03:0006C6A0 $anonymous$o4$1$addlistener/2np$event3{@Source,@Type1,@Type2,@Type3}$event3{@Source,@Type1,@Type2,@Type3}_implement$0$domain$$type_library$ 
03:0006C6B0 $anonymous$o5$1$addlistener/2np$event3{@Source,@Type1,@Type2,@Type3}$event3{@Source,@Type1,@Type2,@Type3}_implement$0$domain$$type_library$ 
03:0006C6C0 $event2@objectDB$event2{@Source,@Type1,@Type2}_implement$0$domain$$type_library$ 
03:0006C6D0 $event2$typeLibDB$event2{@Source,@Type1,@Type2}_implement$0$domain$$type_library$ 
03:0006C6E0 $anonymous$o0$1$addlistener/2np$event2{@Source,@Type1,@Type2}$event2{@Source,@Type1,@Type2}_implement$0$domain$$type_library$ 
03:0006C6F0 $anonymous$o1$1$addlistener/2np$event2{@Source,@Type1,@Type2}$event2{@Source,@Type1,@Type2}_implement$0$domain$$type_library$ 
03:0006C700 $anonymous$o2$1$addlistener/2np$event2{@Source,@Type1,@Type2}$event2{@Source,@Type1,@Type2}_implement$0$domain$$type_library$ 
03:0006C710 $anonymous$o3$1$addlistener/2np$event2{@Source,@Type1,@Type2}$event2{@Source,@Type1,@Type2}_implement$0$domain$$type_library$ 
03:0006C720 $anonymous$o4$1$addlistener/2np$event2{@Source,@Type1,@Type2}$event2{@Source,@Type1,@Type2}_implement$0$domain$$type_library$ 
03:0006C730 $anonymous$o5$1$addlistener/2np$event2{@Source,@Type1,@Type2}$event2{@Source,@Type1,@Type2}_implement$0$domain$$type_library$ 
03:0006C740 $event1@objectDB$event1{@Source,@Type1}_implement$0$domain$$type_library$ 
03:0006C750 $event1$typeLibDB$event1{@Source,@Type1}_implement$0$domain$$type_library$ 
03:0006C760 $anonymous$o0$1$addlistener/2np$event1{@Source,@Type1}$event1{@Source,@Type1}_implement$0$domain$$type_library$ 
03:0006C770 $anonymous$o1$1$addlistener/2np$event1{@Source,@Type1}$event1{@Source,@Type1}_implement$0$domain$$type_library$ 
03:0006C780 $anonymous$o2$1$addlistener/2np$event1{@Source,@Type1}$event1{@Source,@Type1}_implement$0$domain$$type_library$ 
03:0006C790 $anonymous$o3$1$addlistener/2np$event1{@Source,@Type1}$event1{@Source,@Type1}_implement$0$domain$$type_library$ 
03:0006C7A0 $anonymous$o4$1$addlistener/2np$event1{@Source,@Type1}$event1{@Source,@Type1}_implement$0$domain$$type_library$ 
03:0006C7B0 $anonymous$o5$1$addlistener/2np$event1{@Source,@Type1}$event1{@Source,@Type1}_implement$0$domain$$type_library$ 
03:0006C7C0 $event0@objectDB$event0{@Source}_implement$0$domain$$type_library$ 
03:0006C7D0 $event0$typeLibDB$event0{@Source}_implement$0$domain$$type_library$ 
03:0006C7E0 $anonymous$o0$1$addlistener/2np$event0{@Source}$event0{@Source}_implement$0$domain$$type_library$ 
03:0006C7F0 $anonymous$o1$1$addlistener/2np$event0{@Source}$event0{@Source}_implement$0$domain$$type_library$ 
03:0006C800 $anonymous$o2$1$addlistener/2np$event0{@Source}$event0{@Source}_implement$0$domain$$type_library$ 
03:0006C810 $anonymous$o3$1$addlistener/2np$event0{@Source}$event0{@Source}_implement$0$domain$$type_library$ 
03:0006C820 $anonymous$o4$1$addlistener/2np$event0{@Source}$event0{@Source}_implement$0$domain$$type_library$ 
03:0006C830 $anonymous$o5$1$addlistener/2np$event0{@Source}$event0{@Source}_implement$0$domain$$type_library$ 
--- From 'Obj\reflection.0F000252.obj'
03:0006C840 $typeKind$pfc\reflection\reflection_class$0$domain$$type_library$ 
03:0006C850 $anyTermValue$pfc\reflection\reflection_native_class$0$domain$$type_library$ 
03:0006C860 $factDbValue$pfc\reflection\reflection_native_class$0$domain$$type_library$ 
03:0006C870 $prologPredicateValue$pfc\reflection\reflection_native_class$0$domain$$type_library$ 
03:0006C880 $predicateMode$pfc\reflection\reflection_class$0$domain$$type_library$ 
03:0006C890 $functor$pfc\reflection\reflection_class$0$domain$$type_library$ 
03:0006C8A0 $callingConvention$pfc\reflection\reflection_class$0$domain$$type_library$ 
--- From 'Obj\varm.17B5C45B.obj'
03:0006C8B0 $reference$varM_reference{@Term}_class$0$domain$$type_library$ 
03:0006C8C0 $varM_reference@objectDB$varM_reference{@Term}_implement$0$domain$$type_library$ 
03:0006C8D0 $varm_reference$typeLibDB$varM_reference{@Term}_implement$0$domain$$type_library$ 
03:0006C8E0 $varm_optional$typeLibDB$varM_optional{@Term}_implement$0$domain$$type_library$ 
03:0006C8F0 $varM@objectDB$varM{@Term}_implement$0$domain$$type_library$ 
03:0006C900 $varm$typeLibDB$varM{@Term}_implement$0$domain$$type_library$ 
03:0006C910 $anonymous$o0$1$newmodel_unary/2np$varM{@Term}$varM{@Term}_implement$0$domain$$type_library$ 
03:0006C920 $anonymous$o0$2$newmodel_unary/2np$varM{@Term}$varM{@Term}_implement$0$domain$$type_library$ 
03:0006C930 $anonymous$o0$1$newmodel_binary/3np$varM{@Term}$varM{@Term}_implement$0$domain$$type_library$ 
03:0006C940 $anonymous$o0$2$newmodel_binary/3np$varM{@Term}$varM{@Term}_implement$0$domain$$type_library$ 
045000:027950 003410   VIPInter::VIPInter::.rdata F=4
--- From 'Obj\varm.17B5C45B.obj'
03:0006C950 interface$object 
--- From 'Obj\std.1C7A9F9B.obj'
03:0006C990 $object$_global_class$0$domain$ 
03:0006C9C0 interface$disposable 
03:0006CA20 $disposable$_global_class$0$domain$ 
03:0006CA50 interface$runtimeLinknamesKernel 
03:0006CAE0 $runtimeLinknamesKernel$_global_class$0$domain$ 
03:0006CB30 interface$runtimeLinkNamesRun 
03:0006CBB0 $runtimeLinkNamesRun$_global_class$0$domain$ 
--- From 'Obj\filesystem.57D9C483.obj'
03:0006CBF0 interface$bufferSupport 
--- From 'Obj\core.4BC2D97D.obj'
03:0006CC70 $bufferSupport$_global_class$0$domain$ 
03:0006CCC0 $offsetPtr$bufferSupport_interface$0$domain$ 
--- From 'Obj\filesystem.57D9C483.obj'
03:0006CD10 interface$inputStream 
03:0006CD80 $inputStream$_global_class$0$domain$ 
03:0006CDB0 interface$outputStream 
03:0006CE30 $outputStream$_global_class$0$domain$ 
--- From 'Obj\core.4BC2D97D.obj'
03:0006CE70 $outputSerializer$outputStream_interface$0$domain$ 
03:0006CEB0 interface$stdioState 
03:0006CF20 $stdioState$_global_class$0$domain$ 
--- From 'Obj\filesystem.57D9C483.obj'
03:0006CF50 interface$stream 
--- From 'Obj\core.4BC2D97D.obj'
03:0006CFB0 $stream$_global_class$0$domain$ 
--- From 'Obj\filesystem.57D9C483.obj'
03:0006D020 $mode$stream_interface$0$domain$ 
--- From 'Obj\event.35BDD536.obj'
03:0006D080 interface$event0{@Source} 
--- From 'Obj\varm.17B5C45B.obj'
03:0006D0F0 $event0{@Source}$_global_class$1$domain$ 
--- From 'Obj\event.35BDD536.obj'
03:0006D120 $listener$event0{@Source}_interface$0$domain$ 
03:0006D150 interface$event1{@Source,@Type1} 
03:0006D1D0 $event1{@Source,@Type1}$_global_class$2$domain$ 
03:0006D200 $listener$event1{@Source,@Type1}_interface$0$domain$ 
03:0006D230 interface$event2{@Source,@Type1,@Type2} 
03:0006D2C0 $event2{@Source,@Type1,@Type2}$_global_class$3$domain$ 
03:0006D2F0 $listener$event2{@Source,@Type1,@Type2}_interface$0$domain$ 
03:0006D320 interface$event3{@Source,@Type1,@Type2,@Type3} 
03:0006D3C0 $event3{@Source,@Type1,@Type2,@Type3}$_global_class$4$domain$ 
03:0006D3F0 $listener$event3{@Source,@Type1,@Type2,@Type3}_interface$0$domain$ 
03:0006D420 interface$event4{@Source,@Type1,@Type2,@Type3,@Type4} 
03:0006D4D0 $event4{@Source,@Type1,@Type2,@Type3,@Type4}$_global_class$5$domain$ 
03:0006D500 $listener$event4{@Source,@Type1,@Type2,@Type3,@Type4}_interface$0$domain$ 
03:0006D530 interface$event5{@Source,@Type1,@Type2,@Type3,@Type4,@Type5} 
03:0006D5E0 $event5{@Source,@Type1,@Type2,@Type3,@Type4,@Type5}$_global_class$6$domain$ 
03:0006D610 $listener$event5{@Source,@Type1,@Type2,@Type3,@Type4,@Type5}_interface$0$domain$ 
03:0006D640 interface$event6{@Source,@Type1,@Type2,@Type3,@Type4,@Type5,@Type6} 
03:0006D700 $event6{@Source,@Type1,@Type2,@Type3,@Type4,@Type5,@Type6}$_global_class$7$domain$ 
03:0006D730 $listener$event6{@Source,@Type1,@Type2,@Type3,@Type4,@Type5,@Type6}_interface$0$domain$ 
03:0006D760 interface$event7{@Source,@Type1,@Type2,@Type3,@Type4,@Type5,@Type6,@Type7} 
03:0006D830 $event7{@Source,@Type1,@Type2,@Type3,@Type4,@Type5,@Type6,@Type7}$_global_class$8$domain$ 
03:0006D860 $listener$event7{@Source,@Type1,@Type2,@Type3,@Type4,@Type5,@Type6,@Type7}_interface$0$domain$ 
--- From 'Obj\memory.9BD3BF38.obj'
03:0006D890 interface$weakPointer 
03:0006D900 $weakPointer$_global_class$0$domain$ 
03:0006D930 interface$weakReference{@Type} 
--- From 'Obj\varm.17B5C45B.obj'
03:0006D9C0 $weakReference{@Type}$_global_class$1$domain$ 
--- From 'Obj\exception.544F7452.obj'
03:0006DA00 interface$errorDescriptorInformation 
03:0006DAB0 $errorDescriptorInformation$_global_class$0$domain$ 
--- From 'Obj\core.4BC2D97D.obj'
03:0006DB00 interface$trapInformationObject 
03:0006DBA0 $trapInformationObject$_global_class$0$domain$ 
--- From 'Obj\filesystem.57D9C483.obj'
03:0006DBF0 interface$inputBuffer 
03:0006DC90 $inputBuffer$_global_class$0$domain$ 
03:0006DCC0 interface$inputSupport 
03:0006DD60 $inputSupport$_global_class$0$domain$ 
03:0006DDA0 interface$outputBuffer 
03:0006DE40 $outputBuffer$_global_class$0$domain$ 
03:0006DE80 interface$outputSupport 
03:0006DF20 $outputSupport$_global_class$0$domain$ 
--- From 'Obj\core.4BC2D97D.obj'
03:0006DF60 interface$outputStream_string 
03:0006DFF0 $outputStream_string$_global_class$0$domain$ 
03:0006E030 $contentsChangedListener$outputStream_string_interface$0$domain$ 
--- From 'Obj\exception.544F7452.obj'
03:0006E080 interface$outputStream_binary 
03:0006E110 $outputStream_binary$_global_class$0$domain$ 
--- From 'Obj\arraym_inline.5CB777DB.obj'
03:0006E150 interface$collection{@Type} 
--- From 'Obj\list.1520BD2B.obj'
03:0006E1D0 $collection{@Type}$_global_class$1$domain$ 
--- From 'Obj\arraym_inline.5CB777DB.obj'
03:0006E200 interface$arrayM_inline{@ItemType} 
03:0006E2C0 $arrayM_inline{@ItemType}$_global_class$1$domain$ 
03:0006E300 interface$map{@Key,@Data} 
--- From 'Obj\list.1520BD2B.obj'
03:0006E370 $map{@Key,@Data}$_global_class$2$domain$ 
--- From 'Obj\arraym_inline.5CB777DB.obj'
03:0006E390 interface$mapM{@Key,@Data} 
--- From 'Obj\list.1520BD2B.obj'
03:0006E410 $mapM{@Key,@Data}$_global_class$2$domain$ 
03:0006E440 interface$mapP{@Self,@Key,@Data} 
03:0006E4C0 $mapP{@Self,@Key,@Data}$_global_class$3$domain$ 
--- From 'Obj\arraym_inline.5CB777DB.obj'
03:0006E4F0 interface$modifiable{@Type} 
--- From 'Obj\list.1520BD2B.obj'
03:0006E570 $modifiable{@Type}$_global_class$1$domain$ 
03:0006E5A0 interface$multiMapM{@Key,@Data} 
03:0006E630 $multiMapM{@Key,@Data}$_global_class$2$domain$ 
03:0006E660 interface$persistent{@Self,@Type} 
03:0006E6F0 $persistent{@Self,@Type}$_global_class$2$domain$ 
03:0006E720 interface$queueM{@Type} 
03:0006E790 $queueM{@Type}$_global_class$1$domain$ 
03:0006E7C0 interface$queueP{@Self,@Type} 
03:0006E840 $queueP{@Self,@Type}$_global_class$2$domain$ 
03:0006E870 interface$set{@Type} 
03:0006E8E0 $set{@Type}$_global_class$1$domain$ 
03:0006E900 interface$setM{@Type} 
03:0006E970 $setM{@Type}$_global_class$1$domain$ 
03:0006E9A0 interface$setP{@Self,@Type} 
03:0006EA20 $setP{@Self,@Type}$_global_class$2$domain$ 
--- From 'Obj\filesystem.57D9C483.obj'
03:0006EA50 interface$iStream_native 
03:0006EB10 $iStream_native$_global_class$0$domain$ 
03:0006EB50 interface$iUnknown 
03:0006EBF0 $iUnknown$_global_class$0$domain$ 
--- From 'Obj\core.4BC2D97D.obj'
03:0006EC20 interface$resourceIdentifiers 
03:0006ECA0 $resourceIdentifiers$_global_class$0$domain$ 
--- From 'Obj\exception.544F7452.obj'
03:0006ECE0 interface$pfc\reflection\functorDescriptor 
03:0006EDB0 $pfc\reflection\functorDescriptor$_global_class$0$domain$ 
03:0006EE10 interface$pfc\reflection\scopeDescriptor 
03:0006EED0 $pfc\reflection\scopeDescriptor$_global_class$0$domain$ 
03:0006EF52 $scopeKind$pfc\reflection\scopeDescriptor_interface$0$domain$ 
03:0006EFF0 interface$pfc\reflection\typeLibrary 
03:0006F0A0 $pfc\reflection\typeLibrary$_global_class$0$domain$ 
03:0006F0F0 $wrapPresenter$pfc\reflection\typeLibrary_interface$0$domain$ 
03:0006F130 interface$pfc\reflection\typeLibrary_functor 
03:0006F200 $pfc\reflection\typeLibrary_functor$_global_class$0$domain$ 
--- From 'Obj\collectionsupport.6DAD372D.obj'
03:0006F260 interface$collectionSupport\collectionSite{@Type} 
03:0006F340 $collectionSupport\collectionSite{@Type}$_global_class$1$domain$ 
--- From 'Obj\arraym_inline.5CB777DB.obj'
03:0006F3A0 interface$collectionSupport\collectionSupport{@Type} 
--- From 'Obj\collectionsupport.6DAD372D.obj'
03:0006F490 $collectionSupport\collectionSupport{@Type}$_global_class$1$domain$ 
--- From 'Obj\arraym_inline.5CB777DB.obj'
03:0006F4F0 interface$collectionSupportM\collectionMsite{@Type} 
03:0006F5F0 $collectionSupportM\collectionMsite{@Type}$_global_class$1$domain$ 
03:0006F650 interface$collectionSupportM\collectionMsupport{@Type} 
03:0006F750 $collectionSupportM\collectionMsupport{@Type}$_global_class$1$domain$ 
03:0006F7C0 interface$collectionSupportM\mapMSite{@Key,@Data} 
03:0006F8A0 $collectionSupportM\mapMSite{@Key,@Data}$_global_class$2$domain$ 
03:0006F8F0 interface$mapMSupport{@Key,@Data} 
03:0006F9B0 $mapMSupport{@Key,@Data}$_global_class$2$domain$ 
--- From 'Obj\varm.17B5C45B.obj'
03:0006F9E0 interface$varM{@Term} 
03:0006FA40 $varM{@Term}$_global_class$1$domain$ 
03:0006FA70 interface$varM_boolean 
03:0006FAE0 $varM_boolean$_global_class$0$domain$ 
03:0006FB20 interface$varM_integer 
03:0006FB90 $varM_integer$_global_class$0$domain$ 
03:0006FBD0 interface$varM_optional{@Value} 
03:0006FC60 $varM_optional{@Value}$_global_class$1$domain$ 
03:0006FCA0 interface$varM_unsigned 
03:0006FD20 $varM_unsigned$_global_class$0$domain$ 
045000:02AD60 004570   VIPConst::VIPConst::.rdata F=4
--- From 'Obj\stream.99784C5B.obj'
03:0006FDB8 $endOfStream$stream_exception_class$constant$ 
03:0006FE84 $notSupportedProperty$stream_exception_class$constant$ 
03:0006FF24 $noCRLFconversion$stream_exception_class$constant$ 
03:0006FFC4 $wrongMode$stream_exception_class$constant$ 
03:00070054 $noStream$stream_exception_class$constant$ 
--- From 'Obj\string.B0A67F43.obj'
03:000700E8 $emptyString$string_exception_class$constant$ 
03:000701AC $outOfBoundaries$string_exception_class$constant$ 
03:00070250 $oddOffset$string_exception_class$constant$ 
--- From 'Obj\filesystem_api.1C9354BA.obj'
03:000702F0 $cannotCreate$fileSystem_api_class$constant$ 
03:00070370 $cannotGetFileSize$fileSystem_api_class$constant$ 
03:00070404 $cannotSetFilePointer$fileSystem_api_class$constant$ 
--- From 'Obj\time_api.21FCC41B.obj'
03:000704C4 $cannotGetDateTimeFormat$time_api_class$constant$ 
03:00070548 $cannotGetLocaleInfo$time_api_class$constant$ 
--- From 'Obj\binary.9C7C16C6.obj'
03:000705F0 $invalidCompressionFormat$binary_exception_class$constant$ 
03:00070678 $internalDecodeError$binary_exception_class$constant$ 
03:0007070C $indexOutOfRange$binary_exception_class$constant$ 
03:000707A0 $wrongBinaryFormat$binary_exception_class$constant$ 
--- From 'Obj\exception.544F7452.obj'
03:00070818 $systemException$runtime_exception_class$constant$ 
03:0007089C $realOverflow$runtime_exception_class$constant$ 
03:00070930 $realDivideByZero$runtime_exception_class$constant$ 
03:000709B4 $arithmeticOverflow$runtime_exception_class$constant$ 
03:00070A80 $mismatchVersion$runtime_exception_class$constant$ 
03:00070AF8 $osError$runtime_exception_class$constant$ 
03:00070B88 $cannotLoadLibrary$runtime_exception_class$constant$ 
03:00070C50 $cannotGetProcAddress$runtime_exception_class$constant$ 
03:00070CD8 $gcAbend$runtime_exception_class$constant$ 
03:00070D64 $gcError$runtime_exception_class$constant$ 
03:00070DCC $heapOverflow$runtime_exception_class$constant$ 
03:00070E58 $invalidTerm$runtime_exception_class$constant$ 
03:00070F20 $noRangeNumber$runtime_exception_class$constant$ 
03:00070FD8 $fromString$runtime_exception_class$constant$ 
03:00071098 $fromBinary$runtime_exception_class$constant$ 
03:0007111C $negZero$runtime_exception_class$constant$ 
03:000711C4 $objectConversion$runtime_exception_class$constant$ 
03:0007124C $cyclicInheritance$runtime_exception_class$constant$ 
03:000712EC $functorNotFound$runtime_exception_class$constant$ 
03:000713A8 $determFact$runtime_exception_class$constant$ 
03:00071448 $invalidFormat$runtime_exception_class$constant$ 
03:000714E8 $unsupportedFormat$runtime_exception_class$constant$ 
03:000715C0 $wrongNumberArgumentForFormat$runtime_exception_class$constant$ 
03:0007167C $integerExpected$runtime_exception_class$constant$ 
03:00071710 $parserUnexpectedEOS$runtime_exception_class$constant$ 
03:00071790 $unGetChar$runtime_exception_class$constant$ 
03:00071820 $vip6runInternalError$runtime_exception_class$constant$ 
03:000718EC $invalidTermRepresentation$runtime_exception_class$constant$ 
03:0007196C $consult_WrongComment$runtime_exception_class$constant$ 
03:00071A0C $consult_WrongUsageOfKeyword$runtime_exception_class$constant$ 
03:00071AC4 $retractSingleFact$runtime_exception_class$constant$ 
03:00071B6C $expectedChar$runtime_exception_class$constant$ 
03:00071BF4 $freeVariable$runtime_exception_class$constant$ 
03:00071C84 $singleFactHasNoValue$runtime_exception_class$constant$ 
03:00071D34 $valueCannotBeConvertedToType$runtime_exception_class$constant$ 
03:00071DB4 $mustUnifyFailed$runtime_exception_class$constant$ 
03:00071E5C $accessToNotInitializedFact$runtime_exception_class$constant$ 
03:00071EE8 $chainDB_DBAlreadyOpen$runtime_exception_class$constant$ 
03:00071F8C $chainDB_InvalidDBFileName$runtime_exception_class$constant$ 
03:00072010 $chainDB_NotOpenDB$runtime_exception_class$constant$ 
03:00072098 $chainDB_ExistsBTree$runtime_exception_class$constant$ 
03:00072160 $chainDB_ExistsDBInPlace$runtime_exception_class$constant$ 
03:000721F0 $chainDB_InvalidOrderValue$runtime_exception_class$constant$ 
03:00072288 $chainDB_InvalidKeyValue$runtime_exception_class$constant$ 
03:00072334 $chainDB_UnableOpenDB$runtime_exception_class$constant$ 
03:000723B8 $chainDB_InvalidDB$runtime_exception_class$constant$ 
03:00072448 $chainDB_UnableDeleteDB$runtime_exception_class$constant$ 
03:000724D4 $chainDB_InvalidRefVal$runtime_exception_class$constant$ 
03:00072554 $chainDB_AbsentChain$runtime_exception_class$constant$ 
03:000725D0 $chainDB_AbsentBTree$runtime_exception_class$constant$ 
03:00072664 $chainDB_InvalidBTreeSel$runtime_exception_class$constant$ 
03:000726FC $chainDB_DeleteOpenBTree$runtime_exception_class$constant$ 
03:000727AC $chainDB_NotFoundKeyAndRef$runtime_exception_class$constant$ 
03:00072848 $chainDB_IncorrectDBVersion$runtime_exception_class$constant$ 
03:000728E8 $chainDB_NotInTransaction$runtime_exception_class$constant$ 
03:000729C8 $chainDB_WriteROTransaction$runtime_exception_class$constant$ 
03:00072A80 $chainDB_AlreadyOpenTransaction$runtime_exception_class$constant$ 
03:00072B50 $chainDB_UpdatingROTransaction$runtime_exception_class$constant$ 
03:00072BF8 $chainDB_TimeOutTransaction$runtime_exception_class$constant$ 
03:00072CAC $chainDB_DuplicateKey$runtime_exception_class$constant$ 
03:00072D90 $chainDB_WrongChainToDeleteTerm$runtime_exception_class$constant$ 
03:00072E68 $chainDB_ReadWrongNumberBytes$runtime_exception_class$constant$ 
03:00072F44 $chainDB_WriteWrongNumberBytes$runtime_exception_class$constant$ 
03:00072FD4 $chainDB_OSNativeError$runtime_exception_class$constant$ 
03:0007304C $binary_invalidBlock$runtime_exception_class$constant$ 
03:000730DC $binary_invalidFormat$runtime_exception_class$constant$ 
03:0007318C $binary_DecodeInternalError$runtime_exception_class$constant$ 
03:00073244 $odbc_unidentifiedError$runtime_exception_class$constant$ 
03:00073340 $sql_invalidHandle$runtime_exception_class$constant$ 
03:00073418 $sql_stillExecuting$runtime_exception_class$constant$ 
03:000734B0 $sql_needData$runtime_exception_class$constant$ 
03:00073520 $sql_noDataFound$runtime_exception_class$constant$ 
03:000735D0 $sql_error$runtime_exception_class$constant$ 
03:00073660 $odbc_error$runtime_exception_class$constant$ 
03:000736FC $externalError$exception_exception_class$constant$ 
03:00073784 $internal$exception_class$constant$ 
03:00073804 $couldNotCreate$exception_class$constant$ 
03:00073878 $removeListener$exception_class$constant$ 
--- From 'Obj\filesystem.57D9C483.obj'
03:00073910 $nativeCallException$exception_class$constant$ 
--- From 'Obj\exception.544F7452.obj'
03:0007398C $unsupportedPredicate$exception_class$constant$ 
03:00073A08 $overloadingExpected$exception_class$constant$ 
03:00073A9C $exceptionInListener$exception_class$constant$ 
03:00073B3C $unknown$exception_class$constant$ 
--- From 'Obj\filesystem.57D9C483.obj'
03:00073BC8 $fileAlreadyExists$fileSystem_exception_class$constant$ 
03:00073C5C $wrongAttribute$fileSystem_exception_class$constant$ 
03:00073D28 $fileTooBig$fileSystem_exception_class$constant$ 
--- From 'Obj\math.724D21D5.obj'
03:00073DE0 $asinOutOfBounds$math_exception_class$constant$ 
03:00073E8C $acoshOutOfBounds$math_exception_class$constant$ 
03:00073F44 $atanhOutOfBounds$math_exception_class$constant$ 
03:00073FFC $acotanhOutOfBounds$math_exception_class$constant$ 
03:00074094 $cotanhInfinityResult$math_exception_class$constant$ 
--- From 'Obj\namedvalue.187E0B91.obj'
03:00074118 $nameNotInMap$namedValue_class$constant$ 
--- From 'Obj\registry.88C8A89A.obj'
03:000741BC $wrongValue$registry_exception_class$constant$ 
03:0007422C $noPath$registry_exception_class$constant$ 
03:000742BC $cannotCreateKey$registry_exception_class$constant$ 
Frame 075000   Size 0004B0.  Name=<  VIPini>, 	Chars=40000040h. [IR]
075000:000000 000004   VIPini$A::VIPini$A::VIPini F=4
--- From 'Obj\main.A22FE9BF.obj'
04:00075000 _VIPStartOfClassDescriptors 
075000:000004 00028C   VIPini$C::VIPini$C::VIPini F=4
075000:000290 000008   VIPini$E::VIPini$E::VIPini F=4
Frame 076000   Size 000010.  Name=<  VIPsym>, 	Chars=40000040h. [IR]
076000:000000 000004   VIPsym$A::VIPsym$A::VIPsym F=4
--- From 'Obj\main.A22FE9BF.obj'
05:00076000 _VIPStartOfSymbols 
076000:000004 000000   VIPsym$C::VIPsym$C::VIPsym F=4
076000:000004 000008   VIPsym$E::VIPsym$E::VIPsym F=4
Frame 077000   Size 000C00.  Name=<  VIPtpd>, 	Chars=40000040h. [IR]
077000:000000 000004   VIPtpd$A::VIPtpd$A::VIPtpd F=4
--- From 'Obj\main.A22FE9BF.obj'
06:00077000 _VIPStartOfTypeDescriptors 
077000:000004 000BF4   VIPtpd$C::VIPtpd$C::VIPtpd F=4
077000:000BF8 000008   VIPtpd$E::VIPtpd$E::VIPtpd F=4
Frame 078000   Size 000BF0.  Name=<  VIPtpl>, 	Chars=40000040h. [IR]
078000:000000 000004   VIPtpl$A::VIPtpl$A::VIPtpl F=4
--- From 'Obj\main.A22FE9BF.obj'
07:00078000 _VIPStartOfTypeLibraries 
078000:000004 000BE4   VIPtpl$C::VIPtpl$C::VIPtpl F=4
078000:000BE8 000008   VIPtpl$E::VIPtpl$E::VIPtpl F=4
Frame 079000   Size 000170.  Name=<   .data>, 	Chars=C0000040h. [IRW]
079000:000000 00015C   .data::DATA::DGROUP F=4
079000:00015C 00000C   .bss::BSS::DGROUP F=4
Frame 07A000   Size 000030.  Name=< .gcroot>, 	Chars=C0000040h. [IRW]
07A000:000000 000024   .gcroot::.gcroot::.gcroot F=4
--- Total Cnt   =  3830 --------
[import] 'Obj\gui_api.5B4BA4CC.obj' USER32.dll. _MonitorFromRect@8 
[import] 'Obj\memory.9BD3BF38.obj' vipRun.dll. __imp_?alignedFunctorlessFunctorDescriptorVTBL_ptr@RunTime@VIP@@3PAXA 
[import] 'Obj\varm.17B5C45B.obj' vipRun.dll. ?compareTerms@RunTime@VIP@@YG?AW4compareResult@_builtIn_class@@QBVtypeLibrary@12@PAX1@Z 
[import] 'Obj\exception.544F7452.obj' vipKernel.dll. ?GetLineFromAddrProlog@Kernel@VIP@@YGXPBXPAIPAPBG@Z 
[import] 'Obj\binary.9C7C16C6.obj' vipRun.dll. ?binarySearch@RunTime@VIP@@YAIPBEI0I@Z 
[import] 'Obj\exception.544F7452.obj' KERNEL32.dll. _VirtualQuery@12 
[import] 'Obj\binary.9C7C16C6.obj' vipKernel.dll. ?MEM_alloc_nullfunctor@Kernel@VIP@@YGPBEI@Z 
[import] 'Obj\console.043C10C8.obj' KERNEL32.dll. _ReadFile@20 
[import] 'Obj\std.1C7A9F9B.obj' vipRun.dll. ?addInteger64_prolog@RunTime@VIP@@YG_J_J0@Z 
[import] 'Obj\filesystem_api.1C9354BA.obj' KERNEL32.dll. _WriteFile@20 
[import] 'Obj\filesystem.57D9C483.obj' VERSION.dll. _GetFileVersionInfoSizeW@8 
[import] 'Obj\filesystem.57D9C483.obj' KERNEL32.dll. _CloseHandle@4 
[import] 'Obj\binary.9C7C16C6.obj' vipRun.dll. ?InitInputParser@RunTime@VIP@@YGPAVRInputStreamImpl@12@QAVRROBufferProvider@12@QAEI@Z 
[import] 'Obj\filesystem_api.1C9354BA.obj' KERNEL32.dll. _FlushFileBuffers@4 
[import] 'Obj\event.35BDD536.obj' vipRun.dll. ?Unify@RunTime@VIP@@YGXQBVtypeLibrary@12@PAX1@Z 
[import] 'Obj\registry_api.0E78C5E3.obj' ADVAPI32.dll. _RegCloseKey@4 
[import] 'Obj\filesystem.57D9C483.obj' vipKernel.dll. ?OSZeroMemory@Kernel@VIP@@YAXPAXI@Z 
[import] 'Obj\registry_api.0E78C5E3.obj' ADVAPI32.dll. _RegOpenKeyExW@20 
[import] 'Obj\event.35BDD536.obj' vipRun.dll. ?FinishRetractWCTS@RunTime@VIP@@YGXPAVrFactItem@12@PAPAV312@@Z 
[import] 'Obj\filesystem_api.1C9354BA.obj' KERNEL32.dll. _DuplicateHandle@28 
[import] 'Obj\filesystem.57D9C483.obj' vipRun.dll. ?InitWrite@RunTime@VIP@@YGPAVROutputStreamImpl@12@QAVRBufferProvider@12@@Z 
[import] 'Obj\filesystem_api.1C9354BA.obj' KERNEL32.dll. _GetOverlappedResult@16 
[import] 'Obj\programcontrol.5D08C78A.obj' vipKernel.dll. ?AllocHeapWCTS@Kernel@VIP@@YGQAEIIII@Z 
[import] 'Obj\exception.544F7452.obj' KERNEL32.dll. _SetErrorMode@4 
[import] 'Obj\exe.3A8A8F5C.obj' KERNEL32.dll. _GetCommandLineW@0 
[import] 'Obj\filesystem_api.1C9354BA.obj' KERNEL32.dll. _CreateIoCompletionPort@16 
[import] 'Obj\math.724D21D5.obj' vipRun.dll. ?trunc@RunTime@VIP@@YANN@Z 
[import] 'Obj\namedvalue.187E0B91.obj' vipRun.dll. ?toString@RunTime@VIP@@YGPBGQBVtypeLibrary@12@PAX@Z 
[import] 'Obj\string.B0A67F43.obj' vipRun.dll. ?log@RunTime@VIP@@YANN@Z 
[import] 'Obj\exceptiondump.174B23B9.obj' vipRun.dll. ?tryString2Term@RunTime@VIP@@YGXQBVtypeLibrary@12@PBGPAPAX@Z 
[import] 'Obj\registry.88C8A89A.obj' vipRun.dll. ?create@RunTime@VIP@@YAPBGI@Z 
[import] 'Obj\filesystem_api.1C9354BA.obj' KERNEL32.dll. _GetQueuedCompletionStatus@20 
[import] 'Obj\string.B0A67F43.obj' USER32.dll. _IsCharLowerW@4 
[import] 'Obj\filesystem_api.1C9354BA.obj' KERNEL32.dll. _PostQueuedCompletionStatus@16 
[import] 'Obj\string.B0A67F43.obj' USER32.dll. _IsCharAlphaNumericW@4 
[import] 'Obj\filesystem_api.1C9354BA.obj' KERNEL32.dll. _ReadDirectoryChangesW@32 
[import] 'Obj\string.B0A67F43.obj' vipRun.dll. ?searchch@RunTime@VIP@@YG_NPBGGQAI@Z 
[import] 'Obj\filesystem_api.1C9354BA.obj' KERNEL32.dll. _CancelIo@4 
[import] 'Obj\exe.3A8A8F5C.obj' vipRun.dll. ?trimFront@RunTime@VIP@@YAPBGPBG@Z 
[import] 'Obj\multithread_api.6DC4E6F9.obj' KERNEL32.dll. _SetProcessAffinityMask@8 
[import] 'Obj\string.B0A67F43.obj' USER32.dll. _CharLowerW@4 
[import] 'Obj\registry.88C8A89A.obj' KERNEL32.dll. _GetCurrentProcess@0 
[import] 'Obj\string.B0A67F43.obj' vipRun.dll. ?searchBack@RunTime@VIP@@YG_NPBG0QAI@Z 
[import] 'Obj\multithread_api.6DC4E6F9.obj' KERNEL32.dll. _GetThreadSelectorEntry@12 
[import] 'Obj\string.B0A67F43.obj' vipRun.dll. ?replace@RunTime@VIP@@YGPBGPBG00H_NAAI@Z 
[import] 'Obj\multithread_api.6DC4E6F9.obj' KERNEL32.dll. _SetThreadContext@8 
[import] 'Obj\string.B0A67F43.obj' KERNEL32.dll. _IsBadStringPtrW@8 
[import] 'Obj\multithread_api.6DC4E6F9.obj' KERNEL32.dll. _GetThreadContext@8 
[import] 'Obj\string.B0A67F43.obj' vipRun.dll. ?tryCheckPosition@RunTime@VIP@@YGXIPBG@Z 
[import] 'Obj\multithread_api.6DC4E6F9.obj' KERNEL32.dll. _GetProcAddress@8 
[import] 'Obj\exception.544F7452.obj' vipRun.dll. ?format2String@RunTime@VIP@@YGQBGQBGQBVrEllipsisArguments@12@@Z 
[import] 'Obj\main.A22FE9BF.obj' vipRun.dll. __imp_?binaryTypeDescriptorVTBL_ptr@RunTime@VIP@@3PAXA 
[import] 'Obj\memory.9BD3BF38.obj' vipKernel.dll. ?MEM_alloc_listElementWCAP@Kernel@VIP@@YGPBU?$__packedList_struct@E@@XZ 
[import] 'Obj\multithread_api.6DC4E6F9.obj' KERNEL32.dll. _CancelWaitableTimer@4 
[import] 'Obj\string.B0A67F43.obj' KERNEL32.dll. _CompareStringW@24 
[import] 'Obj\programcontrol.5D08C78A.obj' vipKernel.dll. ?SetPrologExceptionPredicate@Kernel@VIP@@YGXQBVRPrologExceptionPredicateStruct@12@PAPAV312@@Z 
[import] 'Obj\filesystem.57D9C483.obj' KERNEL32.dll. _lstrlenW@4 
[import] 'Obj\multithread_api.6DC4E6F9.obj' KERNEL32.dll. _SetWaitableTimer@24 
[import] 'Obj\time_api.21FCC41B.obj' vipRun.dll. ?universalNumericConvert8_ex@RunTime@VIP@@YGXPBVnumericTypeDescriptor_internal@12@0_JPAX_N@Z 
[import] 'Obj\multithread_api.6DC4E6F9.obj' KERNEL32.dll. _OpenWaitableTimerW@12 
[import] 'Obj\binary.9C7C16C6.obj' KERNEL32.dll. _lstrlenA@4 
[import] 'Obj\multithread_api.6DC4E6F9.obj' KERNEL32.dll. _CreateWaitableTimerW@12 
[import] 'Obj\string8_api.41F368A6.obj' KERNEL32.dll. _MultiByteToWideChar@24 
[import] 'Obj\multithread_api.6DC4E6F9.obj' KERNEL32.dll. _ReleaseSemaphore@12 
[import] 'Obj\time_api.21FCC41B.obj' KERNEL32.dll. _GetDateFormatW@24 
[import] 'Obj\multithread_api.6DC4E6F9.obj' KERNEL32.dll. _OpenSemaphoreW@12 
[import] 'Obj\gui_api.5B4BA4CC.obj' vipRun.dll. ?ConvertExUU@RunTime@VIP@@YGIPBVbaseUnsignedDWordTypeDescriptor@12@PBV?$numericTypeDescriptor@I@12@IH@Z 
[import] 'Obj\multithread_api.6DC4E6F9.obj' KERNEL32.dll. _CreateSemaphoreW@16 
[import] 'Obj\filesystem.57D9C483.obj' KERNEL32.dll. _GetFileType@4 
[import] 'Obj\multithread_api.6DC4E6F9.obj' KERNEL32.dll. _ReleaseMutex@4 
[import] 'Obj\console.043C10C8.obj' KERNEL32.dll. _WriteConsoleW@20 
[import] 'Obj\multithread_api.6DC4E6F9.obj' KERNEL32.dll. _OpenMutexW@12 
[import] 'Obj\console.043C10C8.obj' KERNEL32.dll. _ReadConsoleW@20 
[import] 'Obj\multithread_api.6DC4E6F9.obj' KERNEL32.dll. _CreateMutexW@12 
[import] 'Obj\console.043C10C8.obj' vipRun.dll. ?Error_SingleFactHasNoValue@RunTime@VIP@@YAXQBVtypeLibrary@12@I@Z 
[import] 'Obj\multithread_api.6DC4E6F9.obj' KERNEL32.dll. _PulseEvent@4 
[import] 'Obj\time_api.21FCC41B.obj' vipRun.dll. ?addUnsigned64_prolog@RunTime@VIP@@YG_K_K0@Z 
[import] 'Obj\main.A22FE9BF.obj' vipRun.dll. __imp_?charTypeDescriptorVTBL_ptr@RunTime@VIP@@3PAXA 
[import] 'Obj\console.043C10C8.obj' KERNEL32.dll. _FlushConsoleInputBuffer@4 
[import] 'Obj\multithread_api.6DC4E6F9.obj' KERNEL32.dll. _ResetEvent@4 
[import] 'Obj\memory.9BD3BF38.obj' vipRun.dll. ?bitLeft@RunTime@VIP@@YAIII@Z 
[import] 'Obj\multithread_api.6DC4E6F9.obj' KERNEL32.dll. _SetEvent@4 
[import] 'Obj\time_api.21FCC41B.obj' KERNEL32.dll. _TzSpecificLocalTimeToSystemTime@12 
[import] 'Obj\main.A22FE9BF.obj' vipRun.dll. __imp_?string8TypeDescriptorVTBL_ptr@RunTime@VIP@@3PAXA 
[import] 'Obj\console.043C10C8.obj' KERNEL32.dll. _FreeConsole@0 
[import] 'Obj\multithread_api.6DC4E6F9.obj' KERNEL32.dll. _OpenEventW@12 
[import] 'Obj\time_api.21FCC41B.obj' KERNEL32.dll. _SystemTimeToTzSpecificLocalTime@12 
[import] 'Obj\memory.9BD3BF38.obj' vipRun.dll. ?AllocListElementByTypeP@RunTime@VIP@@YGPBU?$__packedList_struct@E@@QBVtypeLibrary@12@@Z 
[import] 'Obj\time_api.21FCC41B.obj' KERNEL32.dll. _GetTimeZoneInformation@4 
[import] 'Obj\multithread_api.6DC4E6F9.obj' KERNEL32.dll. _CreateEventW@16 
[import] 'Obj\outputstreamsupport.024B29AC.obj' vipRun.dll. ?writeBytes2Stream@RunTime@VIP@@YGXQAVROutputStreamImpl@12@QBEI@Z 
[import] 'Obj\memory_api.072B3D5C.obj' KERNEL32.dll. _LocalFree@4 
[import] 'Obj\reflection.0F000252.obj' vipKernel.dll. ?LocalCut2@Kernel@VIP@@YAXPAE@Z 
[import] 'Obj\memory_api.072B3D5C.obj' vipKernel.dll. ?OSlstrlen@Kernel@VIP@@YGHPBG@Z 
[import] 'Obj\registry.88C8A89A.obj' vipKernel.dll. ?StkTrap@Kernel@VIP@@YAXXZ 
[import] 'Obj\main.A22FE9BF.obj' vipRun.dll. __imp_?symbolTypeDescriptorVTBL_ptr@RunTime@VIP@@3PAXA 
[import] 'Obj\console.043C10C8.obj' KERNEL32.dll. _GetConsoleMode@8 
[import] 'Obj\console.043C10C8.obj' vipRun.dll. ?ConvertExUI@RunTime@VIP@@YGHPBVbaseUnsignedDWordTypeDescriptor@12@PBV?$numericTypeDescriptor@H@12@IH@Z 
[import] 'Obj\console.043C10C8.obj' KERNEL32.dll. _SetConsoleTextAttribute@8 
[import] 'Obj\main.A22FE9BF.obj' vipRun.dll. __imp_?stringTypeDescriptorVTBL_ptr@RunTime@VIP@@3PAXA 
[import] 'Obj\varm.17B5C45B.obj' vipKernel.dll. ?AllocHeapWithContext@Kernel@VIP@@YGQAEIII@Z 
[import] 'Obj\memory_api.072B3D5C.obj' KERNEL32.dll. _GlobalSize@4 
[import] 'Obj\console.043C10C8.obj' KERNEL32.dll. _GetConsoleOutputCP@0 
[import] 'Obj\memory.9BD3BF38.obj' vipRun.dll. __imp_?unsigned8TypeDescriptorVTBL_ptr@RunTime@VIP@@3PAXA 
[import] 'Obj\varm.17B5C45B.obj' vipRun.dll. __imp_?factFunctorDescriptorVTBL_ptr@RunTime@VIP@@3PAXA 
[import] 'Obj\memory_api.072B3D5C.obj' KERNEL32.dll. _GlobalUnlock@4 
[import] 'Obj\console.043C10C8.obj' KERNEL32.dll. _GetNumberOfConsoleInputEvents@8 
[import] 'Obj\memory_api.072B3D5C.obj' KERNEL32.dll. _GlobalLock@4 
[import] 'Obj\time_api.21FCC41B.obj' KERNEL32.dll. _GetSystemTimeAsFileTime@4 
[import] 'Obj\memory_api.072B3D5C.obj' KERNEL32.dll. _GlobalFree@4 
[import] 'Obj\filesystem.57D9C483.obj' KERNEL32.dll. _CopyFileW@12 
[import] 'Obj\memory_api.072B3D5C.obj' KERNEL32.dll. _GlobalAlloc@8 
[import] 'Obj\console.043C10C8.obj' KERNEL32.dll. _ReadConsoleInputW@16 
[import] 'Obj\gui_api.5B4BA4CC.obj' USER32.dll. _CreateDialogParamW@20 
[import] 'Obj\systeminformation_api.2DB6162F.obj' KERNEL32.dll. _GetComputerNameW@8 
[import] 'Obj\gui_api.5B4BA4CC.obj' USER32.dll. _CreateDialogIndirectParamW@20 
[import] 'Obj\filesystem.57D9C483.obj' KERNEL32.dll. _MoveFileExW@12 
[import] 'Obj\gui_api.5B4BA4CC.obj' USER32.dll. _SetScrollRange@20 
[import] 'Obj\list.1520BD2B.obj' vipKernel.dll. ?Succeed_Prolog@Kernel@VIP@@YAXXZ 
[import] 'Obj\memory_api.072B3D5C.obj' KERNEL32.dll. _GlobalMemoryStatusEx@4 
[import] 'Obj\systeminformation_api.2DB6162F.obj' ADVAPI32.dll. _GetUserNameW@8 
[import] 'Obj\gui_api.5B4BA4CC.obj' USER32.dll. _GetScrollRange@16 
[import] 'Obj\inputstreamsupport.7C36EDAA.obj' vipRun.dll. ?ParseBytes@RunTime@VIP@@YGPBVTBinary@@QAVRInputStreamImpl@12@I@Z 
[import] 'Obj\time_api.21FCC41B.obj' KERNEL32.dll. _GetLocaleInfoW@16 
[import] 'Obj\inputstreamsupport.7C36EDAA.obj' vipRun.dll. ?consultDatabase@RunTime@VIP@@YGXQBVfactDbValue@12@QAVRInputStreamImpl@12@@Z 
[import] 'Obj\locale_api.25A9E29D.obj' KERNEL32.dll. _GetNumberFormatW@24 
[import] 'Obj\inputstreamsupport.7C36EDAA.obj' vipRun.dll. ?ParseLineCRLF@RunTime@VIP@@YGPBGQAVRInputStreamImpl@12@@Z 
[import] 'Obj\gui_api.5B4BA4CC.obj' USER32.dll. _GetScrollInfo@12 
[import] 'Obj\inputstreamsupport.7C36EDAA.obj' vipRun.dll. ?ungetChar@RunTime@VIP@@YGXQAVRInputStreamImpl@12@@Z 
[import] 'Obj\list.1520BD2B.obj' vipRun.dll. ?isListMember_prolog@RunTime@VIP@@YAXXZ 
[import] 'Obj\core.4BC2D97D.obj' vipRun.dll. __imp_?unsigned16TypeDescriptorVTBL_ptr@RunTime@VIP@@3PAXA 
[import] 'Obj\gui_api.5B4BA4CC.obj' USER32.dll. _SetScrollInfo@16 
[import] 'Obj\time_api.21FCC41B.obj' vipRun.dll. __imp_?inlineTypeDescriptorVTBL_ptr@RunTime@VIP@@3PAXA 
[import] 'Obj\gui_api.5B4BA4CC.obj' USER32.dll. _ScrollWindowEx@32 
[import] 'Obj\filesystem.57D9C483.obj' KERNEL32.dll. _GetFileAttributesW@4 
[import] 'Obj\main.A22FE9BF.obj' vipRun.dll. __imp_?real32TypeDescriptorVTBL_ptr@RunTime@VIP@@3PAXA 
[import] 'Obj\filesystem.57D9C483.obj' KERNEL32.dll. _FindFirstFileW@8 
[import] 'Obj\gui_api.5B4BA4CC.obj' USER32.dll. _GetUpdateRgn@12 
[import] 'Obj\reflection.0F000252.obj' vipRun.dll. __imp_?enumericTypeDescriptorVTBL_ptr@RunTime@VIP@@3PAXA 
[import] 'Obj\gui_api.5B4BA4CC.obj' USER32.dll. _GetUpdateRect@12 
[import] 'Obj\vpidomains.CE78C30C.obj' vipRun.dll. __imp_?compoundFunctorDescriptorVTBL_ptr@RunTime@VIP@@3PAXA 
[import] 'Obj\math.724D21D5.obj' vipRun.dll. __imp_?real64TypeDescriptorVTBL_ptr@RunTime@VIP@@3PAXA 
[import] 'Obj\filesystem.57D9C483.obj' KERNEL32.dll. _FindNextFileW@8 
[import] 'Obj\gui_api.5B4BA4CC.obj' vipRun.dll. __imp_?functorlessUnionTypeDescriptorVTBL_ptr@RunTime@VIP@@3PAXA 
[import] 'Obj\systeminformation_api.2DB6162F.obj' KERNEL32.dll. _GetVersionExW@4 
[import] 'Obj\reflection.0F000252.obj' vipRun.dll. __imp_?unsigned32TypeDescriptorVTBL_ptr@RunTime@VIP@@3PAXA 
[import] 'Obj\string8_api.41F368A6.obj' USER32.dll. _CharNextExA@12 
[import] 'Obj\gui_api.5B4BA4CC.obj' vipRun.dll. ?ConvertExII@RunTime@VIP@@YGHPBVbaseIntegerDWordTypeDescriptor@12@PBV?$numericTypeDescriptor@H@12@HH@Z 
[import] 'Obj\main.A22FE9BF.obj' vipRun.dll. __imp_?anyTypeDescriptorVTBL_ptr@RunTime@VIP@@3PAXA 
[import] 'Obj\namedvalue.187E0B91.obj' vipRun.dll. ?Error_TermsCannotBeMatched2@RunTime@VIP@@YGXQBVtypeLibrary@12@PAXPBG@Z 
[import] 'Obj\filesystem.57D9C483.obj' KERNEL32.dll. _GetFullPathNameW@16 
[import] 'Obj\core.4BC2D97D.obj' vipRun.dll. __imp_?integer32TypeDescriptorVTBL_ptr@RunTime@VIP@@3PAXA 
[import] 'Obj\filesystem.57D9C483.obj' SHELL32.dll. _SHFileOperationW@4 
[import] 'Obj\gui_api.5B4BA4CC.obj' USER32.dll. _GetWindowPlacement@8 
[import] 'Obj\main.A22FE9BF.obj' vipRun.dll. __imp_?integer64TypeDescriptorVTBL_ptr@RunTime@VIP@@3PAXA 
[import] 'Obj\gui_api.5B4BA4CC.obj' USER32.dll. _SetWindowPlacement@8 
[import] 'Obj\filesystem.57D9C483.obj' ADVAPI32.dll. _IsTextUnicode@12 
[import] 'Obj\memory.9BD3BF38.obj' vipRun.dll. ?bitAnd64@RunTime@VIP@@YA_K_K0@Z 
[import] 'Obj\console.043C10C8.obj' KERNEL32.dll. _GetStdHandle@4 
[import] 'Obj\std.1C7A9F9B.obj' vipRun.dll. ?Comparison_U64@RunTime@VIP@@YG?AW4compareResult@_builtIn_class@@_K0@Z 
[import] 'Obj\console_api.885E7959.obj' KERNEL32.dll. _SetStdHandle@8 
[import] 'Obj\math.724D21D5.obj' vipRun.dll. ?ConvertExRR@RunTime@VIP@@YGNPBV?$numericTypeDescriptor@N@12@0NH@Z 
[import] 'Obj\console.043C10C8.obj' KERNEL32.dll. _SetConsoleCP@4 
[import] 'Obj\math.724D21D5.obj' vipRun.dll. ?sqrt@RunTime@VIP@@YANN@Z 
[import] 'Obj\shell_api.D9156D40.obj' SHELL32.dll. _CommandLineToArgvW@8 
[import] 'Obj\math.724D21D5.obj' vipRun.dll. ?arctan@RunTime@VIP@@YANN@Z 
[import] 'Obj\shell_api.D9156D40.obj' SHELL32.dll. _ShellExecuteExW@4 
[import] 'Obj\math.724D21D5.obj' vipRun.dll. ?exp@RunTime@VIP@@YANN@Z 
[import] 'Obj\runtime_api.0E79B0CD.obj' USER32.dll. _GetSystemMetrics@4 
[import] 'Obj\math.724D21D5.obj' vipRun.dll. ?ln@RunTime@VIP@@YANN@Z 
[import] 'Obj\filesystem.57D9C483.obj' KERNEL32.dll. _GetSystemDirectoryW@8 
[import] 'Obj\memory.9BD3BF38.obj' vipKernel.dll. ?SetTrapTop@Kernel@VIP@@YGXPAVTBackTrackBlock@12@@Z 
[import] 'Obj\registry_api.0E78C5E3.obj' ADVAPI32.dll. _RegEnumValueW@32 
[import] 'Obj\memory.9BD3BF38.obj' vipKernel.dll. ?GetTrapTop@Kernel@VIP@@YGQAVTBackTrackBlock@12@XZ 
[import] 'Obj\filesystem.57D9C483.obj' SHELL32.dll. _SHBrowseForFolderW@4 
[import] 'Obj\gui_api.5B4BA4CC.obj' GDI32.dll. _GetTextExtentPoint32W@16 
[import] 'Obj\multithread_api.6DC4E6F9.obj' KERNEL32.dll. _GetModuleHandleW@4 
[import] 'Obj\math.724D21D5.obj' vipRun.dll. ?round@RunTime@VIP@@YANN@Z 
[import] 'Obj\filesystem.57D9C483.obj' ole32.dll. _CoTaskMemFree@4 
[import] 'Obj\math.724D21D5.obj' vipRun.dll. ?roundToInteger@RunTime@VIP@@YGHN@Z 
[import] 'Obj\exception.544F7452.obj' vipRun.dll. ?ErrorRangeSigned@RunTime@VIP@@YGXQBV?$numericTypeDescriptor@H@12@H@Z 
[import] 'Obj\math.724D21D5.obj' vipRun.dll. ?roundToUnsigned@RunTime@VIP@@YGIN@Z 
[import] 'Obj\main.A22FE9BF.obj' vipRun.dll. __imp_?factDbTypeDescriptorVTBL_ptr@RunTime@VIP@@3PAXA 
[import] 'Obj\math.724D21D5.obj' vipRun.dll. ?roundToInteger64@RunTime@VIP@@YG_JN@Z 
[import] 'Obj\registry.88C8A89A.obj' vipKernel.dll. ?VIP_ErrorExit7@Kernel@VIP@@YGXPBVtrapInfo_interface@12@@Z 
[import] 'Obj\gui_api.5B4BA4CC.obj' GDI32.dll. _GetTextMetricsW@8 
[import] 'Obj\exe_api.A0303A40.obj' ole32.dll. _CoUninitialize@0 
[import] 'Obj\memory.9BD3BF38.obj' vipRun.dll. ?bitNot64@RunTime@VIP@@YA_K_K@Z 
[import] 'Obj\exe_api.A0303A40.obj' ole32.dll. _OleUninitialize@0 
[import] 'Obj\math.724D21D5.obj' vipRun.dll. ?roundToUnsigned64@RunTime@VIP@@YG_KN@Z 
[import] 'Obj\registry_api.0E78C5E3.obj' ADVAPI32.dll. _RegQueryValueExW@24 
[import] 'Obj\gui_api.5B4BA4CC.obj' USER32.dll. _RegisterClassExW@4 
[import] 'Obj\registry_api.0E78C5E3.obj' ADVAPI32.dll. _RegEnumKeyExW@32 
[import] 'Obj\gui_api.5B4BA4CC.obj' USER32.dll. _CreateWindowExW@48 
[import] 'Obj\registry_api.0E78C5E3.obj' ADVAPI32.dll. _RegCreateKeyExW@36 
[import] 'Obj\math.724D21D5.obj' vipRun.dll. ?universalNumericConvert4_ex@RunTime@VIP@@YGXPBVnumericTypeDescriptor_internal@12@0HPAX_N@Z 
[import] 'Obj\time_api.21FCC41B.obj' vipRun.dll. ?LoadProcAddress@RunTime@VIP@@YGP6GHXZQBGQBDPAP6GHXZ@Z 
[import] 'Obj\gui_api.5B4BA4CC.obj' USER32.dll. _IsDialogMessageW@8 
[import] 'Obj\std.1C7A9F9B.obj' vipRun.dll. ?subUnsigned64WOO_prolog@RunTime@VIP@@YG_K_K0@Z 
[import] 'Obj\gui_api.5B4BA4CC.obj' USER32.dll. _TranslateAccelerator@12 
[import] 'Obj\filesystem_api.1C9354BA.obj' KERNEL32.dll. _SetFilePointerEx@20 
[import] 'Obj\arraym_inline.5CB777DB.obj' vipRun.dll. ?getListMember_nd_prolog_opt@RunTime@VIP@@YAXXZ 
[import] 'Obj\std.1C7A9F9B.obj' vipRun.dll. ?addUnsigned64WOO_prolog@RunTime@VIP@@YG_K_K0@Z 
[import] 'Obj\gui_api.5B4BA4CC.obj' vipRun.dll. ?ConvertExIU@RunTime@VIP@@YGIPBVbaseIntegerDWordTypeDescriptor@12@PBV?$numericTypeDescriptor@I@12@HH@Z 
[import] 'Obj\varm.17B5C45B.obj' vipKernel.dll. ?OSMoveMemory@Kernel@VIP@@YAXPAXPBXI@Z 
[import] 'Obj\memory.9BD3BF38.obj' vipRun.dll. ?bitOr64@RunTime@VIP@@YA_K_K0@Z 
[import] 'Obj\filesystem_api.1C9354BA.obj' KERNEL32.dll. _CreateDirectoryW@8 
[import] 'Obj\filesystem.57D9C483.obj' vipRun.dll. ?int64mod_prolog@RunTime@VIP@@YG_J_J0@Z 
[import] 'Obj\filesystem_api.1C9354BA.obj' KERNEL32.dll. _SetVolumeLabelW@8 
[import] 'Obj\std.1C7A9F9B.obj' vipRun.dll. ?subInteger64_prolog@RunTime@VIP@@YG_J_J0@Z 
[import] 'Obj\filesystem_api.1C9354BA.obj' KERNEL32.dll. _GetCurrentDirectoryW@8 
[import] 'Obj\gui_api.5B4BA4CC.obj' USER32.dll. _EnableWindow@8 
[import] 'Obj\filesystem_api.1C9354BA.obj' KERNEL32.dll. _GetShortPathNameW@12 
[import] 'Obj\gui_api.5B4BA4CC.obj' USER32.dll. _DestroyIcon@4 
[import] 'Obj\filesystem.57D9C483.obj' KERNEL32.dll. _GetFileAttributesExW@12 
[import] 'Obj\gui_api.5B4BA4CC.obj' USER32.dll. _BeginPaint@8 
[import] 'Obj\filesystem.57D9C483.obj' KERNEL32.dll. _FindClose@4 
[import] 'Obj\gui_api.5B4BA4CC.obj' USER32.dll. _EndPaint@8 
[import] 'Obj\main.A22FE9BF.obj' vipRun.dll. __imp_?pointerTypeDescriptorVTBL_ptr@RunTime@VIP@@3PAXA 
[import] 'Obj\gui_api.5B4BA4CC.obj' USER32.dll. _GetClientRect@8 
[import] 'Obj\filesystem.57D9C483.obj' vipRun.dll. ?searchBackCh@RunTime@VIP@@YGIPBGG@Z 
[import] 'Obj\gui_api.5B4BA4CC.obj' KERNEL32.dll. _SetLastError@4 
[import] 'Obj\redblacktree.C0378524.obj' vipRun.dll. ?CompareTerms_Prolog@RunTime@VIP@@YA?AW4compareResult@_builtIn_class@@XZ 
[import] 'Obj\gui_api.5B4BA4CC.obj' USER32.dll. _GetWindowLongW@8 
[import] 'Obj\std.1C7A9F9B.obj' vipRun.dll. ?Comparison_I64@RunTime@VIP@@YG?AW4compareResult@_builtIn_class@@_J0@Z 
[import] 'Obj\gui_api.5B4BA4CC.obj' USER32.dll. _SetWindowLongW@12 
[import] 'Obj\filesystem.57D9C483.obj' VERSION.dll. _VerQueryValueW@16 
[import] 'Obj\gui_api.5B4BA4CC.obj' USER32.dll. _GetClassLongW@8 
[import] 'Obj\math.724D21D5.obj' vipKernel.dll. ?RunTimeError_FloatDivideByZero@Kernel@VIP@@YAXXZ 
[import] 'Obj\memory.9BD3BF38.obj' vipRun.dll. ?bitXor@RunTime@VIP@@YAIII@Z 
[import] 'Obj\string8.302F7782.obj' KERNEL32.dll. _IsValidCodePage@4 
[import] 'Obj\gui_api.5B4BA4CC.obj' USER32.dll. _SetClassLongW@12 
[import] 'Obj\string8.302F7782.obj' KERNEL32.dll. _IsBadStringPtrA@8 
[import] 'Obj\gui_api.5B4BA4CC.obj' GDI32.dll. _ExtTextOutW@32 
[import] 'Obj\string.B0A67F43.obj' USER32.dll. _IsCharAlphaW@4 
[import] 'Obj\gui_api.5B4BA4CC.obj' USER32.dll. _InvalidateRect@12 
[import] 'Obj\string.B0A67F43.obj' vipRun.dll. ?isAlpha@RunTime@VIP@@YG_NPBG@Z 
[import] 'Obj\gui_api.5B4BA4CC.obj' USER32.dll. _BringWindowToTop@4 
[import] 'Obj\filesystem_api.1C9354BA.obj' vipRun.dll. ?search@RunTime@VIP@@YG_NPBG0QAI@Z 
[import] 'Obj\gui_api.5B4BA4CC.obj' USER32.dll. _GetForegroundWindow@0 
[import] 'Obj\string.B0A67F43.obj' vipRun.dll. ?frontToken@RunTime@VIP@@YG_NPBGAAPAG1@Z 
[import] 'Obj\gui_api.5B4BA4CC.obj' USER32.dll. _SetForegroundWindow@4 
[import] 'Obj\filesystem.57D9C483.obj' KERNEL32.dll. _GetLastError@0 
[import] 'Obj\gui_api.5B4BA4CC.obj' USER32.dll. _SetFocus@4 
[import] 'Obj\locale_api.25A9E29D.obj' KERNEL32.dll. _GetThreadLocale@0 
[import] 'Obj\gui_api.5B4BA4CC.obj' USER32.dll. _GetParent@4 
[import] 'Obj\time_api.21FCC41B.obj' vipRun.dll. ?mulUnsigned64_prolog@RunTime@VIP@@YG_K_K0@Z 
[import] 'Obj\gui_api.5B4BA4CC.obj' USER32.dll. _SetParent@8 
[import] 'Obj\time_api.21FCC41B.obj' KERNEL32.dll. _GetTimeFormatW@24 
[import] 'Obj\redblacktree.C0378524.obj' vipRun.dll. __imp_?packedCompoundFunctorDescriptorVTBL_ptr@RunTime@VIP@@3PAXA 
[import] 'Obj\memory.9BD3BF38.obj' vipRun.dll. ?bitAnd@RunTime@VIP@@YAIII@Z 
[import] 'Obj\redblacktree.C0378524.obj' vipRun.dll. __imp_?packedCompoundTypeDescriptorVTBL_ptr@RunTime@VIP@@3PAXA 
[import] 'Obj\filesystem.57D9C483.obj' vipRun.dll. ?InitInputParser@RunTime@VIP@@YGPAVRInputStreamImpl@12@QAVRROBufferProvider@12@@Z 
[import] 'Obj\gui_api.5B4BA4CC.obj' USER32.dll. _ClientToScreen@8 
[import] 'Obj\memory.9BD3BF38.obj' vipRun.dll. ?bitNot@RunTime@VIP@@YAII@Z 
[import] 'Obj\gui_api.5B4BA4CC.obj' USER32.dll. _ScreenToClient@8 
[import] 'Obj\console.043C10C8.obj' KERNEL32.dll. _FillConsoleOutputCharacterW@20 
[import] 'Obj\gui_api.5B4BA4CC.obj' USER32.dll. _AdjustWindowRectEx@16 
[import] 'Obj\console.043C10C8.obj' KERNEL32.dll. _SetConsoleCursorPosition@8 
[import] 'Obj\gui_api.5B4BA4CC.obj' GDI32.dll. _DeleteObject@4 
[import] 'Obj\console.043C10C8.obj' KERNEL32.dll. _SetConsoleTitleW@4 
[import] 'Obj\gui_api.5B4BA4CC.obj' GDI32.dll. _SelectObject@8 
[import] 'Obj\outputstreamsupport.024B29AC.obj' vipRun.dll. ?saveDatabase@RunTime@VIP@@YGXQBVfactDbValue@12@QAVROutputStreamImpl@12@@Z 
[import] 'Obj\gui_api.5B4BA4CC.obj' GDI32.dll. _CreateFontIndirectW@4 
[import] 'Obj\outputstreamsupport.024B29AC.obj' vipRun.dll. ?write2Stream@RunTime@VIP@@YGXQAVROutputStreamImpl@12@IIQBVrEllipsisArguments@12@@Z 
[import] 'Obj\gui_api.5B4BA4CC.obj' USER32.dll. _GetIconInfo@8 
[import] 'Obj\console.043C10C8.obj' KERNEL32.dll. _GetConsoleCP@0 
[import] 'Obj\gui_api.5B4BA4CC.obj' USER32.dll. _CreateAcceleratorTableW@8 
[import] 'Obj\exceptiondump.174B23B9.obj' USER32.dll. _MessageBoxW@16 
[import] 'Obj\core.4BC2D97D.obj' vipRun.dll. __imp_?prologArrowTypeDescriptorVTBL_ptr@RunTime@VIP@@3PAXA 
[import] 'Obj\time_api.21FCC41B.obj' KERNEL32.dll. _FileTimeToSystemTime@8 
[import] 'Obj\gui_api.5B4BA4CC.obj' USER32.dll. _GetMessageW@16 
[import] 'Obj\systeminformation_api.2DB6162F.obj' USER32.dll. _SystemParametersInfoW@16 
[import] 'Obj\gui_api.5B4BA4CC.obj' USER32.dll. _ReleaseDC@8 
[import] 'Obj\systeminformation_api.2DB6162F.obj' Secur32.dll. _GetUserNameExW@12 
[import] 'Obj\gui_api.5B4BA4CC.obj' USER32.dll. _GetDC@4 
[import] 'Obj\reflection.0F000252.obj' vipRun.dll. ?ConvertExUR@RunTime@VIP@@YGNPBVbaseUnsignedDWordTypeDescriptor@12@PBV?$numericTypeDescriptor@N@12@IH@Z 
[import] 'Obj\gui_api.5B4BA4CC.obj' USER32.dll. _GetMenu@4 
[import] 'Obj\filesystem.57D9C483.obj' vipRun.dll. ?RetractFactDataBaseWCTS@RunTime@VIP@@YGXQBVfactDbValue@12@@Z 
[import] 'Obj\gui_api.5B4BA4CC.obj' USER32.dll. _GetMenuItemCount@4 
[import] 'Obj\inputstreamsupport.7C36EDAA.obj' vipRun.dll. ?ParseLine@RunTime@VIP@@YGPBGQAVRInputStreamImpl@12@@Z 
[import] 'Obj\memory.9BD3BF38.obj' vipKernel.dll. ?RegisterWeakPointer@Kernel@VIP@@YGXPAPAXPAX@Z 
[import] 'Obj\core.4BC2D97D.obj' vipRun.dll. __imp_?integer8TypeDescriptorVTBL_ptr@RunTime@VIP@@3PAXA 
[import] 'Obj\gui_api.5B4BA4CC.obj' USER32.dll. _KillTimer@8 
[import] 'Obj\systeminformation_api.2DB6162F.obj' KERNEL32.dll. _GetNativeSystemInfo@4 
[import] 'Obj\varm.17B5C45B.obj' vipRun.dll. __imp_?functor_typeLibraryVTBL_ptr@RunTime@VIP@@3PAXA 
[import] 'Obj\vpidomains.CE78C30C.obj' vipRun.dll. __imp_?compoundTypeDescriptorVTBL_ptr@RunTime@VIP@@3PAXA 
[import] 'Obj\gui_api.5B4BA4CC.obj' USER32.dll. _SetTimer@16 
[import] 'Obj\filesystem.57D9C483.obj' KERNEL32.dll. _GetTempFileNameW@16 
[import] 'Obj\gui_api.5B4BA4CC.obj' USER32.dll. _GetMenuItemRect@16 
[import] 'Obj\string8_api.41F368A6.obj' KERNEL32.dll. _WideCharToMultiByte@32 
[import] 'Obj\varm.17B5C45B.obj' vipRun.dll. __imp_?functorlessFunctorDescriptorVTBL_ptr@RunTime@VIP@@3PAXA 
[import] 'Obj\main.A22FE9BF.obj' vipRun.dll. __imp_?unsigned64TypeDescriptorVTBL_ptr@RunTime@VIP@@3PAXA 
[import] 'Obj\varm.17B5C45B.obj' vipRun.dll. __imp_?functorlessTypeDescriptorVTBL_ptr@RunTime@VIP@@3PAXA 
[import] 'Obj\filesystem.57D9C483.obj' vipKernel.dll. ?OSCompareMemory@Kernel@VIP@@YGHPBX0I@Z 
[import] 'Obj\gui_api.5B4BA4CC.obj' USER32.dll. _GetMenuItemInfoW@16 
[import] 'Obj\filesystem.57D9C483.obj' KERNEL32.dll. _GetDriveTypeW@4 
[import] 'Obj\reflection.0F000252.obj' vipRun.dll. ?ConvertExIR@RunTime@VIP@@YGNPBVbaseIntegerDWordTypeDescriptor@12@PBV?$numericTypeDescriptor@N@12@HH@Z 
[import] 'Obj\console.043C10C8.obj' KERNEL32.dll. _SetConsoleOutputCP@4 
[import] 'Obj\gui_api.5B4BA4CC.obj' USER32.dll. _SendInput@12 
[import] 'Obj\shell_api.D9156D40.obj' SHELL32.dll. _ShellExecuteW@24 
[import] 'Obj\gui_api.5B4BA4CC.obj' USER32.dll. _InsertMenuItemW@16 
[import] 'Obj\filesystem.57D9C483.obj' KERNEL32.dll. _GetWindowsDirectoryW@8 
[import] 'Obj\gui_api.5B4BA4CC.obj' USER32.dll. _EndMenu@0 
[import] 'Obj\filesystem.57D9C483.obj' SHELL32.dll. _SHGetPathFromIDListW@8 
[import] 'Obj\gui_api.5B4BA4CC.obj' USER32.dll. _MoveWindow@24 
[import] 'Obj\registry_api.0E78C5E3.obj' ADVAPI32.dll. _RegDeleteValueW@8 
[import] 'Obj\memory.9BD3BF38.obj' vipKernel.dll. ?ReleaseHeap@Kernel@VIP@@YGXPAE@Z 
[import] 'Obj\registry.88C8A89A.obj' KERNEL32.dll. _FormatMessageW@28 
[import] 'Obj\gui_api.5B4BA4CC.obj' USER32.dll. _OpenClipboard@4 
[import] 'Obj\exe_api.A0303A40.obj' ole32.dll. _OleInitialize@4 
[import] 'Obj\gui_api.5B4BA4CC.obj' USER32.dll. _CloseClipboard@0 
[import] 'Obj\registry_api.0E78C5E3.obj' ADVAPI32.dll. _RegSetValueExW@24 
[import] 'Obj\gui_api.5B4BA4CC.obj' USER32.dll. _GetClipboardOwner@0 
[import] 'Obj\main.A22FE9BF.obj' vipRun.dll. __imp_?handleTypeDescriptorVTBL_ptr@RunTime@VIP@@3PAXA 
[import] 'Obj\gui_api.5B4BA4CC.obj' USER32.dll. _SetClipboardViewer@4 
[import] 'Obj\filesystem_api.1C9354BA.obj' KERNEL32.dll. _GetFileSizeEx@8 
[import] 'Obj\gui_api.5B4BA4CC.obj' USER32.dll. _GetClipboardViewer@0 
[import] 'Obj\binary.9C7C16C6.obj' vipRun.dll. ?searchForChar@RunTime@VIP@@YGIPBGGI@Z 
[import] 'Obj\gui_api.5B4BA4CC.obj' USER32.dll. _ChangeClipboardChain@8 
[import] 'Obj\filesystem_api.1C9354BA.obj' KERNEL32.dll. _MoveFileW@8 
[import] 'Obj\gui_api.5B4BA4CC.obj' USER32.dll. _SetClipboardData@8 
[import] 'Obj\filesystem_api.1C9354BA.obj' KERNEL32.dll. _SetCurrentDirectoryW@4 
[import] 'Obj\memory.9BD3BF38.obj' KERNEL32.dll. _IsBadWritePtr@8 
[import] 'Obj\exceptiondump.174B23B9.obj' KERNEL32.dll. _GetTempPathW@8 
[import] 'Obj\varm.17B5C45B.obj' vipRun.dll. __imp_?interfaceTypeDescriptorVTBL_ptr@RunTime@VIP@@3PAXA 
[import] 'Obj\binary.9C7C16C6.obj' vipRun.dll. ?calculateCRC@RunTime@VIP@@YAHQBVTBinary@@H@Z 
[import] 'Obj\gui_api.5B4BA4CC.obj' USER32.dll. _GetClipboardData@4 
[import] 'Obj\list.1520BD2B.obj' vipRun.dll. ?firstBranchObjectConversion@RunTime@VIP@@YGQBVRObject@12@QBVscopeDescriptor@12@QBV312@H@Z 
[import] 'Obj\varm.17B5C45B.obj' vipRun.dll. __imp_?scopeDescriptorVTBL_ptr@RunTime@VIP@@3PAXA 
[import] 'Obj\event.35BDD536.obj' vipRun.dll. ?AssertZNonDetermFactWCTS@RunTime@VIP@@YGXITRTerm@12@PAVrFactList@12@II@Z 
[import] 'Obj\gui_api.5B4BA4CC.obj' USER32.dll. _RegisterClipboardFormatW@4 
[import] 'Obj\math.724D21D5.obj' vipRun.dll. ?abs_rr@RunTime@VIP@@YANN@Z 
[import] 'Obj\memory.9BD3BF38.obj' KERNEL32.dll. _IsBadReadPtr@8 
[import] 'Obj\string.B0A67F43.obj' vipRun.dll. ?trimLast@RunTime@VIP@@YAPBGPBG@Z 
[import] 'Obj\gui_api.5B4BA4CC.obj' USER32.dll. _CountClipboardFormats@0 
[import] 'Obj\string.B0A67F43.obj' vipRun.dll. ?replace@RunTime@VIP@@YGPBGPBG00H_N@Z 
[import] 'Obj\gui_api.5B4BA4CC.obj' USER32.dll. _EnumClipboardFormats@4 
[import] 'Obj\memory.9BD3BF38.obj' vipKernel.dll. ?OSCopyMemory@Kernel@VIP@@YAXPAXPBXI@Z 
[import] 'Obj\gui_api.5B4BA4CC.obj' USER32.dll. _GetClipboardFormatNameW@12 
[import] 'Obj\std.1C7A9F9B.obj' vipKernel.dll. ?AllocAtomicHeapWithContext@Kernel@VIP@@YGQAEIII@Z 
[import] 'Obj\gui_api.5B4BA4CC.obj' USER32.dll. _EmptyClipboard@0 
[import] 'Obj\console.043C10C8.obj' vipRun.dll. ?Error_DetermFactIsAlreadyAsserted@RunTime@VIP@@YAXQBVtypeLibrary@12@I@Z 
[import] 'Obj\gui_api.5B4BA4CC.obj' USER32.dll. _IsClipboardFormatAvailable@4 
[import] 'Obj\memory.9BD3BF38.obj' vipRun.dll. ?bitRight@RunTime@VIP@@YAIII@Z 
[import] 'Obj\memory.9BD3BF38.obj' vipKernel.dll. ?AllocAtomicHeap@Kernel@VIP@@YGPAEI@Z 
[import] 'Obj\console.043C10C8.obj' KERNEL32.dll. _GetConsoleTitleW@8 
[import] 'Obj\memory.9BD3BF38.obj' vipKernel.dll. ?AllocHeap@Kernel@VIP@@YGPAEI@Z 
[import] 'Obj\outputstreamsupport.024B29AC.obj' vipRun.dll. ?format2Stream@RunTime@VIP@@YGXQAVROutputStreamImpl@12@QBGQBVrEllipsisArguments@12@@Z 
[import] 'Obj\memory.9BD3BF38.obj' vipKernel.dll. ?AllocUncollectableHeap@Kernel@VIP@@YGPAEI@Z 
[import] 'Obj\varm.17B5C45B.obj' vipRun.dll. ?AllocateObjectEx@RunTime@VIP@@YGPAEQBVRObjectClassDescriptorInfo@12@PAP6GXPAX@Z@Z 
[import] 'Obj\memory.9BD3BF38.obj' vipKernel.dll. ?memProf_ContextClose@Kernel@VIP@@YGXI@Z 
[import] 'Obj\console.043C10C8.obj' KERNEL32.dll. _WaitForSingleObject@8 
[import] 'Obj\gui_api.5B4BA4CC.obj' USER32.dll. _GetPriorityClipboardFormat@8 
[import] 'Obj\filesystem.57D9C483.obj' KERNEL32.dll. _DeleteFileW@4 
[import] 'Obj\gui_api.5B4BA4CC.obj' USER32.dll. _GetOpenClipboardWindow@0 
[import] 'Obj\inputstreamsupport.7C36EDAA.obj' vipRun.dll. ?ParseFromStream@RunTime@VIP@@YGPAXQBVtypeLibrary@12@QAVRInputStreamImpl@12@I@Z 
[import] 'Obj\memory.9BD3BF38.obj' vipRun.dll. ?sizeOfTerm@RunTime@VIP@@YGIQBVtypeLibrary@12@PAX@Z 
[import] 'Obj\filesystem.57D9C483.obj' vipRun.dll. __imp_?integer16TypeDescriptorVTBL_ptr@RunTime@VIP@@3PAXA 
[import] 'Obj\memory.9BD3BF38.obj' vipKernel.dll. ?memProf_ContextOpen@Kernel@VIP@@YGIII@Z 
[import] 'Obj\systeminformation_api.2DB6162F.obj' KERNEL32.dll. _GetSystemInfo@4 
[import] 'Obj\gui_api.5B4BA4CC.obj' USER32.dll. _DestroyWindow@4 
[import] 'Obj\filesystem.57D9C483.obj' KERNEL32.dll. _SetFileTime@16 
[import] 'Obj\gui_api.5B4BA4CC.obj' USER32.dll. _GetWindowTextLengthW@4 
[import] 'Obj\filesystem.57D9C483.obj' KERNEL32.dll. _SearchPathW@24 
[import] 'Obj\memory.9BD3BF38.obj' vipKernel.dll. ?UnRegisterWeakPointer@Kernel@VIP@@YGXPAPAX@Z 
[import] 'Obj\shell_api.D9156D40.obj' SHLWAPI.dll. _SHCreateStreamOnFileEx@24 
[import] 'Obj\varm.17B5C45B.obj' vipRun.dll. __imp_?typeLibraryVTBL_ptr@RunTime@VIP@@3PAXA 
[import] 'Obj\programcontrol.5D08C78A.obj' vipRun.dll. __imp_?otherArrowTypeDescriptorVTBL_ptr@RunTime@VIP@@3PAXA 
[import] 'Obj\filesystem.57D9C483.obj' USER32.dll. _SendMessageW@16 
[import] 'Obj\exception.544F7452.obj' KERNEL32.dll. _GetCurrentThreadId@0 
[import] 'Obj\gui_api.5B4BA4CC.obj' USER32.dll. _GetWindowRect@8 
[import] 'Obj\registry.88C8A89A.obj' vipRun.dll. ?bitOr@RunTime@VIP@@YAIII@Z 
[import] 'Obj\gui_api.5B4BA4CC.obj' USER32.dll. _LoadImageW@24 
[import] 'Obj\filesystem.57D9C483.obj' KERNEL32.dll. _CreateFileW@28 
[import] 'Obj\collectionsupport.6DAD372D.obj' vipKernel.dll. ?MEM_alloc_listElementWithContextP@Kernel@VIP@@YGPBU?$__packedList_struct@E@@XZ 
[import] 'Obj\filesystem_api.1C9354BA.obj' KERNEL32.dll. _RemoveDirectoryW@4 
[import] 'Obj\reflection.0F000252.obj' vipKernel.dll. ?Cut_Prolog@Kernel@VIP@@YAXXZ 
[import] 'Obj\filesystem_api.1C9354BA.obj' KERNEL32.dll. _GetLongPathNameW@12 
[import] 'Obj\gui_api.5B4BA4CC.obj' USER32.dll. _GetWindowThreadProcessId@8 
[import] 'Obj\filesystem.57D9C483.obj' VERSION.dll. _GetFileVersionInfoW@16 
[import] 'Obj\gui_api.5B4BA4CC.obj' USER32.dll. _AttachThreadInput@12 
[import] 'Obj\exe.3A8A8F5C.obj' vipKernel.dll. ?GarbageCollector@Kernel@VIP@@YAXXZ 
[import] 'Obj\reflection.0F000252.obj' vipKernel.dll. ?Stkb2@Kernel@VIP@@YAXXZ 
[import] 'Obj\string.B0A67F43.obj' USER32.dll. _CharUpperW@4 
[import] 'Obj\varm.17B5C45B.obj' vipKernel.dll. ?Run_Fail@Kernel@VIP@@YAXXZ 
[import] 'Obj\string.B0A67F43.obj' vipRun.dll. ?create@RunTime@VIP@@YGPBGIPBG@Z 
[import] 'Obj\gui_api.5B4BA4CC.obj' USER32.dll. _SetActiveWindow@4 
[import] 'Obj\console.043C10C8.obj' KERNEL32.dll. _SetConsoleMode@8 
[import] 'Obj\gui_api.5B4BA4CC.obj' GDI32.dll. _Rectangle@20 
[import] 'Obj\time_api.21FCC41B.obj' KERNEL32.dll. _SystemTimeToFileTime@8 
[import] 'Obj\gui_api.5B4BA4CC.obj' USER32.dll. _DrawFocusRect@8 
[import] 'Obj\varm.17B5C45B.obj' vipRun.dll. __imp_?factDatabaseTypeDescriptorVTBL_ptr@RunTime@VIP@@3PAXA 
[import] 'Obj\gui_api.5B4BA4CC.obj' USER32.dll. _TrackMouseEvent@4 
[import] 'Obj\inputstreamsupport.7C36EDAA.obj' vipRun.dll. ?ParseString@RunTime@VIP@@YGPBGQAVRInputStreamImpl@12@I@Z 
[import] 'Obj\gui_api.5B4BA4CC.obj' USER32.dll. _GetMonitorInfoW@8 
[import] 'Obj\reflection.0F000252.obj' vipRun.dll. __imp_?enumericFunctorDescriptorVTBL_ptr@RunTime@VIP@@3PAXA 
[import] 'Obj\gui_api.5B4BA4CC.obj' USER32.dll. _SetWindowPos@28 
[import] 'Obj\varm.17B5C45B.obj' vipRun.dll. ?sizeOfDomain@RunTime@VIP@@YGIQBVtypeLibrary@12@@Z 
[import] '..\..\..\_intermediate\sourceVS\vipInit\Win32\ReleasePE\VIPMain.obj' vipKernel.dll. ?KernelUnitInitialization@Kernel@VIP@@YGHPAX@Z 
[import] 'Obj\filesystem.57D9C483.obj' SHELL32.dll. _SHGetFolderPathW@20 
[import] '..\..\..\_intermediate\sourceVS\vipInit\Win32\ReleasePE\VIPMain.obj' vipKernel.dll. ?ExeInitialization@Kernel@VIP@@YAHXZ 
[import] 'Obj\exe_api.A0303A40.obj' ole32.dll. _CoInitializeEx@8 
[import] '..\..\..\_intermediate\sourceVS\vipInit\Win32\ReleasePE\VIPDll.obj' vipKernel.dll. ?RunGoal@Kernel@VIP@@YGIQ6AIXZ@Z 
[import] 'Obj\filesystem_api.1C9354BA.obj' KERNEL32.dll. _GetVolumeInformationW@32 
[import] '..\..\..\_intermediate\sourceVS\vipInit\Win32\ReleasePE\VIPMain.obj' vipKernel.dll. ?ExeTermination@Kernel@VIP@@YAXH@Z 
[import] 'Obj\exception.544F7452.obj' vipKernel.dll. ?VIP_ErrorExitCreate@Kernel@VIP@@YGPAVtrapInfo_interface@12@I@Z 
[import] '..\..\..\_intermediate\sourceVS\vipInit\Win32\ReleasePE\VIPDll.obj' vipKernel.dll. ?KernelUnitTermination@Kernel@VIP@@YAXPAX@Z 
[import] 'Obj\string.B0A67F43.obj' USER32.dll. _IsCharUpperW@4 
[import] '..\..\..\_intermediate\sourceVS\vipInit\Win32\ReleasePE\VIPDll.obj' vipRun.dll. ?RunUnitInitialization@RunTime@VIP@@YGHPAX@Z 
[import] 'Obj\varm.17B5C45B.obj' vipRun.dll. ?objectConversion@RunTime@VIP@@YGQBVRObject@12@QBVscopeDescriptor@12@QBV312@H@Z 
[import] '..\..\..\_intermediate\sourceVS\vipInit\Win32\ReleasePE\VIPDll.obj' vipRun.dll. ?InitializationDictionaries@RunTime@VIP@@YGHPBVdicofdic@12@@Z 
[import] 'Obj\console.043C10C8.obj' KERNEL32.dll. _GetConsoleScreenBufferInfo@8 
[import] '..\..\..\_intermediate\sourceVS\vipInit\Win32\ReleasePE\VIPDll.obj' vipRun.dll. ?RunUnitTermination@RunTime@VIP@@YGXPAX@Z 
[import] 'Obj\inputstreamsupport.7C36EDAA.obj' vipRun.dll. ?ParseChar@RunTime@VIP@@YGGQAVRInputStreamImpl@12@@Z 
[import] 'Obj\gui_api.5B4BA4CC.obj' USER32.dll. _UpdateLayeredWindow@36 
[import] 'Obj\console_api.885E7959.obj' KERNEL32.dll. _SetConsoleCtrlHandler@8 
[import] '..\..\..\_intermediate\sourceVS\vipInit\Win32\ReleasePE\VIPMain.obj' KERNEL32.dll. __imp__ExitProcess@4 
[import] 'Obj\registry_api.0E78C5E3.obj' ADVAPI32.dll. _RegDeleteKeyW@8 
[import] '..\..\..\_intermediate\sourceVS\vipInit\Win32\ReleasePE\VIPDll.obj' vipKernel.dll. ?KernelUnitInitialization2@Kernel@VIP@@YGHPAX_N@Z 
[import] 'Obj\event.35BDD536.obj' vipKernel.dll. ?Stkb3@Kernel@VIP@@YAXXZ 
[import] 'Obj\gui_api.5B4BA4CC.obj' GDI32.dll. _GetStockObject@4 
[import] 'Obj\time_api.21FCC41B.obj' vipRun.dll. ?uint64mod_prolog@RunTime@VIP@@YG_K_K0@Z 
[import] 'Obj\gui_api.5B4BA4CC.obj' USER32.dll. _MonitorFromPoint@12 
[import] 'Obj\filesystem_api.1C9354BA.obj' KERNEL32.dll. _GetDiskFreeSpaceExW@16 
[import] 'Obj\exception.544F7452.obj' vipRun.dll. ?write2String@RunTime@VIP@@YGQBGIIQBVrEllipsisArguments@12@@Z 
[import] 'Obj\systeminformation_api.2DB6162F.obj' KERNEL32.dll. _GetComputerNameExW@12 
[import] 'Obj\exception.544F7452.obj' KERNEL32.dll. _GetModuleFileNameW@12 
[import] 'Obj\gui_api.5B4BA4CC.obj' vipRun.dll. ?copyString2inline@RunTime@VIP@@YGXQAXQBXII@Z 
[import] '..\..\..\_intermediate\sourceVS\vipInit\Win32\ReleasePE\VIPPE.obj' USER32.dll. __imp__MessageBoxA@16 
[import] 'Obj\gui_api.5B4BA4CC.obj' USER32.dll. _MonitorFromWindow@8 
[import] 'Obj\filesystem.57D9C483.obj' KERNEL32.dll. _SetFileAttributesW@8 
--- Total Names =  4262 --------
--- Total Cnt   =  4262 --------
--------------------------------

